@mc:1017

_init = 0x24
_fini = 0x160
__nnDetailNintendoSdkRuntimeObjectFileRefer = 0x1ac
__nnDetailNintendoSdkRuntimeObjectFile = 0x1b0
_ZN4AABB13ThreadStorageC1Ev = 0x1b4
_ZN4AABB13ThreadStorageD2Ev = 0x208
_ZN4AABB22CreateNewThreadStorageEv = 0x218
_ZN4AABB23UseDefaultThreadStorageEv = 0x278
_ZN4AABB20ReleaseThreadStorageEv = 0x294
_ZN4AABB12newPermanentEdddddd = 0x2f0
_ZN4AABB12newPermanentERK8BlockPos = 0x364
_ZNK5Vec3i4getXEv = 0x3fc
_ZNK5Vec3i4getYEv = 0x404
_ZNK5Vec3i4getZEv = 0x40c
_ZN4AABB12newPermanentERK8BlockPosRK8BlockPos = 0x414
_ZN4AABB12newPermanentEPK4AABB = 0x4a4
_ZN4AABB9resetPoolEv = 0x4b4
_ZN4AABB7newTempEdddddd = 0x4b8
_ZN4AABB3setEdddddd = 0x550
_ZN4AABB7newTempERK8BlockPos = 0x5e0
_ZN4AABB7newTempERK8BlockPosRK8BlockPos = 0x678
_ZN4AABB7newTempEPK4AABB = 0x708
_ZN4AABBC1Edddddd = 0x718
_ZNK4AABB6equalsEPK4AABB = 0x7f4
_ZN4AABB3setEPK4AABB = 0x88c
_ZN4AABB8contractEddd = 0x8c0
_ZNK4AABB6expandEddd = 0x91c
_ZNK4AABB4growEddd = 0xb54
_ZNK4AABB4growEd = 0xb88
_ZNK4AABB10intersectsEPK4AABB = 0xf20
_ZNK4AABB8containsERK8BlockPos = 0x1080
_ZNK4AABB8containsEP4Vec3 = 0x10e0
_ZNK4AABB27containsIncludingLowerBoundEP4Vec3 = 0x116c
_ZNK4AABB7getSizeEv = 0x11f8
_ZNK4AABB6shrinkEddd = 0x1224
_ZNK4AABB6shrinkEd = 0x1234
_ZN6Double8checkNanEd = 0x16cc
_ZN9AbilitiesC1Ev = 0x1794
_ZNK9AbilitieseqERKS_ = 0x17bc
_ZN9Abilities11addSaveDataEP11CompoundTag = 0x1860
_ZN9Abilities12loadSaveDataEP11CompoundTag = 0x1aa0
_ZN9Abilities14getFlyingSpeedEv = 0x1db8
_ZN9Abilities14setFlyingSpeedEf = 0x1dc0
_ZN9Abilities15getWalkingSpeedEv = 0x1dc8
_ZN9Abilities15setWalkingSpeedEf = 0x1dd0
_ZN9Abilities5writeEP16DataOutputStream = 0x1dd8
_ZN9Abilities4readEP15DataInputStream = 0x1e80
_GLOBAL__sub_I_UnityWorld2.cpp = 0xa2e0
_ZNK18AbstractBlockState5cycleEPK8Property = 0xa878
_ZNK18AbstractBlockState8toStringEv = 0xa91c
_ZN20AbstractChestedHorse10staticCtorEv = 0xab28
_ZNSt3__110shared_ptrI12ItemInstanceED2Ev = 0xb7c4
_ZN12not_null_ptrI12ItemInstanceEC1EPS0_ = 0xbe2c
_ZNSt3__110shared_ptrI6PlayerED2Ev = 0xc5e0
_ZN12not_null_ptrI12ItemInstanceEC2ERKS1_ = 0xce60
_ZNSt3__110shared_ptrI9ContainerED2Ev = 0xd138
_ZN12not_null_ptrI12ItemInstanceEC2EOS1_ = 0xf0d4
_ZN6Entity6isTypeEi = 0xf3d0
_ZN13AbstractHorse10staticCtorEv = 0x103e4
_ZN5Block17defaultBlockStateEv = 0x11eac
_ZNK8BlockPos5aboveEv = 0x11eb4
_ZN15arrayWithLengthIiEC2Ev = 0x128b4
_ZN15AbstractIllager10staticCtorEv = 0x14120
_ZNK9Direction4getXEv = 0x144cc
_ZNK9Direction4getYEv = 0x144d4
_ZNK9Direction4getZEv = 0x144dc
_ZN16AbstractSkeleton10staticCtorEv = 0x14610
_ZNK10BlockState8setValueIbEEPKS_P8PropertyT_ = 0x159c4
_ZNK8BlockPos5aboveEi = 0x1615c
_ZNK8BlockPos6offsetEiii = 0x16188
_ZNK8BlockPos5belowEv = 0x16280
_ZN15DataInputStreamD1Ev = 0x16698
_ZN16DataOutputStreamD1Ev = 0x16798
_ZN17AddDeepOceanLayerC1ExNSt3__110shared_ptrI5LayerEE = 0x19990
_ZN17AddDeepOceanLayerD2Ev = 0x19a10
_ZN17AddDeepOceanLayerD0Ev = 0x19a14
_ZN17AddDeepOceanLayer7getAreaEiiii = 0x19a38
_ZN15arrayWithLengthIiEixEj = 0x19be0
_ZN12AddEdgeLayerC1ExNSt3__110shared_ptrI5LayerEEN12AddEdgeLayer4ModeE = 0x19bec
_ZN12AddEdgeLayerD2Ev = 0x19c74
_ZN12AddEdgeLayerD0Ev = 0x19c78
_ZN12AddEdgeLayer7getAreaEiiii = 0x19c9c
_ZN14AddIslandLayerC1ExNSt3__110shared_ptrI5LayerEE = 0x1a170
_ZN14AddIslandLayer7getAreaEiiii = 0x1a1f0
_ZN22AddMushroomIslandLayerC1ExNSt3__110shared_ptrI5LayerEE = 0x1a4e4
_ZN22AddMushroomIslandLayer7getAreaEiiii = 0x1a564
_ZN12AddSnowLayerC1ExNSt3__110shared_ptrI5LayerEE = 0x1a76c
_ZN12AddSnowLayer7getAreaEiiii = 0x1a7ec
_ZN9AgableMob10staticCtorEv = 0x1a98c
_ZN14SimpleRegistryI16ResourceLocation11eINSTANCEOFNSt3__14hashIS0_EENS2_8equal_toIS0_EEE3getES0_ = 0x1ad14
_ZN8AirBlockC1Ev = 0x1b45c
_ZN5BlockC1EP8Material = 0x1b49c
_ZN8AirBlock14getRenderShapeEPK10BlockState = 0x1b4e8
_ZN8AirBlock11getClipAABBEPK10BlockStateP11LevelSourceRK8BlockPos = 0x1b4f0
_ZNK8AirBlock13isSolidRenderEPK10BlockState = 0x1b4f8
_ZN8AirBlock7mayPickEPK10BlockStateb = 0x1b500
_ZN8AirBlock14spawnResourcesEP5LevelRK8BlockPosPK10BlockStatefi = 0x1b508
_ZN8AirBlock19mayReplaceWithPlaceEP11LevelSourceRK8BlockPos = 0x1b50c
_ZN8AirBlock12isCubeShapedEPK10BlockState = 0x1b514
_ZN8AirBlock17getBlockFaceShapeEP11LevelSourcePK10BlockStateRK8BlockPosPK9Direction = 0x1b51c
_ZN7AirItemC1EP5Block = 0x1b524
_ZN6Animal10staticCtorEv = 0x1b69c
_ZN10AnvilBlock15blockStaticCtorEv = 0x1c070
_ZN5Block20registerDefaultStateEPK10BlockState = 0x1c138
_ZN20BlockStateDefinition3anyEv = 0x1c140
_ZNK10BlockState8setValueIiEEPKS_P8PropertyT_ = 0x1c1c0
_ZN10AnvilBlock12isCubeShapedEPK10BlockState = 0x1c220
_ZN10AnvilBlock17getBlockFaceShapeEP11LevelSourcePK10BlockStateRK8BlockPosPK9Direction = 0x1c228
_ZNK10AnvilBlock13isSolidRenderEPK10BlockState = 0x1c230
_ZN10AnvilBlock20getStateForPlacementEP5LevelRK8BlockPosPK9DirectionfffiSt10shared_ptrI12LivingEntityE = 0x1c238
_ZN5Block20getStateForPlacementEP5LevelRK8BlockPosPK9DirectionfffiSt10shared_ptrI12LivingEntityE = 0x1c2e0
_ZN10AnvilBlock3useEP5LevelRK8BlockPosPK10BlockStateSt10shared_ptrI6PlayerEN15InteractionHand16EInteractionHandEPK9Directionfffb = 0x1c2f0
_ZN10AnvilBlock25getSpawnResourcesAuxValueEPK10BlockState = 0x1c3ac
_ZNK10BlockState8getValueIiEET_P8Property = 0x1c3c4
_ZN10AnvilBlock8getShapeEPK10BlockStateP11LevelSourceRK8BlockPos = 0x1c3ec
_ZN10AnvilBlock16shouldRenderFaceEPK10BlockStateP11LevelSourceRK8BlockPosPK9Direction = 0x1c474
_ZN8NameableC2Ev = 0x1c494
_ZN10AnvilBlock13getBlockStateEi = 0x1c634
_ZN10AnvilBlock29convertBlockStateToLegacyDataEPK10BlockState = 0x1c694
_ZN10AnvilBlock18GetInteractTooltipERK22BlockTooltipDataHolder = 0x1c6e4
_ZN5Block18GetInteractTooltipERK22BlockTooltipDataHolder = 0x1c70c
_ZN10AnvilBlock6rotateEPK10BlockStateP8Rotation = 0x1c900
_ZN10AnvilBlock26createBlockStateDefinitionEv = 0x1c988
_ZN10AnvilBlock10getTextureEPK9DirectionPK10BlockState = 0x1ca5c
_ZN10AnvilBlock13registerIconsEP12IconRegister = 0x1cabc
_ZN10AnvilBlock14getRenderShapeEPK10BlockState = 0x1cb84
_ZN15AreaEffectCloud10staticCtorEv = 0x1e33c
_ZN15arrayWithLengthIiEC2Ejb = 0x1fce4
_ZN9ArmorItem10staticCtorEv = 0x21ac8
_ZNK8BlockPos8relativeEPK9Direction = 0x22004
_ZN9ArmorItem13ArmorMaterial16getHealthForSlotEPK13EquipmentSlot = 0x220fc
_ZNK9ArmorItem13ArmorMaterial17getDefenseForSlotEPK13EquipmentSlot = 0x22134
_ZNK9ArmorItem13ArmorMaterial12getToughnessEv = 0x22210
_ZN9ArmorItemC1EPKN9ArmorItem13ArmorMaterialEiPK13EquipmentSlot = 0x22218
_ZN11ColourTable9getColourE16eMinecraftColour = 0x2264c
_ZN23InteractionResultHolderC2EN17InteractionResult18EInteractionResultERK12not_null_ptrI12ItemInstanceE = 0x22980
_ZN17AttributeModifierC1E12eMODIFIER_IDdi = 0x22c2c
_ZN10ArmorStand10staticCtorEv = 0x23a04
_ZN10ArmorStand14addDataWalkersEP14DataFixerUpper = 0x241a0
_ZN5Block13getIdWithDataEPK10BlockState = 0x26564
_ZN5Block11popResourceEP5LevelRK8BlockPos12not_null_ptrI12ItemInstanceE = 0x265c8
_ZN5Arrow10staticCtorEv = 0x27300
_ZNSt3__110shared_ptrI6PacketED2Ev = 0x293c8
_ZN5Arrow12setCritArrowEb = 0x293d8
_ZN5Arrow14addDataWalkersEP14DataFixerUpper = 0x294a4
_ZN5Block4byIdEi = 0x29d84
_ZN22ArrowDamageEnchantmentC1EPK6Rarity15arrayWithLengthIPK13EquipmentSlotE = 0x29ed0
_ZN22ArrowDamageEnchantment10getMinCostEi = 0x29f28
_ZN22ArrowDamageEnchantment10getMaxCostEi = 0x29f38
_ZN22ArrowDamageEnchantment11getMaxLevelEv = 0x29f58
_ZN20ArrowFireEnchantment10getMinCostEi = 0x29fb8
_ZN20ArrowFireEnchantment10getMaxCostEi = 0x29fc0
_ZN20ArrowFireEnchantment11getMaxLevelEv = 0x29fc8
_ZN24ArrowInfiniteEnchantment10getMinCostEi = 0x2a028
_ZN24ArrowInfiniteEnchantment10getMaxCostEi = 0x2a030
_ZN24ArrowInfiniteEnchantment11getMaxLevelEv = 0x2a038
_ZN24ArrowInfiniteEnchantment18checkCompatibilityEPKS_ = 0x2a040
_ZN25ArrowKnockbackEnchantmentC1EPK6Rarity15arrayWithLengthIPK13EquipmentSlotE = 0x2a178
_ZN25ArrowKnockbackEnchantment10getMinCostEi = 0x2a1d0
_ZN25ArrowKnockbackEnchantment10getMaxCostEi = 0x2a1e0
_ZN25ArrowKnockbackEnchantment11getMaxLevelEv = 0x2a200
_ZN7AxeItem10staticCtorEv = 0x2ae5c
_ZN11BannerBlock15blockStaticCtorEv = 0x2b0c4
_ZN19StandingBannerBlock7getNameEv = 0x2b16c
_ZN19StandingBannerBlock11getClipAABBEPK10BlockStateP11LevelSourceRK8BlockPos = 0x2b1b0
_ZN19StandingBannerBlock12isCubeShapedEPK10BlockState = 0x2b1b8
_ZN19StandingBannerBlock14isPathfindableEP11LevelSourceRK8BlockPos = 0x2b1c0
_ZNK19StandingBannerBlock13isSolidRenderEPK10BlockState = 0x2b1c8
_ZN19StandingBannerBlock25isPossibleToRespawnInThisEv = 0x2b1d0
_ZNSt3__110shared_ptrI11BlockEntityED2Ev = 0x2b338
_ZN19StandingBannerBlock11getResourceEPK10BlockStateP6Randomi = 0x2b34c
_ZN19StandingBannerBlock20getCloneItemInstanceEP5LevelRK8BlockPosPK10BlockState = 0x2b4bc
_ZN19StandingBannerBlock14spawnResourcesEP5LevelRK8BlockPosPK10BlockStatefi = 0x2b534
_ZN5Block14spawnResourcesEP5LevelRK8BlockPosPK10BlockStatefi = 0x2b5e4
_ZN19StandingBannerBlock8mayPlaceEP5LevelRK8BlockPos = 0x2b714
_ZN5Block8mayPlaceEP5LevelRK8BlockPos = 0x2b7e4
_ZN19StandingBannerBlock21getPistonPushReactionEPK10BlockState = 0x2b820
_ZN19StandingBannerBlock13playerDestroyEP5LevelSt10shared_ptrI6PlayerERK8BlockPosPK10BlockStateSt10shared_ptrI11BlockEntityE12not_null_ptrI12ItemInstanceE = 0x2b828
_ZN13WallSignBlock13playerDestroyEP5LevelSt10shared_ptrI6PlayerERK8BlockPosPK10BlockStateSt10shared_ptrI11BlockEntityE12not_null_ptrI12ItemInstanceE = 0x2b964
_ZN19StandingBannerBlock17getBlockFaceShapeEP11LevelSourcePK10BlockStateRK8BlockPosPK9Direction = 0x2bb78
_ZN15WallBannerBlock6rotateEPK10BlockStateP8Rotation = 0x2bbec
_ZN15WallBannerBlock6mirrorEPK10BlockStateP6Mirror = 0x2bc44
_ZN15WallBannerBlock8getShapeEPK10BlockStateP11LevelSourceRK8BlockPos = 0x2bcac
_ZN15WallBannerBlock15neighborChangedEPK10BlockStateP5LevelRK8BlockPosP5BlockRK8BlockPos = 0x2bd00
_ZN5Block15neighborChangedEPK10BlockStateP5LevelRK8BlockPosP5BlockRK8BlockPos = 0x2bdd0
_ZN15WallBannerBlock13getBlockStateEi = 0x2bdd4
_ZN15WallBannerBlock29convertBlockStateToLegacyDataEPK10BlockState = 0x2be38
_ZN15WallBannerBlock26createBlockStateDefinitionEv = 0x2be60
_ZN20BlockStateDefinitionC2EP5BlockPPK8Property = 0x2bed4
_ZN19StandingBannerBlock8getShapeEPK10BlockStateP11LevelSourceRK8BlockPos = 0x2bf84
_ZN19StandingBannerBlock6rotateEPK10BlockStateP8Rotation = 0x2bf94
_ZN19StandingBannerBlock6mirrorEPK10BlockStateP6Mirror = 0x2bfec
_ZN19StandingBannerBlock15neighborChangedEPK10BlockStateP5LevelRK8BlockPosP5BlockRK8BlockPos = 0x2c054
_ZN19StandingBannerBlock13getBlockStateEi = 0x2c108
_ZN19StandingBannerBlock29convertBlockStateToLegacyDataEPK10BlockState = 0x2c138
_ZN19StandingBannerBlock26createBlockStateDefinitionEv = 0x2c150
_ZN11BlockEntityC1Ev = 0x2c298
_ZN11BlockEntity4saveEP11CompoundTag = 0x2c95c
_ZN11BlockEntity4loadEP11CompoundTag = 0x2cb2c
_ZNSt3__110to_wstringEi = 0x2d280
_ZN9BlockItemC2EP5Block = 0x2d6b8
_ZN13BannerPattern10staticCtorEv = 0x2ddd8
_ZN12BarrierBlockC1Ev = 0x314a8
_ZN12BarrierBlock14getRenderShapeEPK10BlockState = 0x3152c
_ZNK12BarrierBlock13isSolidRenderEPK10BlockState = 0x31534
_ZN12BarrierBlock18getShadeBrightnessEPK10BlockState = 0x3153c
_ZN12BarrierBlock14spawnResourcesEP5LevelRK8BlockPosPK10BlockStatefi = 0x31544
_ZN15MinecraftServer11getInstanceEv = 0x31d4c
_ZN5BlockC1EP8MaterialPK13MaterialColor = 0x31db8
_ZN15EndGatewayBlock14getRenderShapeEPK10BlockState = 0x31e40
_ZN13WallSignBlock8onRemoveEP5LevelRK8BlockPosPK10BlockState = 0x31e48
_ZN5Block8onRemoveEP5LevelRK8BlockPosPK10BlockState = 0x31e54
_ZN5Block13playerDestroyEP5LevelSt10shared_ptrI6PlayerERK8BlockPosPK10BlockStateSt10shared_ptrI11BlockEntityE12not_null_ptrI12ItemInstanceE = 0x31e58
_ZN13WallSignBlock12triggerEventEPK10BlockStateP5LevelRK8BlockPosii = 0x320f4
_ZN5Block12triggerEventEPK10BlockStateP5LevelRK8BlockPosii = 0x32168
_ZN10SkullBlock21getPistonPushReactionEPK10BlockState = 0x32170
_ZN26WeightedPressurePlateBlock8getShapeEPK10BlockStateP11LevelSourceRK8BlockPos = 0x33c5c
_ZN18PressurePlateBlock12getTickDelayEP5Level = 0x33ca0
_ZN26WeightedPressurePlateBlock11getClipAABBEPK10BlockStateP11LevelSourceRK8BlockPos = 0x33ca8
_ZNK26WeightedPressurePlateBlock13isSolidRenderEPK10BlockState = 0x33cb0
_ZN26WeightedPressurePlateBlock12isCubeShapedEPK10BlockState = 0x33cc0
_ZN26WeightedPressurePlateBlock14isPathfindableEP11LevelSourceRK8BlockPos = 0x33cc8
_ZN26WeightedPressurePlateBlock25isPossibleToRespawnInThisEv = 0x33cd0
_ZN26WeightedPressurePlateBlock8mayPlaceEP5LevelRK8BlockPos = 0x33cd8
_ZN26WeightedPressurePlateBlock15neighborChangedEPK10BlockStateP5LevelRK8BlockPosP5BlockRK8BlockPos = 0x33dac
_ZN26WeightedPressurePlateBlock10randomTickEP5LevelRK8BlockPosPK10BlockStateP6Random = 0x33ec4
_ZN26WeightedPressurePlateBlock4tickEP5LevelRK8BlockPosPK10BlockStateP6Random = 0x33ec8
_ZN26WeightedPressurePlateBlock12entityInsideEP5LevelRK8BlockPosPK10BlockStateRKSt10shared_ptrI6EntityE = 0x33f58
_ZN26WeightedPressurePlateBlock8onRemoveEP5LevelRK8BlockPosPK10BlockState = 0x34218
_ZN26WeightedPressurePlateBlock9getSignalEPK10BlockStateP11LevelSourceRK8BlockPosPK9Direction = 0x342f8
_ZN26WeightedPressurePlateBlock15getDirectSignalEPK10BlockStateP11LevelSourceRK8BlockPosPK9Direction = 0x34304
_ZN26WeightedPressurePlateBlock14isSignalSourceEPK10BlockState = 0x34334
_ZN26WeightedPressurePlateBlock21getPistonPushReactionEPK10BlockState = 0x3433c
_ZN26WeightedPressurePlateBlock17getBlockFaceShapeEP11LevelSourcePK10BlockStateRK8BlockPosPK9Direction = 0x34344
_ZN26WeightedPressurePlateBlock13registerIconsEP12IconRegister = 0x3434c
_ZN19StringRepresentableC2Ev = 0x343d8
_ZNK8BlockPos5northEv = 0x3482c
_ZNK8BlockPos5southEv = 0x34848
_ZNK8BlockPos4westEv = 0x34864
_ZNK8BlockPos4eastEv = 0x34880
_ZN13BaseRailBlock11getClipAABBEPK10BlockStateP11LevelSourceRK8BlockPos = 0x35614
_ZNK13BaseRailBlock13isSolidRenderEPK10BlockState = 0x3561c
_ZN13BaseRailBlock8getShapeEPK10BlockStateP11LevelSourceRK8BlockPos = 0x35624
_ZN13BaseRailBlock17getBlockFaceShapeEP11LevelSourcePK10BlockStateRK8BlockPosPK9Direction = 0x3569c
_ZN13BaseRailBlock12isCubeShapedEPK10BlockState = 0x356a4
_ZN13BaseRailBlock8mayPlaceEP5LevelRK8BlockPos = 0x356ac
_ZN13BaseRailBlock7onPlaceEP5LevelRK8BlockPosPK10BlockState = 0x357b4
_ZN13BaseRailBlock15neighborChangedEPK10BlockStateP5LevelRK8BlockPosP5BlockRK8BlockPos = 0x35834
_ZN13BaseRailBlock21getPistonPushReactionEPK10BlockState = 0x35c2c
_ZN13BaseRailBlock14getRenderLayerEv = 0x35c34
_ZN13BaseRailBlock8onRemoveEP5LevelRK8BlockPosPK10BlockState = 0x35c3c
_ZN13BaseRailBlock14getRenderShapeEPK10BlockState = 0x35cf8
_ZN3Bat10staticCtorEv = 0x35d34
_ZN3Bat14addDataWalkersEP14DataFixerUpper = 0x365a4
_ZN10BeachBiomeC1EN5Biome9EBiomeIDsEPN5Biome15BiomePropertiesE = 0x367c0
_ZN5BiomeC2ENS_9EBiomeIDsEPNS_15BiomePropertiesE = 0x368e4
_ZN5Biome15LegacyBlockDataC2Eii = 0x36f4c
_ZN11BeaconBlock3useEP5LevelRK8BlockPosPK10BlockStateSt10shared_ptrI6PlayerEN15InteractionHand16EInteractionHandEPK9Directionfffb = 0x3725c
_ZNK11BeaconBlock13isSolidRenderEPK10BlockState = 0x3734c
_ZN11BeaconBlock12isCubeShapedEPK10BlockState = 0x37354
_ZN11BeaconBlock11setPlacedByEP5LevelRK8BlockPosPK10BlockStateSt10shared_ptrI12LivingEntityE12not_null_ptrI12ItemInstanceE = 0x3735c
_ZN5Block11setPlacedByEP5LevelRK8BlockPosPK10BlockStateSt10shared_ptrI12LivingEntityE12not_null_ptrI12ItemInstanceE = 0x37498
_ZN11BeaconBlock15neighborChangedEPK10BlockStateP5LevelRK8BlockPosP5BlockRK8BlockPos = 0x374ac
_ZN11BeaconBlock7TestUseEv = 0x37588
_ZN11BeaconBlock14getRenderLayerEv = 0x375cc
_ZN11BeaconBlock13registerIconsEP12IconRegister = 0x376b0
_ZN5Block13registerIconsEP12IconRegister = 0x376b4
_ZN11BeaconBlock14getRenderShapeEPK10BlockState = 0x37714
_ZN11BeaconBlock18GetInteractTooltipERK22BlockTooltipDataHolder = 0x3771c
_ZN17BeaconBlockEntity10staticCtorEv = 0x378a0
_ZN17BeaconBlockEntity17BeaconBeamSection8getColorEv = 0x387d8
_ZN11BlockEntity12triggerEventEii = 0x39618
_ZN17BeaconBlockEntity17BeaconBeamSectionC1E15arrayWithLengthIfE = 0x39668
_ZN17BeaconBlockEntity17BeaconBeamSection9getHeightEv = 0x396d0
_ZN8BedBlock15blockStaticCtorEv = 0x3a0a8
_ZN8BedBlock11getMapColorEPK10BlockStateP11LevelSourceRK8BlockPos = 0x3a4e8
_ZN8BedBlock7TestUseEP5LevelRK8BlockPosPK10BlockStateSt10shared_ptrI6PlayerE = 0x3a604
_ZN8BedBlock3useEP5LevelRK8BlockPosPK10BlockStateSt10shared_ptrI6PlayerEN15InteractionHand16EInteractionHandEPK9Directionfffb = 0x3a748
_ZNK8BlockPos6equalsERKS_ = 0x3abf4
_ZN8BedBlock12isCubeShapedEPK10BlockState = 0x3ac74
_ZNK8BedBlock13isSolidRenderEPK10BlockState = 0x3ac7c
_ZN8BedBlock6fallOnEP5LevelRK8BlockPosSt10shared_ptrI6EntityEf = 0x3ac84
_ZN5Block6fallOnEP5LevelRK8BlockPosSt10shared_ptrI6EntityEf = 0x3acd8
_ZN8BedBlock23updateEntityAfterFallOnEP5LevelSt10shared_ptrI6EntityE = 0x3acec
_ZN5Block23updateEntityAfterFallOnEP5LevelSt10shared_ptrI6EntityE = 0x3ad98
_ZN8BedBlock15neighborChangedEPK10BlockStateP5LevelRK8BlockPosP5BlockRK8BlockPos = 0x3ada4
_ZNK8BlockPos6equalsEPKS_ = 0x3af08
_ZN8BedBlock11getResourceEPK10BlockStateP6Randomi = 0x3af0c
_ZN8BedBlock8getShapeEPK10BlockStateP11LevelSourceRK8BlockPos = 0x3af5c
_ZN8BedBlock25hasCustomBreakingProgressEPK10BlockState = 0x3af6c
_ZN8BedBlock14spawnResourcesEP5LevelRK8BlockPosPK10BlockStatefi = 0x3b348
_ZN8BedBlock21getPistonPushReactionEPK10BlockState = 0x3b470
_ZN8BedBlock14getRenderLayerEv = 0x3b478
_ZN8BedBlock14getRenderShapeEPK10BlockState = 0x3b480
_ZN8BedBlock20getCloneItemInstanceEP5LevelRK8BlockPosPK10BlockState = 0x3b488
_ZN8BedBlock17playerWillDestroyEP5LevelRK8BlockPosPK10BlockStateSt10shared_ptrI6PlayerE = 0x3b5d0
_ZN8BedBlock13playerDestroyEP5LevelSt10shared_ptrI6PlayerERK8BlockPosPK10BlockStateSt10shared_ptrI11BlockEntityE12not_null_ptrI12ItemInstanceE = 0x3b6a0
_ZN8BedBlock8onRemoveEP5LevelRK8BlockPosPK10BlockState = 0x3b84c
_ZN8BedBlock13getBlockStateEi = 0x3b858
_ZN8BedBlock31fillVirtualBlockStatePropertiesEPK10BlockStateP11LevelSourceRK8BlockPos = 0x3b908
_ZN8BedBlock29convertBlockStateToLegacyDataEPK10BlockState = 0x3b9f4
_ZN8BedBlock18GetInteractTooltipERK22BlockTooltipDataHolder = 0x3ba84
_ZN8BedBlock17getBlockFaceShapeEP11LevelSourcePK10BlockStateRK8BlockPosPK9Direction = 0x3bab8
_ZN8BedBlock6rotateEPK10BlockStateP8Rotation = 0x3bac0
_ZN8BedBlock6mirrorEPK10BlockStateP6Mirror = 0x3bb18
_ZN8BedBlock26createBlockStateDefinitionEv = 0x3bb80
_ZN8BedBlock10getTextureEPK9DirectionPK10BlockState = 0x3bdb8
_ZN8BedBlock13registerIconsEP12IconRegister = 0x3bef8
_ZN15arrayWithLengthIhEixEj = 0x3c854
_ZN13BeetrootBlock4tickEP5LevelRK8BlockPosPK10BlockStateP6Random = 0x3d0d8
_ZN13BeetrootBlock26createBlockStateDefinitionEv = 0x3d190
_ZN13BeetrootBlock8getShapeEPK10BlockStateP11LevelSourceRK8BlockPos = 0x3d204
_ZN13BeetrootBlock10getTextureEPK9DirectionPK10BlockState = 0x3d244
_ZN13BeetrootBlock13registerIconsEP12IconRegister = 0x3d2a0
_ZN8BlockPosC1Eiii = 0x3da88
_ZN23BindingCurseEnchantmentC1EPK6Rarity15arrayWithLengthIPK13EquipmentSlotE = 0x3ef64
_ZN23BindingCurseEnchantment10getMinCostEi = 0x3efbc
_ZN23BindingCurseEnchantment10getMaxCostEi = 0x3efc4
_ZN23BindingCurseEnchantment11getMaxLevelEv = 0x3efcc
_ZN23BindingCurseEnchantment14isTreasureOnlyEv = 0x3efd4
_ZN23BindingCurseEnchantment7isCurseEv = 0x3efdc
_ZN5Biome4byIdEi = 0x3efec
_ZN5Biome10staticCtorEv = 0x3effc
_ZN5Biome15BiomeProperties5depthEf = 0x42508
_ZN5Biome15BiomeProperties5scaleEf = 0x42510
_ZN5Biome15setPreviewColorE16eMinecraftColour = 0x42518
_ZN5Biome21setNameAndDescriptionEii = 0x42520
_ZN5Biome16setWaterSkyColorE16eMinecraftColourS0_ = 0x42528
_ZN5Biome15BiomeProperties11temperatureEf = 0x42534
_ZN5Biome15BiomeProperties8downfallEf = 0x4253c
_ZN5Biome15BiomeProperties3dryEv = 0x42544
_ZN5Biome15BiomeProperties10waterColorEi = 0x4254c
_ZN5Biome15BiomeProperties4snowEv = 0x42554
_ZN5Biome15BiomeProperties7mutatedERKNSt3__112basic_stringIwNS1_11char_traitsIwEENS1_9allocatorIwEEEE = 0x42560
_ZN5Biome26generateColoursDebugOutputEv = 0x42588
_ZN5Block5getIdEP5Block = 0x4258c
_ZN5Biome15BiomePropertiesD2Ev = 0x425ac
_ZN5Biome15createDecoratorEv = 0x425d4
_ZN5Biome14MobSpawnerDataC2Eiiii = 0x42600
_ZN5BiomeD0Ev = 0x42688
_ZN5Biome14getTreeFeatureER6Random = 0x426ac
_ZN5Biome15getGrassFeatureER6Random = 0x42708
_ZN5Biome15getRandomFlowerER6RandomPK8BlockPos = 0x42740
_ZN5Biome7getNameEb = 0x4277c
_ZN5Biome14getDescriptionEv = 0x427dc
_ZN5Biome11getSkyColorEf = 0x42850
_ZN5Biome7getMobsEP11MobCategory = 0x428ec
_ZN5Biome7hasSnowEv = 0x429cc
_ZN5Biome13isSnowCoveredEv = 0x429d0
_ZN5Biome7hasRainEv = 0x429d8
_ZN5Biome7isHumidEv = 0x42a10
_ZN5Biome11getDownfallEv = 0x42a34
_ZN5Biome22getCreatureProbabilityEv = 0x42a3c
_ZN5Biome14getTemperatureEPK8BlockPos = 0x42a48
_ZN5Biome14getTemperatureEv = 0x42b38
_ZN5Biome8decorateEP5LevelR6RandomPK8BlockPos = 0x42b40
_ZN5Biome13getGrassColorEPK8BlockPos = 0x42b60
_ZN5Biome15getFoliageColorEPK8BlockPos = 0x42bcc
_ZN5Biome13setGrassColorEPK8BlockPosj = 0x42c38
_ZN5Biome15setFoliageColorEPK8BlockPosj = 0x42cac
_ZN5Biome14buildSurfaceAtEP5LevelR6RandomP11ChunkPrimeriid = 0x42d20
_ZN5Biome21buildSurfaceAtDefaultEP5LevelR6RandomP11ChunkPrimeriid = 0x42d2c
_ZN11ChunkPrimer15setBlockAndDataEiii = 0x43080
_ZN11ChunkPrimer10getBlockIdEi = 0x430fc
_ZN5Biome22getTemperatureCategoryEv = 0x43114
_ZN5Biome9getBiomesEv = 0x43150
_ZN5Biome8getBiomeEi = 0x4315c
_ZN5Biome8getBiomeEiPS_ = 0x43164
_ZN5Biome18isAlwaysValidSpawnEv = 0x43194
_ZN5Biome8getDepthEv = 0x4319c
_ZN5Biome8getScaleEv = 0x431a4
_ZN5Biome13getWaterColorEv = 0x431ac
_ZNK5Biome11getFogColorEff = 0x431d4
_ZN5Biome15BiomePropertiesC1ERKNSt3__112basic_stringIwNS1_11char_traitsIwEENS1_9allocatorIwEEEE = 0x432a0
_ZN15arrayWithLengthIhEC2Ev = 0x43398
_ZN15arrayWithLengthIhEC2Ejb = 0x433a4
_ZN15arrayWithLengthIP5BiomeEC2Ejb = 0x43a7c
_ZN15arrayWithLengthIP5BiomeE3getEj = 0x43ac0
_ZN15BiomeCacheLayerC1EiNSt3__110shared_ptrI5LayerEEjhii = 0x43ae8
_ZN15BiomeCacheLayerD2Ev = 0x43bf8
_ZN15BiomeCacheLayerD0Ev = 0x43c34
_ZN15BiomeCacheLayer7getAreaEiiii = 0x43c58
_ZN11BiomeColors15getAverageColorEP11LevelSourceRK8BlockPosPN11BiomeColors13ColorResolverE = 0x43f4c
MutableBlockPos__MutableBlockPos = 0x44144
setX__15MutableBlockPosFi = 0x44154
setZ__15MutableBlockPosFi = 0x4415c
_ZN11BiomeColors20getAverageGrassColorEP11LevelSourceRK8BlockPos = 0x44164
getAverageSkyColor__11BiomeColorsSFP11LevelSourceRC8BlockPos = 0x44194
_ZN14BiomeDecoratorC2Ev = 0x441a4
_ZN12ReedsFeatureC1Ev = 0x4434c
_ZN13CactusFeatureC1Ev = 0x44380
_ZN16WaterlilyFeatureC1Ev = 0x443b4
_ZN14BiomeDecoratorD2Ev = 0x443e8
_ZN14BiomeDecoratorD0Ev = 0x445cc
_ZN14BiomeDecorator8decorateEP5LevelR6RandomP5BiomeRK8BlockPos = 0x445f0
_ZN14BiomeDecorator8decorateEP5BiomeP5LevelR6Random = 0x44a60
_ZN14PumpkinFeatureC1Ev = 0x45a64
_ZN14BiomeDecorator12decorateOresEP5LevelR6Random = 0x45a98
_ZN14BiomeEdgeLayerC1ExNSt3__110shared_ptrI5LayerEE = 0x45e70
_ZN14BiomeEdgeLayerD2Ev = 0x45ef0
_ZN14BiomeEdgeLayerD0Ev = 0x45ef4
_ZN14BiomeEdgeLayer7getAreaEiiii = 0x45f18
_ZN14BiomeInitLayerC1ExNSt3__110shared_ptrI5LayerEEP9LevelTypeP15SuperflatConfig = 0x46718
_ZN15arrayWithLengthIP5BiomeEC1Ev = 0x46b14
_ZN14BiomeInitLayerD2Ev = 0x46b20
_ZN14BiomeInitLayerD0Ev = 0x46b80
_ZN14BiomeInitLayer7getAreaEiiii = 0x46ba4
_ZN11BiomeSource21LayerOverrideSettings8isZoomedEv = 0x47538
_ZNK11BiomeSource13getBiomeBlockER15arrayWithLengthIP5BiomeEiiiib = 0x48218
_ZN15arrayWithLengthIhEC2EPhi = 0x48aec
_ZN11BiomeSource21LayerOverrideSettings13GetBiomeScaleEv = 0x48d78
_ZN11BiomeSource21LayerOverrideSettings15GetCentreXChunkEv = 0x48e30
_ZN11BiomeSource21LayerOverrideSettings15GetCentreZChunkEv = 0x48e38
_ZN11BiomeSource4initEv = 0x48ed0
_ZN11BiomeSource4initExP9LevelTypeP15SuperflatConfigP9LevelDataPN11BiomeSource21LayerOverrideSettingsE = 0x4913c
_ZN11BiomeSourceC1Ev = 0x49274
_ZN11BiomeSourceC1ExP9LevelTypeP15SuperflatConfigPN11BiomeSource21LayerOverrideSettingsE = 0x492a0
_ZN11BiomeSourceD1Ev = 0x4937c
_ZN11BiomeSourceD0Ev = 0x49478
_ZN11BiomeSource8getBiomeERK8BlockPos = 0x4949c
_ZN11BiomeSource8getBiomeERK8BlockPosP5Biome = 0x494ac
_ZNK11BiomeSource18getRawBiomeIndicesER15arrayWithLengthIiEiiii = 0x49500
_ZNK11BiomeSource16getRawBiomeBlockER15arrayWithLengthIP5BiomeEiiii = 0x495ac
_ZNK11BiomeSource18getBiomeIndexBlockEiiii = 0x49738
_ZNK11BiomeSource18getBiomeIndexBlockER15arrayWithLengthIhEiiiib = 0x497e0
_ZN11BiomeSource12containsOnlyEiiiRKNSt3__16vectorIP5BiomeNS0_9allocatorIS3_EEEE = 0x499bc
_ZN11BiomeSource9findBiomeEiiiNSt3__16vectorIP5BiomeNS0_9allocatorIS3_EEEEP6Random = 0x49ab8
_ZN11BiomeSource6updateEv = 0x49c3c
_ZN11BiomeSource12isFixedBiomeEv = 0x4a0a0
_ZN11BiomeSource13getFixedBiomeEv = 0x4a0a8
_ZN12BirchFeature10staticCtorEv = 0x4a504
_ZN5Blaze10staticCtorEv = 0x4ac88
_ZN5Blaze14addDataWalkersEP14DataFixerUpper = 0x4ada0
_ZN5Block22CreateNewThreadStorageEv = 0x4bc34
_ZN5Block12existsWithIdEi = 0x4bcb4
_ZN5Block19getStateByIdAndDataEih = 0x4bcd4
_ZN5Block6byItemEP4Item = 0x4bd28
_ZN9BlockItem8getBlockEv = 0x4bd68
_ZN5Block12isValidSpawnEPK10BlockStateSt10shared_ptrI6EntityE = 0x4bd70
_ZN5Block13GetHitTooltipERK22BlockTooltipDataHolder = 0x4bd78
_ZN5Block11getMapColorEPK10BlockStateP11LevelSourceRK8BlockPos = 0x4bdfc
_ZN5Block13getBlockStateEi = 0x4be04
_ZN5Block29convertBlockStateToLegacyDataEPK10BlockState = 0x4be08
_ZN5Block31fillVirtualBlockStatePropertiesEPK10BlockStateP11LevelSourceRK8BlockPos = 0x4be2c
_ZN5Block6rotateEPK10BlockStateP8Rotation = 0x4be34
_ZN5Block6mirrorEPK10BlockStateP6Mirror = 0x4be3c
_ZN5Block4initEP8MaterialPK13MaterialColor = 0x4be44
_ZN5BlockD0Ev = 0x4bee4
_ZN5Block11DerivedInitEv = 0x4bf4c
_ZN5Block13sendBlockDataEh = 0x4bfbc
_ZN5Block26setBaseItemTypeAndMaterialEii = 0x4bfc4
_ZN5Block15getBaseItemTypeEv = 0x4bfcc
_ZN5Block12setSoundTypeEPK9SoundType = 0x4bfd4
_ZN5Block13setLightBlockEi = 0x4bfdc
_ZN5Block16setLightEmissionEf = 0x4bfe4
_ZN5Block14setExplodeableEf = 0x4bff8
_ZN5Block19isSolidBlockingCubeEPK10BlockState = 0x4c0b8
_ZN5Block37isSolidBlockingCubeAndNotSignalSourceEPK10BlockState = 0x4c104
_ZN5Block14isViewBlockingEPK10BlockState = 0x4c168
_ZN5Block12isCubeShapedEPK10BlockState = 0x4c1b8
_ZN5Block25hasCustomBreakingProgressEPK10BlockState = 0x4c1c0
_ZN5Block14isPathfindableEP11LevelSourceRK8BlockPos = 0x4c1c8
_ZN5Block14getRenderShapeEPK10BlockState = 0x4c1f0
_ZN5Block21hasInHandRenderOffsetEv = 0x4c1f8
_ZN5Block19mayReplaceWithPlaceEP11LevelSourceRK8BlockPos = 0x4c200
_ZN5Block14setDestroyTimeEf = 0x4c208
_ZN5Block17setIndestructibleEv = 0x4c228
_ZN5Block16isIndestructibleEv = 0x4c25c
_ZN5Block15getDestroySpeedEPK10BlockStateP5LevelRK8BlockPos = 0x4c274
_ZN5Block10setTickingEb = 0x4c27c
_ZN5Block9isTickingEv = 0x4c288
_ZN5Block13disableMipmapEv = 0x4c290
_ZN5Block18setSemiTransparentEv = 0x4c298
_ZN5Block8getShapeEPK10BlockStateP11LevelSourceRK8BlockPos = 0x4c2a4
_ZN5Block13getLightColorEPK10BlockStateP11LevelSourceRK8BlockPosi = 0x4c2b4
_ZN5Block16shouldRenderFaceEPK10BlockStateP11LevelSourceRK8BlockPosPK9Direction = 0x4c3c0
_ZN5Block29neighbourVisibleThroughShapesEPK15arrayWithLengthIPK4AABBEP11LevelSourceRK8BlockPosRP9Direction = 0x4c464
_ZN5Block9getShapesEPK10BlockStateP11LevelSourcePK8BlockPos = 0x4c4e4
_ZN5Block28neighbourVisibleThroughShapeEPK4AABBP11LevelSourceRK8BlockPosPK9Direction = 0x4c5a0
_ZN5Block11isSolidFaceEP11LevelSourceRK8BlockPosPK9Direction = 0x4ca50
_ZN5Block17getBlockFaceShapeEP11LevelSourcePK10BlockStateRK8BlockPosPK9Direction = 0x4ca88
_ZN5Block14getOutlineAABBEPK10BlockStateP5LevelRK8BlockPos = 0x4ca90
_ZN5Block17addCollisionAABBsEPK10BlockStateP5LevelRK8BlockPosPK4AABBPSt6vectorIP4AABBSt9allocatorIP4AABBEESt10shared_ptrI6EntityEb = 0x4cac8
_ZN5Block16addCollisionAABBERK8BlockPosPK4AABBPSt6vectorIP4AABBSt9allocatorIP4AABBEEPK4AABB = 0x4cb3c
_ZN5Block11getClipAABBEPK10BlockStateP11LevelSourceRK8BlockPos = 0x4cbb4
_ZNK5Block13isSolidRenderEPK10BlockState = 0x4cbcc
_ZN5Block7mayPickEPK10BlockStateb = 0x4cbd4
_ZN5Block7mayPickEv = 0x4cbe0
_ZN5Block10randomTickEP5LevelRK8BlockPosPK10BlockStateP6Random = 0x4cbe8
_ZN5Block4tickEP5LevelRK8BlockPosPK10BlockStateP6Random = 0x4cbf4
_ZN5Block11animateTickEPK10BlockStateP5LevelRK8BlockPosP6Random = 0x4cbf8
_ZN5Block7destroyEP5LevelRK8BlockPosPK10BlockState = 0x4cbfc
_ZN5Block9addLightsEP5LevelRK8BlockPos = 0x4cc00
_ZN5Block12getTickDelayEP5Level = 0x4cc04
_ZN5Block7onPlaceEP5LevelRK8BlockPosPK10BlockState = 0x4cc0c
_ZN5Block16getResourceCountEP6Random = 0x4cc10
_ZN5Block11getResourceEPK10BlockStateP6Randomi = 0x4cc18
_ZN5Block18getDestroyProgressEPK10BlockStateSt10shared_ptrI6PlayerEP5LevelRK8BlockPos = 0x4cc1c
_ZN5Block14spawnResourcesEP5LevelRK8BlockPosPK10BlockStatei = 0x4ccb0
_ZN5Block13popExperienceEP5LevelRK8BlockPosi = 0x4cd98
_ZN5Block25getSpawnResourcesAuxValueEPK10BlockState = 0x4cfb4
_ZN5Block22getExplosionResistanceESt10shared_ptrI6EntityE = 0x4cfbc
_ZN5Block4clipEPK10BlockStateP5LevelRK8BlockPosP4Vec3P4Vec3 = 0x4cfcc
_ZN5Block4clipERK8BlockPosP4Vec3P4Vec3PK4AABB = 0x4d040
_ZN5Block11wasExplodedEP5LevelRK8BlockPosP9Explosion = 0x4d170
_ZN5Block14getRenderLayerEv = 0x4d2b4
_ZN5Block8mayPlaceEP5LevelRK8BlockPosPK9Direction = 0x4d2bc
_ZN5Block7TestUseEv = 0x4d2c8
_ZN5Block7TestUseEP5LevelRK8BlockPosPK10BlockStateSt10shared_ptrI6PlayerE = 0x4d2d0
_ZN5Block3useEP5LevelRK8BlockPosPK10BlockStateSt10shared_ptrI6PlayerEN15InteractionHand16EInteractionHandEPK9Directionfffb = 0x4d2d8
_ZN5Block6stepOnEP5LevelRK8BlockPosSt10shared_ptrI6EntityE = 0x4d2e0
_ZN5Block13prepareRenderEP5LevelRK8BlockPos = 0x4d2e4
_ZN5Block6attackEP5LevelRK8BlockPosSt10shared_ptrI6PlayerE = 0x4d2e8
_ZN5Block18handleEntityInsideEP5LevelRK8BlockPosSt10shared_ptrI6EntityEP4Vec3 = 0x4d2ec
_ZNK5Block8getColorEv = 0x4d2f4
_ZN5Block8getColorEPK10BlockState = 0x4d2fc
_ZN5Block8getColorEP11LevelSourceRK8BlockPosi = 0x4d304
_ZN5Block8getColorEP11LevelSourceRK8BlockPos = 0x4d30c
_ZN5Block8getColorEP11LevelSourceRK8BlockPosPK10BlockState = 0x4d31c
_ZN5Block9getSignalEPK10BlockStateP11LevelSourceRK8BlockPosPK9Direction = 0x4d324
_ZN5Block14isSignalSourceEPK10BlockState = 0x4d334
_ZN5Block12entityInsideEP5LevelRK8BlockPosPK10BlockStateRKSt10shared_ptrI6EntityE = 0x4d33c
_ZN5Block15getDirectSignalEPK10BlockStateP11LevelSourceRK8BlockPosPK9Direction = 0x4d340
_ZN5Block15isSilkTouchableEv = 0x4d3a8
_ZN5Block24getSilkTouchItemInstanceEPK10BlockState = 0x4d3ec
_ZN5Block28getResourceCountForLootBonusEiP6Random = 0x4d46c
_ZN5Block25isPossibleToRespawnInThisEv = 0x4d47c
_ZN5Block23setNameAndDescriptionIdEii = 0x4d4cc
_ZN5Block7getNameEv = 0x4d4d4
_ZN5Block16getDescriptionIdEi = 0x4d514
_ZN5Block19getUseDescriptionIdEv = 0x4d51c
_ZN5Block19isCollectStatisticsEv = 0x4d524
_ZN5Block23setNotCollectStatisticsEv = 0x4d52c
_ZN5Block21getPistonPushReactionEPK10BlockState = 0x4d534
_ZN5Block18getShadeBrightnessEPK10BlockState = 0x4d544
_ZN5Block20getCloneItemInstanceEP5LevelRK8BlockPosPK10BlockState = 0x4d578
_ZN5Block17playerWillDestroyEP5LevelRK8BlockPosPK10BlockStateSt10shared_ptrI6PlayerE = 0x4d5f4
_ZN5Block10handleRainEP5LevelRK8BlockPos = 0x4d5f8
_ZN5Block16canInstantlyTickEv = 0x4d5fc
_ZN5Block17dropFromExplosionEP9Explosion = 0x4d604
_ZN5Block10isMatchingEP5Block = 0x4d60c
_ZN5Block10isMatchingEP5BlockP5Block = 0x4d618
_ZN5Block21hasAnalogOutputSignalEPK10BlockState = 0x4d648
_ZN5Block21getAnalogOutputSignalEPK10BlockStateP5LevelRK8BlockPos = 0x4d650
_ZN5Block11setIconNameERKSt12basic_stringIwSt11char_traitsIwESt9allocatorIwEE = 0x4d660
_ZN5Block11getIconNameEv = 0x4d688
_ZN5Block19getTileItemIconNameEv = 0x4d7d0
_ZN5Block14getIconTextureEPK9DirectionPK10BlockState = 0x4d810
_ZN5Block10getTextureEP11LevelSourceRK8BlockPosPK9DirectionPK10BlockState = 0x4d81c
_ZN5Block10getTextureEPK9DirectionPK10BlockState = 0x4d9d0
_ZN5Block10getTextureEPK9Direction = 0x4d9d8
_ZN5Block23getInventoryRenderStateEPK10BlockState = 0x4da24
_ZN5Block26createBlockStateDefinitionEv = 0x4da2c
_ZN5Block23getBlockStateDefinitionEv = 0x4da60
_ZN5Block13getOffsetTypeEv = 0x4da68
_ZN5Block9getOffsetEPK10BlockStateP11LevelSourceRK8BlockPos = 0x4da70
_ZN5Block12getSoundTypeEv = 0x4db58
_ZN5Block8toStringEv = 0x4db60
_ZN5Block15appendHoverTextE12not_null_ptrI12ItemInstanceESt10shared_ptrI6PlayerEPSt6vectorI10HtmlStringSt9allocatorI10HtmlStringEEb = 0x4dc30
_ZN5Block10staticCtorEv = 0x4dc34
_ZN11ButtonBlock15blockStaticCtorEv = 0x5c53c
_ZN10ChestBlock15blockStaticCtorEv = 0x5c558
_ZN9BlockImplC1EP8Material = 0x5c83c
_ZN9BlockImplC1EP8MaterialPK13MaterialColor = 0x5c870
_ZN11BlockEntity10staticCtorEv = 0x5d0e0
_ZN11BlockEntity8RegisterEiPFPS_vE11eINSTANCEOFNSt3__112basic_stringIwNS4_11char_traitsIwEENS4_9allocatorIwEEEE = 0x5d840
_ZNSt3__14pairIKNS_12basic_stringIwNS_11char_traitsIwEENS_9allocatorIwEEEEPFP11BlockEntityvEED2Ev = 0x5e02c
_ZN14MappedRegistryI16ResourceLocation11eINSTANCEOFNSt3__14hashIS0_EENS2_8equal_toIS0_EENS3_IS1_EENS5_IS1_EEE15registerMappingEiS0_S1_ = 0x5e030
_ZNK14MappedRegistryI16ResourceLocation11eINSTANCEOFNSt3__14hashIS0_EENS2_8equal_toIS0_EENS3_IS1_EENS5_IS1_EEE6getKeyES1_ = 0x5e0b8
_ZN11BlockEntity8getLevelEv = 0x5e100
_ZN11BlockEntity8setLevelEP5Level = 0x5e108
_ZN11BlockEntity8hasLevelEv = 0x5e110
_ZN11BlockEntity12saveMetadataEP11CompoundTag = 0x5e120
_ZN11BlockEntity4tickEv = 0x5e2a8
_ZN11BlockEntity18setLevelForLoadingEP5Level = 0x5e47c
_ZN11BlockEntity7getDataEv = 0x5e480
_ZN11BlockEntity7setDataEi = 0x5e4e0
_ZN11BlockEntity10setChangedEv = 0x5e4e8
_ZN11BlockEntity13distanceToSqrEddd = 0x5e5d0
_ZN11BlockEntity15getViewDistanceEv = 0x5e65c
_ZN11BlockEntity11getBlockPosEv = 0x5e668
_ZN11BlockEntity8getBlockEv = 0x5e678
_ZN11BlockEntity15getUpdatePacketEv = 0x5e6c4
_ZN11BlockEntity12getUpdateTagEv = 0x5e6cc
_ZN11BlockEntity29getUpdateTagForPistonMovementEv = 0x5e700
_ZN11BlockEntity9isRemovedEv = 0x5e70c
_ZN11BlockEntity10setRemovedEv = 0x5e714
_ZN11BlockEntity12clearRemovedEv = 0x5e720
_ZN11BlockEntity10clearCacheEv = 0x5e728
_ZN11BlockEntity11setPositionERK8BlockPos = 0x5e738
_ZN11BlockEntity15onlyOpCanSetNbtEv = 0x5e74c
_ZN11BlockEntity14getDisplayNameEv = 0x5e784
_ZN16BlockEntityIdFix10staticCtorEv = 0x5e7c8
_ZN9BlockItem16setDescriptionIdEj = 0x5f6b4
_ZN5Vec3iC2Eiii = 0x60a40
_ZN8BlockPosC1Ev = 0x61a58
_ZN8BlockPosC1ERKSt10shared_ptrI6EntityE = 0x61a6c
_ZN8BlockPosC1EP6Entity = 0x61a7c
_ZN8BlockPosC1EP4Vec3 = 0x61a88
_ZN8BlockPosC1ERK5Vec3i = 0x61a94
_ZNK8BlockPos8relativeEPK9Directioni = 0x61d38
_ZNK8BlockPos5belowEi = 0x61dd0
_ZNK8BlockPos5northEi = 0x61dfc
_ZNK8BlockPos5southEi = 0x61e28
_ZNK8BlockPos4westEi = 0x61e54
_ZNK8BlockPos4eastEi = 0x61e80
_ZNK8BlockPos16compressBlockPosEv = 0x61f9c
_ZN8BlockPos18decompressBlockPosEx = 0x62030
_ZN15MutableBlockPosC1Eiii = 0x622e4
_ZN23BlockRegionUpdatePacketD2Ev = 0x628cc
_ZN6PacketD2Ev = 0x62960
_ZN23BlockRegionUpdatePacketD0Ev = 0x62964
_ZN23BlockRegionUpdatePacketC1Ev = 0x62988
_ZN23BlockRegionUpdatePacket4readEP15DataInputStream = 0x62dc8
_ZN23BlockRegionUpdatePacket5writeEP16DataOutputStream = 0x630a4
_ZN23BlockRegionUpdatePacket6handleEP14PacketListener = 0x63238
_ZN23BlockRegionUpdatePacket16getEstimatedSizeEv = 0x63298
_ZN6Blocks10staticInitEv = 0x632b4
_ZN6Blocks3getERKNSt3__112basic_stringIwNS0_11char_traitsIwEENS0_9allocatorIwEEEE = 0x6764c
BlockStateDefinition__init = 0x67a34
_ZN20BlockStateDefinitionC1EP5Block = 0x68364
_ZNK20BlockStateDefinition8getBlockEv = 0x68460
_ZN20BlockStateDefinition14BlockStateImplC2EPS_t = 0x6887c
_ZNK20BlockStateDefinition14BlockStateImpl13getPropertiesEv = 0x68908
_ZNK20BlockStateDefinition14BlockStateImpl11hasPropertyEPK8Property = 0x68920
_ZNK20BlockStateDefinition14BlockStateImpl13getBoxedValueEPK8Property = 0x68928
_ZNK20BlockStateDefinition14BlockStateImpl13setBoxedValueEPK8PropertyP5Boxed = 0x68938
_ZNK20BlockStateDefinition14BlockStateImpl9getValuesEv = 0x689a8
_ZNK20BlockStateDefinition14BlockStateImpl8getBlockEv = 0x689b8
_ZN20BlockStateDefinition14BlockStateImpl6equalsEPK10BlockState = 0x689c0
_ZNK20BlockStateDefinition14BlockStateImpl8hashCodeEv = 0x689cc
_ZNK20BlockStateDefinition14BlockStateImpl11getMaterialEv = 0x689d4
_ZNK20BlockStateDefinition14BlockStateImpl7isSolidEv = 0x689ec
_ZNK20BlockStateDefinition14BlockStateImpl12isValidSpawnENSt3__110shared_ptrI6EntityEE = 0x68a04
_ZNK20BlockStateDefinition14BlockStateImpl13getLightBlockEv = 0x68a74
_ZNK20BlockStateDefinition14BlockStateImpl16getLightEmissionEv = 0x68a8c
_ZNK20BlockStateDefinition14BlockStateImpl13isTranslucentEv = 0x68a9c
_ZNK20BlockStateDefinition14BlockStateImpl13doesPropagateEv = 0x68ab4
_ZN20BlockStateDefinition14BlockStateImpl11getMapColorEP11LevelSourceRK8BlockPos = 0x68acc
_ZNK20BlockStateDefinition14BlockStateImpl6rotateEP8Rotation = 0x68b1c
_ZNK20BlockStateDefinition14BlockStateImpl6mirrorEP6Mirror = 0x68b3c
_ZNK20BlockStateDefinition14BlockStateImpl12isCubeShapedEv = 0x68b5c
_ZNK20BlockStateDefinition14BlockStateImpl25hasCustomBreakingProgressEv = 0x68b74
_ZNK20BlockStateDefinition14BlockStateImpl14getRenderShapeEv = 0x68b8c
_ZNK20BlockStateDefinition14BlockStateImpl13getLightColorEP11LevelSourceRK8BlockPos = 0x68ba4
_ZNK20BlockStateDefinition14BlockStateImpl18getShadeBrightnessEv = 0x68bd0
_ZNK20BlockStateDefinition14BlockStateImpl19isSolidBlockingCubeEv = 0x68be8
_ZNK20BlockStateDefinition14BlockStateImpl37isSolidBlockingCubeAndNotSignalSourceEv = 0x68c00
_ZNK20BlockStateDefinition14BlockStateImpl14isSignalSourceEv = 0x68c18
_ZNK20BlockStateDefinition14BlockStateImpl9getSignalEP11LevelSourceRK8BlockPosPK9Direction = 0x68c30
_ZNK20BlockStateDefinition14BlockStateImpl21hasAnalogOutputSignalEv = 0x68c60
_ZNK20BlockStateDefinition14BlockStateImpl21getAnalogOutputSignalEP5LevelRK8BlockPos = 0x68c78
_ZNK20BlockStateDefinition14BlockStateImpl15getDestroySpeedEP5LevelRK8BlockPos = 0x68ca0
_ZNK20BlockStateDefinition14BlockStateImpl18getDestroyProgressENSt3__110shared_ptrI6PlayerEEP5LevelRK8BlockPos = 0x68cc8
_ZNK20BlockStateDefinition14BlockStateImpl15getDirectSignalEP11LevelSourceRK8BlockPosPK9Direction = 0x68d58
_ZNK20BlockStateDefinition14BlockStateImpl21getPistonPushReactionEv = 0x68d88
_ZNK20BlockStateDefinition14BlockStateImpl31fillVirtualBlockStatePropertiesEP11LevelSourceRK8BlockPos = 0x68da0
_ZNK20BlockStateDefinition14BlockStateImpl14getOutlineAABBEP5LevelRK8BlockPos = 0x68dc8
_ZNK20BlockStateDefinition14BlockStateImpl16shouldRenderFaceEP11LevelSourceRK8BlockPosPK9Direction = 0x68df0
_ZNK20BlockStateDefinition14BlockStateImpl13isSolidRenderEv = 0x68e20
_ZNK20BlockStateDefinition14BlockStateImpl11getClipAABBEP11LevelSourceRK8BlockPos = 0x68e38
_ZNK20BlockStateDefinition14BlockStateImpl18addCollissionAABBsEP5LevelRK8BlockPosPK4AABBPNSt3__16vectorIPS6_NS9_9allocatorISB_EEEENS9_10shared_ptrI6EntityEEb = 0x68e60
_ZNK20BlockStateDefinition14BlockStateImpl8getShapeEP11LevelSourceRK8BlockPos = 0x68f00
_ZNK20BlockStateDefinition14BlockStateImpl4clipEP5LevelRK8BlockPosP4Vec3S7_ = 0x68f28
_ZNK20BlockStateDefinition14BlockStateImpl18isTopSolidBlockingEv = 0x68f60
_ZNK20BlockStateDefinition14BlockStateImpl9getOffsetEP11LevelSourceRK8BlockPos = 0x68f78
_ZNK20BlockStateDefinition14BlockStateImpl12triggerEventEP5LevelRK8BlockPosii = 0x68fa0
vtbl_7101026F60_func_0 = 0x68fd8
_ZNK20BlockStateDefinition14BlockStateImpl15neighborChangedEP5LevelRK8BlockPosP5BlockS5_ = 0x68fe0
vtbl_7101026F60_func_1 = 0x69018
_ZNK20BlockStateDefinition14BlockStateImpl14isViewBlockingEv = 0x69020
_ZNK20BlockStateDefinition14BlockStateImpl17getBlockFaceShapeEP11LevelSourceRK8BlockPosPK9Direction = 0x69038
_ZN4Boat10staticCtorEv = 0x69480
_ZN9BoneBlock13registerIconsEP12IconRegister = 0x6ce8c
_ZN9BoneBlock14getRenderShapeEPK10BlockState = 0x6cf90
_ZN17BonusChestFeature5placeEP5LevelR6RandomRK8BlockPosb = 0x6cfe0
_ZN14BookshelfBlock16getResourceCountEP6Random = 0x6dbf8
_ZN14BookshelfBlock11getResourceEPK10BlockStateP6Randomi = 0x6dc00
_ZN14BookshelfBlock10getTextureEPK9DirectionPK10BlockState = 0x6dc10
_ZNSt3__110to_wstringEi_0 = 0x6e294
_ZN12BorderStatusC1Ei = 0x6e6d0
_ZN11BoundingBoxC1Eiiiiii = 0x6f3a8
_ZN7BowItem14findProjectileERKNSt3__110shared_ptrI6PlayerEE = 0x6fa74
_ZN17BrewingStandBlock7getNameEv = 0x714ec
_ZNK17BrewingStandBlock13isSolidRenderEPK10BlockState = 0x71530
_ZN17BrewingStandBlock12isCubeShapedEPK10BlockState = 0x717b4
_ZN17BrewingStandBlock17addCollisionAABBsEPK10BlockStateP5LevelRK8BlockPosPK4AABBPSt6vectorIP4AABBSt9allocatorIP4AABBEESt10shared_ptrI6EntityEb = 0x717bc
_ZN17BrewingStandBlock8getShapeEPK10BlockStateP11LevelSourceRK8BlockPos = 0x71834
_ZN17BrewingStandBlock3useEP5LevelRK8BlockPosPK10BlockStateSt10shared_ptrI6PlayerEN15InteractionHand16EInteractionHandEPK9Directionfffb = 0x71844
_ZN17BrewingStandBlock11setPlacedByEP5LevelRK8BlockPosPK10BlockStateSt10shared_ptrI12LivingEntityE12not_null_ptrI12ItemInstanceE = 0x71948
_ZN17BrewingStandBlock11animateTickEPK10BlockStateP5LevelRK8BlockPosP6Random = 0x71a60
_ZN17BrewingStandBlock8onRemoveEP5LevelRK8BlockPosPK10BlockState = 0x71b6c
_ZN17BrewingStandBlock11getResourceEPK10BlockStateP6Randomi = 0x71cd8
_ZN17BrewingStandBlock20getCloneItemInstanceEP5LevelRK8BlockPosPK10BlockState = 0x71ce8
_ZN17BrewingStandBlock21hasAnalogOutputSignalEPK10BlockState = 0x71d28
_ZN17BrewingStandBlock21getAnalogOutputSignalEPK10BlockStateP5LevelRK8BlockPos = 0x71d30
_ZN17BrewingStandBlock14getRenderLayerEv = 0x71d80
_ZN17BrewingStandBlock13getBlockStateEi = 0x71d88
_ZN17BrewingStandBlock29convertBlockStateToLegacyDataEPK10BlockState = 0x71dd0
_ZN17BrewingStandBlock18GetInteractTooltipERK22BlockTooltipDataHolder = 0x71e44
_ZN17BrewingStandBlock17getBlockFaceShapeEP11LevelSourcePK10BlockStateRK8BlockPosPK9Direction = 0x71e6c
_ZN17BrewingStandBlock26createBlockStateDefinitionEv = 0x71e74
_ZN17BrewingStandBlock13registerIconsEP12IconRegister = 0x71ef0
_ZN17BrewingStandBlock14getRenderShapeEPK10BlockState = 0x71f98
_ZN23BrewingStandBlockEntity14addDataWalkersEP14DataFixerUpper = 0x72c30
_ZN6BufferC1Ev = 0x75830
_ZN20BufferedOutputStreamC1EP12OutputStreami = 0x7587c
_ZN12OutputStreamC1Ev = 0x758f4
_ZN20BufferedOutputStreamD1Ev = 0x75908
_ZN20BufferedOutputStreamD0Ev = 0x75948
_ZN20BufferedOutputStream5flushEv = 0x7596c
_ZN20BufferedOutputStream5closeEv = 0x759a8
_ZN20BufferedOutputStream5writeE15arrayWithLengthIhEjj = 0x759dc
_ZN20BufferedOutputStream5writeE15arrayWithLengthIhE = 0x75aa4
_ZN20BufferedOutputStream5writeEj = 0x75ab8
_ZN14BufferedReaderC1Ev = 0x75b18
_ZN14BufferedReaderD2Ev = 0x75c54
_ZN14BufferedReaderD0Ev = 0x75c90
_ZN14BufferedReader5closeEv = 0x75cb4
_ZN14BufferedReader4readEv = 0x75cc4
_ZN14BufferedReader4readEPwjj = 0x75d3c
_ZN17BuiltInLootTables10staticCtorEv = 0x75f4c
_ZN4Bush5_initEv = 0x9a0d0
_ZN4BushC1Ev = 0x9a0e0
_ZN4Bush8mayPlaceEP5LevelRK8BlockPos = 0x9a188
_ZN4Bush10mayPlaceOnEPK10BlockState = 0x9a210
_ZN4Bush15neighborChangedEPK10BlockStateP5LevelRK8BlockPosP5BlockS7_ = 0x9a2a0
_ZN4Bush4tickEP5LevelRK8BlockPosPK10BlockStateP6Random = 0x9a2bc
_ZN4Bush10checkAliveEP5LevelRK8BlockPosPK10BlockState = 0x9a2c8
_ZN4Bush10canSurviveEP5LevelRK8BlockPosPK10BlockState = 0x9a378
_ZN4Bush8getShapeEPK10BlockStateP11LevelSourceRK8BlockPos = 0x9a3e4
_ZN4Bush11getClipAABBEPK10BlockStateP11LevelSourceRK8BlockPos = 0x9a3f4
_ZNK4Bush13isSolidRenderEPK10BlockState = 0x9a3fc
_ZN4Bush12isCubeShapedEPK10BlockState = 0x9a404
_ZN4Bush14getRenderLayerEv = 0x9a40c
_ZN4Bush17getBlockFaceShapeEP11LevelSourcePK10BlockStateRK8BlockPosPK9Direction = 0x9a414
_ZN4Bush14getRenderShapeEPK10BlockState = 0x9a41c
_ZN11BushFeatureC1EP4Bush = 0x9a424
_ZN15WoodButtonBlock11DerivedInitEv = 0x9a5e0
_ZN15WoodButtonBlock11getClipAABBEPK10BlockStateP11LevelSourceRK8BlockPos = 0x9a690
_ZN15WoodButtonBlock12getTickDelayEP5Level = 0x9a698
_ZNK15WoodButtonBlock13isSolidRenderEPK10BlockState = 0x9a6b0
_ZN15WoodButtonBlock12isCubeShapedEPK10BlockState = 0x9a6b8
_ZN15WoodButtonBlock8mayPlaceEP5LevelRK8BlockPosPK9Direction = 0x9a6c0
_ZN15WoodButtonBlock8mayPlaceEP5LevelRK8BlockPos = 0x9a7d8
_ZN15WoodButtonBlock20getStateForPlacementEP5LevelRK8BlockPosPK9DirectionfffiSt10shared_ptrI12LivingEntityE = 0x9a840
_ZN15WoodButtonBlock15neighborChangedEPK10BlockStateP5LevelRK8BlockPosP5BlockRK8BlockPos = 0x9a8b8
_ZN15WoodButtonBlock25getSpawnResourcesAuxValueEPK10BlockState = 0x9a9e4
_ZN15WoodButtonBlock8getShapeEPK10BlockStateP11LevelSourceRK8BlockPos = 0x9a9ec
_ZN15WoodButtonBlock7TestUseEv = 0x9aa84
_ZN15WoodButtonBlock3useEP5LevelRK8BlockPosPK10BlockStateSt10shared_ptrI6PlayerEN15InteractionHand16EInteractionHandEPK9Directionfffb = 0x9aa8c
_ZN15WoodButtonBlock8onRemoveEP5LevelRK8BlockPosPK10BlockState = 0x9ac8c
_ZN15WoodButtonBlock9getSignalEPK10BlockStateP11LevelSourceRK8BlockPosPK9Direction = 0x9ad08
_ZN15WoodButtonBlock15getDirectSignalEPK10BlockStateP11LevelSourceRK8BlockPosPK9Direction = 0x9ad4c
_ZN15WoodButtonBlock14isSignalSourceEPK10BlockState = 0x9adbc
_ZN15WoodButtonBlock10randomTickEP5LevelRK8BlockPosPK10BlockStateP6Random = 0x9adc4
_ZN15WoodButtonBlock4tickEP5LevelRK8BlockPosPK10BlockStateP6Random = 0x9adc8
_ZN15WoodButtonBlock12entityInsideEP5LevelRK8BlockPosPK10BlockStateRKSt10shared_ptrI6EntityE = 0x9b0e8
_ZN15WoodButtonBlock13getBlockStateEi = 0x9b160
_ZN15WoodButtonBlock29convertBlockStateToLegacyDataEPK10BlockState = 0x9b1bc
_ZN15WoodButtonBlock18GetInteractTooltipERK22BlockTooltipDataHolder = 0x9b22c
_ZN15WoodButtonBlock6rotateEPK10BlockStateP8Rotation = 0x9b254
_ZN15WoodButtonBlock6mirrorEPK10BlockStateP6Mirror = 0x9b2ac
_ZN15WoodButtonBlock26createBlockStateDefinitionEv = 0x9b314
_ZN15WoodButtonBlock17getBlockFaceShapeEP11LevelSourcePK10BlockStateRK8BlockPosPK9Direction = 0x9b394
_ZN15WoodButtonBlock15shouldBlockTickEP5LevelRK8BlockPosPK10BlockState = 0x9b39c
_ZN15WoodButtonBlock10getTextureEPK9DirectionPK10BlockState = 0x9b3b0
_ZN15WoodButtonBlock13registerIconsEP12IconRegister = 0x9b3f4
_ZN11InputStreamC1Ev = 0x9b46c
__ct__20ByteArrayInputStreamF25arrayWithLength__tm__3_Uc = 0x9b480
_ZN21ByteArrayOutputStreamC2Ej = 0x9b6a4
_ZN21ByteArrayOutputStreamD1Ev = 0x9b70c
_ZN21ByteArrayOutputStreamD0Ev = 0x9b748
_ZN21ByteArrayOutputStream5writeEj = 0x9b76c
_ZN21ByteArrayOutputStream5writeE15arrayWithLengthIhE = 0x9b7d4
_ZN21ByteArrayOutputStream5writeE15arrayWithLengthIhEjj = 0x9b7e8
_ZN21ByteArrayOutputStream5closeEv = 0x9b888
_ZN21ByteArrayOutputStream11toByteArrayEv = 0x9b88c
_ZN12ByteArrayTagC1Ev = 0x9b8e0
_ZN12ByteArrayTagC1E15arrayWithLengthIhEb = 0x9b91c
_ZN12ByteArrayTagD1Ev = 0x9b974
_ZN12ByteArrayTagD0Ev = 0x9b9b8
_ZN12ByteArrayTag5writeEP10DataOutput = 0x9b9dc
_ZN12ByteArrayTag4loadEP9DataInputi = 0x9ba20
_ZN12ByteArrayTag5getIdEv = 0x9bab8
_ZN12ByteArrayTag8toStringEv = 0x9bac0
_ZN12ByteArrayTag6equalsEP3Tag = 0x9bb18
_ZN12ByteArrayTag4copyEv = 0x9bb7c
_ZN10ByteBufferC1Ej = 0x9bbf0
_ZN10ByteBufferD2Ev = 0x9bc7c
_ZN10ByteBufferD0Ev = 0x9bcc0
_ZN10ByteBuffer8allocateEj = 0x9bce4
_ZN10ByteBuffer4flipEv = 0x9bd18
_ZN10ByteBuffer9getBufferEv = 0x9bd24
_ZN10ByteBuffer11asIntBufferEv = 0x9be70
_ZN7ByteTagC2Ev = 0x9bef8
_ZN10NumericTagC1Ev = 0x9bf28
_ZN7ByteTagC2Eh = 0x9bf58
_ZN7ByteTag5writeEP10DataOutput = 0x9bf90
_ZN7ByteTag4loadEP9DataInputi = 0x9bfa8
_ZN7ByteTag5getIdEv = 0x9bfd8
_ZN7ByteTag8toStringEv = 0x9bfe0
_ZN7ByteTag6equalsEP3Tag = 0x9c038
_ZN7ByteTag4copyEv = 0x9c078
_ZN7ByteTag9getAsLongEv = 0x9c0ac
_ZN7ByteTag8getAsIntEv = 0x9c0b4
_ZN7ByteTag10getAsShortEv = 0x9c0bc
_ZN7ByteTag9getAsByteEv = 0x9c0c4
_ZN7ByteTag11getAsDoubleEv = 0x9c0cc
_ZN7ByteTag10getAsFloatEv = 0x9c0d8
_ZN11CactusBlock4tickEP5LevelRK8BlockPosPK10BlockStateP6Random = 0x9c160
_ZN11CactusBlock11getClipAABBEPK10BlockStateP11LevelSourceRK8BlockPos = 0x9c2d8
_ZN11CactusBlock14getOutlineAABBEPK10BlockStateP5LevelRK8BlockPos = 0x9c2e8
_ZN11CactusBlock12isCubeShapedEPK10BlockState = 0x9c2fc
_ZNK11CactusBlock13isSolidRenderEPK10BlockState = 0x9c304
_ZN11CactusBlock8mayPlaceEP5LevelRK8BlockPos = 0x9c30c
_ZN11CactusBlock15neighborChangedEPK10BlockStateP5LevelRK8BlockPosP5BlockRK8BlockPos = 0x9c368
_ZN11CactusBlock12entityInsideEP5LevelRK8BlockPosPK10BlockStateRKSt10shared_ptrI6EntityE = 0x9c530
_ZN11CactusBlock14getRenderLayerEv = 0x9c550
_ZN11CactusBlock13getBlockStateEi = 0x9c558
_ZN11CactusBlock29convertBlockStateToLegacyDataEPK10BlockState = 0x9c588
_ZN11CactusBlock26createBlockStateDefinitionEv = 0x9c5a0
_ZN11CactusBlock17getBlockFaceShapeEP11LevelSourcePK10BlockStateRK8BlockPosPK9Direction = 0x9c614
_ZN11CactusBlock15shouldBlockTickEP5LevelRK8BlockPosPK10BlockState = 0x9c61c
_ZN11CactusBlock10getTextureEPK9DirectionPK10BlockState = 0x9c668
_ZN11CactusBlock13registerIconsEP12IconRegister = 0x9c6b4
_ZN11CactusBlock14getRenderShapeEPK10BlockState = 0x9c7bc
_ZN9CakeBlock8getShapeEPK10BlockStateP11LevelSourceRK8BlockPos = 0x9c9b8
_ZN9CakeBlock12isCubeShapedEPK10BlockState = 0x9c9ec
_ZNK9CakeBlock13isSolidRenderEPK10BlockState = 0x9c9f4
_ZN9CakeBlock7TestUseEv = 0x9c9fc
_ZN9CakeBlock3useEP5LevelRK8BlockPosPK10BlockStateSt10shared_ptrI6PlayerEN15InteractionHand16EInteractionHandEPK9Directionfffb = 0x9ca04
_ZN9CakeBlock8mayPlaceEP5LevelRK8BlockPos = 0x9cbbc
_ZN9CakeBlock15neighborChangedEPK10BlockStateP5LevelRK8BlockPosP5BlockRK8BlockPos = 0x9cc18
_ZN9CakeBlock16getResourceCountEP6Random = 0x9ccd0
_ZN9CakeBlock11getResourceEPK10BlockStateP6Randomi = 0x9ccd8
_ZN9CakeBlock20getCloneItemInstanceEP5LevelRK8BlockPosPK10BlockState = 0x9cce8
_ZN9CakeBlock14getRenderLayerEv = 0x9cd28
_ZN9CakeBlock13getBlockStateEi = 0x9cd30
_ZN9CakeBlock29convertBlockStateToLegacyDataEPK10BlockState = 0x9cd60
_ZN9CakeBlock18GetInteractTooltipERK22BlockTooltipDataHolder = 0x9cd78
_ZN9CakeBlock26createBlockStateDefinitionEv = 0x9cdd4
_ZN9CakeBlock21getAnalogOutputSignalEPK10BlockStateP5LevelRK8BlockPos = 0x9ce48
_ZN9CakeBlock21hasAnalogOutputSignalEPK10BlockState = 0x9ce7c
_ZN9CakeBlock17getBlockFaceShapeEP11LevelSourcePK10BlockStateRK8BlockPosPK9Direction = 0x9ce84
_ZN9CakeBlock10getTextureEPK9DirectionPK10BlockState = 0x9ce8c
_ZN9CakeBlock13registerIconsEP12IconRegister = 0x9cf20
_ZN8Calendar15GetCalenderTimeEv = 0x9d070
_ZN8Calendar13GetDayOfMonthEv = 0x9d120
_ZN8Calendar8GetMonthEv = 0x9d138
_ZN11ChunkPrimer8getStateEiii = 0x9dbc4
_ZN11CarrotBlock8getShapeEPK10BlockStateP11LevelSourceRK8BlockPos = 0x9ddc0
_ZN11CarrotBlock10getTextureEPK9DirectionPK10BlockState = 0x9de00
_ZN11CarrotBlock13registerIconsEP12IconRegister = 0x9de58
_ZN13CauldronBlock17addCollisionAABBsEPK10BlockStateP5LevelRK8BlockPosPK4AABBPSt6vectorIP4AABBSt9allocatorIP4AABBEESt10shared_ptrI6EntityEb = 0x9e41c
_ZN13CauldronBlock8getShapeEPK10BlockStateP11LevelSourceRK8BlockPos = 0x9e50c
_ZNK13CauldronBlock13isSolidRenderEPK10BlockState = 0x9e51c
_ZN13CauldronBlock12isCubeShapedEPK10BlockState = 0x9e524
_ZN13CauldronBlock12entityInsideEP5LevelRK8BlockPosPK10BlockStateRKSt10shared_ptrI6EntityE = 0x9e750
_ZN13CauldronBlock7TestUseEv = 0x9e870
_ZN13CauldronBlock3useEP5LevelRK8BlockPosPK10BlockStateSt10shared_ptrI6PlayerEN15InteractionHand16EInteractionHandEPK9Directionfffb = 0x9e878
_ZN13CauldronBlock10handleRainEP5LevelRK8BlockPos = 0xa0120
_ZN13CauldronBlock11getResourceEPK10BlockStateP6Randomi = 0xa023c
_ZN13CauldronBlock20getCloneItemInstanceEP5LevelRK8BlockPosPK10BlockState = 0xa024c
_ZN13CauldronBlock21hasAnalogOutputSignalEPK10BlockState = 0xa028c
_ZN13CauldronBlock21getAnalogOutputSignalEPK10BlockStateP5LevelRK8BlockPos = 0xa0294
_ZN13CauldronBlock13getBlockStateEi = 0xa02d0
_ZN13CauldronBlock29convertBlockStateToLegacyDataEPK10BlockState = 0xa0300
_ZN13CauldronBlock18GetInteractTooltipERK22BlockTooltipDataHolder = 0xa0318
_ZN13CauldronBlock26createBlockStateDefinitionEv = 0xa09d0
_ZN13CauldronBlock14isPathfindableEP11LevelSourceRK8BlockPos = 0xa0a44
_ZN13CauldronBlock17getBlockFaceShapeEP11LevelSourcePK10BlockStateRK8BlockPosPK9Direction = 0xa0a4c
_ZN13CauldronBlock10getTextureEPK9DirectionPK10BlockState = 0xa0a84
_ZN13CauldronBlock13registerIconsEP12IconRegister = 0xa0ad0
_ZN13CauldronBlock14getRenderShapeEPK10BlockState = 0xa0dfc
_ZN13CauldronBlock11animateTickEPK10BlockStateP5LevelRK8BlockPosP6Random = 0xa0e04
_ZN13CauldronBlock21getPistonPushReactionEPK10BlockState = 0xa1624
_ZN10CaveSpider14addDataWalkersEP14DataFixerUpper = 0xa2448
_ZNK10ChestBlock13isSolidRenderEPK10BlockState = 0xa2798
_ZN10ChestBlock12isCubeShapedEPK10BlockState = 0xa27a0
_ZN10ChestBlock25hasCustomBreakingProgressEPK10BlockState = 0xa27a8
_ZN10ChestBlock8getShapeEPK10BlockStateP11LevelSourceRK8BlockPos = 0xa27b0
_ZN10ChestBlock7onPlaceEP5LevelRK8BlockPosPK10BlockState = 0xa28fc
_ZN10ChestBlock20getStateForPlacementEP5LevelRK8BlockPosPK9DirectionfffiSt10shared_ptrI12LivingEntityE = 0xa2900
_ZN10ChestBlock11setPlacedByEP5LevelRK8BlockPosPK10BlockStateSt10shared_ptrI12LivingEntityE12not_null_ptrI12ItemInstanceE = 0xa2954
_ZN10ChestBlock8reorientEP5LevelRK8BlockPosPK10BlockState = 0xa328c
_ZN10ChestBlock8mayPlaceEP5LevelRK8BlockPos = 0xa34a8
_ZN10ChestBlock15neighborChangedEPK10BlockStateP5LevelRK8BlockPosP5BlockRK8BlockPos = 0xa3738
_ZN10ChestBlock8onRemoveEP5LevelRK8BlockPosPK10BlockState = 0xa3794
_ZN10ChestBlock7TestUseEv = 0xa3888
_ZN10ChestBlock3useEP5LevelRK8BlockPosPK10BlockStateSt10shared_ptrI6PlayerEN15InteractionHand16EInteractionHandEPK9Directionfffb = 0xa3890
_ZN10ChestBlock14isSignalSourceEPK10BlockState = 0xa4050
_ZN10ChestBlock9getSignalEPK10BlockStateP11LevelSourceRK8BlockPosPK9Direction = 0xa4060
_ZN10ChestBlock15getDirectSignalEPK10BlockStateP11LevelSourceRK8BlockPosPK9Direction = 0xa4150
_ZN10ChestBlock21hasAnalogOutputSignalEPK10BlockState = 0xa42e0
_ZN10ChestBlock21getAnalogOutputSignalEPK10BlockStateP5LevelRK8BlockPos = 0xa42e8
_ZN10ChestBlock13getBlockStateEi = 0xa435c
_ZN10ChestBlock29convertBlockStateToLegacyDataEPK10BlockState = 0xa43c0
_ZN10ChestBlock18GetInteractTooltipERK22BlockTooltipDataHolder = 0xa43e8
_ZN10ChestBlock6rotateEPK10BlockStateP8Rotation = 0xa4410
_ZN10ChestBlock6mirrorEPK10BlockStateP6Mirror = 0xa4468
_ZN10ChestBlock26createBlockStateDefinitionEv = 0xa44d0
_ZN10ChestBlock17getBlockFaceShapeEP11LevelSourcePK10BlockStateRK8BlockPosPK9Direction = 0xa4544
_ZN10ChestBlock13registerIconsEP12IconRegister = 0xa454c
_ZN10ChestBlock14getRenderShapeEPK10BlockState = 0xa45c4
_ZN10ChestBlock21getPistonPushReactionEPK10BlockState = 0xa45cc
_ZN16ChestBlockEntity14addDataWalkersEP14DataFixerUpper = 0xa4a30
_ZN7Chicken10staticCtorEv = 0xa6e2c
_ZN7Chicken14addDataWalkersEP14DataFixerUpper = 0xa75e8
_ZN17ChorusFlowerBlock11DerivedInitEv = 0xa796c
_ZN17ChorusFlowerBlock11getResourceEPK10BlockStateP6Randomi = 0xa7a18
_ZN17ChorusFlowerBlock4tickEP5LevelRK8BlockPosPK10BlockStateP6Random = 0xa7a28
_ZN17ChorusFlowerBlock12isCubeShapedEPK10BlockState = 0xa81fc
_ZNK17ChorusFlowerBlock13isSolidRenderEPK10BlockState = 0xa8204
_ZN17ChorusFlowerBlock8mayPlaceEP5LevelRK8BlockPos = 0xa820c
_ZN17ChorusFlowerBlock15neighborChangedEPK10BlockStateP5LevelRK8BlockPosP5BlockRK8BlockPos = 0xa824c
_ZN17ChorusFlowerBlock13playerDestroyEP5LevelSt10shared_ptrI6PlayerERK8BlockPosPK10BlockStateSt10shared_ptrI11BlockEntityE12not_null_ptrI12ItemInstanceE = 0xa82b0
_ZN17ChorusFlowerBlock14getRenderLayerEv = 0xa83ac
_ZN17ChorusFlowerBlock13getBlockStateEi = 0xa83b4
_ZN17ChorusFlowerBlock29convertBlockStateToLegacyDataEPK10BlockState = 0xa83e4
_ZN17ChorusFlowerBlock13generatePlantEP5Level8BlockPosP6Randomi = 0xa83fc
_ZN17ChorusFlowerBlock24getSilkTouchItemInstanceEPK10BlockState = 0xa8734
_ZN17ChorusFlowerBlock13registerIconsEP12IconRegister = 0xa8744
_ZN17ChorusFlowerBlock10getTextureEPK9DirectionPK10BlockState = 0xa884c
_ZN17ChorusFlowerBlock14getRenderShapeEPK10BlockState = 0xa88b4
_ZN17ChorusFlowerBlock16shouldRenderFaceEPK10BlockStateP11LevelSourceRK8BlockPosPK9Direction = 0xa88c4
_ZN17ChorusFlowerBlock26createBlockStateDefinitionEv = 0xa88d4
_ZN17ChorusFlowerBlock17getBlockFaceShapeEP11LevelSourcePK10BlockStateRK8BlockPosPK9Direction = 0xa8948
_ZN16ChorusPlantBlock11DerivedInitEv = 0xa8c44
_ZN16ChorusPlantBlock31fillVirtualBlockStatePropertiesEPK10BlockStateP11LevelSourceRK8BlockPos = 0xa8d38
_ZN16ChorusPlantBlock14getRenderShapeEPK10BlockState = 0xa8f88
_ZN16ChorusPlantBlock8getShapeEPK10BlockStateP11LevelSourceRK8BlockPos = 0xa9208
_ZN16ChorusPlantBlock17addCollisionAABBsEPK10BlockStateP5LevelRK8BlockPosPK4AABBPSt6vectorIP4AABBSt9allocatorIP4AABBEESt10shared_ptrI6EntityEb = 0xa9320
_ZN16ChorusPlantBlock29convertBlockStateToLegacyDataEPK10BlockState = 0xa95d4
_ZN16ChorusPlantBlock4tickEP5LevelRK8BlockPosPK10BlockStateP6Random = 0xa95dc
_ZN16ChorusPlantBlock11getResourceEPK10BlockStateP6Randomi = 0xa9818
_ZN16ChorusPlantBlock16getResourceCountEP6Random = 0xa9828
_ZN16ChorusPlantBlock12isCubeShapedEPK10BlockState = 0xa9838
_ZNK16ChorusPlantBlock13isSolidRenderEPK10BlockState = 0xa9840
_ZN16ChorusPlantBlock8mayPlaceEP5LevelRK8BlockPos = 0xa9848
_ZN16ChorusPlantBlock15neighborChangedEPK10BlockStateP5LevelRK8BlockPosP5BlockRK8BlockPos = 0xa989c
_ZN16ChorusPlantBlock14getRenderLayerEv = 0xa9900
_ZN16ChorusPlantBlock14isPathfindableEP11LevelSourceRK8BlockPos = 0xa9908
_ZN16ChorusPlantBlock17getBlockFaceShapeEP11LevelSourcePK10BlockStateRK8BlockPosPK9Direction = 0xa9910
_ZN16ChorusPlantBlock26createBlockStateDefinitionEv = 0xa9918
_ZN20BlockStateDefinitionC2IPK8PropertyEEP5BlockPT_ = 0xa99d0
_ZN8ChunkPosC1Eii = 0xa9a1c
_ZN11ChunkPrimerC1Eb15arrayWithLengthIhES1_ = 0xa9bc8
_ZN11ChunkPrimerD1Ev = 0xa9c3c
_ZN11ChunkPrimer8getStateEi = 0xa9c80
_ZN11ChunkPrimer8setStateEiiiPK10BlockState = 0xa9cd8
_ZN11ChunkPrimer8setStateEiPK10BlockState = 0xa9d18
_ZN11ChunkPrimer11getBlockIdsEv = 0xa9dd0
_ZN11ChunkPrimer12getBlockDataEv = 0xa9ddc
_ZN11ChunkPrimer19getHighestNonAirPosEii = 0xa9de8
_ZN12ChunkStorageC2Ev = 0xa9e5c
_ZN25ChunkVisibilityAreaPacketC1Ev = 0xa9e70
_ZN25ChunkVisibilityAreaPacket4readEP15DataInputStream = 0xa9f30
_ZN25ChunkVisibilityAreaPacket5writeEP16DataOutputStream = 0xa9fac
_ZN25ChunkVisibilityAreaPacket6handleEP14PacketListener = 0xaa010
_ZN25ChunkVisibilityAreaPacket16getEstimatedSizeEv = 0xaa070
_ZN21ChunkVisibilityPacketC1Ev = 0xaa078
_ZN21ChunkVisibilityPacket4readEP15DataInputStream = 0xaa11c
_ZN21ChunkVisibilityPacket5writeEP16DataOutputStream = 0xaa164
_ZN21ChunkVisibilityPacket6handleEP14PacketListener = 0xaa190
_ZN21ChunkVisibilityPacket16getEstimatedSizeEv = 0xaa1f0
_ZN9ClayBlock11getResourceEPK10BlockStateP6Randomi = 0xaa23c
_ZN9ClayBlock16getResourceCountEP6Random = 0xaa24c
_ZN11ClayFeatureC1Ei = 0xaa254
_ZN11ClayFeature5placeEP5LevelR6RandomRK8BlockPos = 0xaa2a0
_ZN26ClientboundAddEntityPacketC1Ev = 0xaa6a8
_ZN26ClientboundAddEntityPacket4readEP15DataInputStream = 0xaa9ec
_ZN26ClientboundAddEntityPacket5writeEP16DataOutputStream = 0xaab9c
_ZN26ClientboundAddEntityPacket6handleEP14PacketListener = 0xaacbc
_ZN26ClientboundAddEntityPacket16getEstimatedSizeEv = 0xaad1c
_ZN33ClientboundAddExperienceOrbPacketC1Ev = 0xaae18
_ZN33ClientboundAddExperienceOrbPacket4readEP15DataInputStream = 0xaaec4
_ZN33ClientboundAddExperienceOrbPacket5writeEP16DataOutputStream = 0xaaf4c
_ZN33ClientboundAddExperienceOrbPacket6handleEP14PacketListener = 0xaafcc
_ZN33ClientboundAddExperienceOrbPacket16getEstimatedSizeEv = 0xab02c
_ZN32ClientboundAddGlobalEntityPacketC1Ev = 0xab05c
_ZN32ClientboundAddGlobalEntityPacket4readEP15DataInputStream = 0xab144
_ZN32ClientboundAddGlobalEntityPacket5writeEP16DataOutputStream = 0xab1cc
_ZN32ClientboundAddGlobalEntityPacket6handleEP14PacketListener = 0xab24c
_ZN32ClientboundAddGlobalEntityPacket16getEstimatedSizeEv = 0xab2ac
_ZN23ClientboundAddMobPacketC1Ev = 0xab2dc
_ZN14MappedRegistryI16ResourceLocation11eINSTANCEOFNSt3__14hashIS0_EENS2_8equal_toIS0_EENS3_IS1_EENS5_IS1_EEE5getIdES1_ = 0xab5c8
_ZN23ClientboundAddMobPacketD2Ev = 0xab7dc
_ZN23ClientboundAddMobPacketD0Ev = 0xab948
_ZN23ClientboundAddMobPacket4readEP15DataInputStream = 0xab96c
_ZN23ClientboundAddMobPacket5writeEP16DataOutputStream = 0xabba0
_ZN23ClientboundAddMobPacket6handleEP14PacketListener = 0xabd08
_ZN23ClientboundAddMobPacket16getEstimatedSizeEv = 0xabd68
_ZN28ClientboundAddPaintingPacketC1Ev = 0xabed8
_ZN28ClientboundAddPaintingPacket4readEP15DataInputStream = 0xabfe8
_ZN28ClientboundAddPaintingPacket5writeEP16DataOutputStream = 0xac0e0
_ZN28ClientboundAddPaintingPacket6handleEP14PacketListener = 0xac154
_ZN28ClientboundAddPaintingPacket16getEstimatedSizeEv = 0xac1b4
_ZN26ClientboundAddPlayerPacketC1Ev = 0xac200
_ZN26ClientboundAddPlayerPacketD2Ev = 0xac300
_ZN26ClientboundAddPlayerPacketD0Ev = 0xac3b8
_ZN26ClientboundAddPlayerPacket4readEP15DataInputStream = 0xac618
_ZN26ClientboundAddPlayerPacket5writeEP16DataOutputStream = 0xac83c
_ZN26ClientboundAddPlayerPacket6handleEP14PacketListener = 0xac9e4
_ZN26ClientboundAddPlayerPacket16getEstimatedSizeEv = 0xaca44
_ZN24ClientboundAnimatePacketC1Ev = 0xacafc
_ZN24ClientboundAnimatePacket4readEP15DataInputStream = 0xacb88
_ZN24ClientboundAnimatePacket5writeEP16DataOutputStream = 0xacbd4
_ZN24ClientboundAnimatePacket6handleEP14PacketListener = 0xacc18
_ZNSt3__110shared_ptrI24ClientboundAnimatePacketED2Ev = 0xacc68
_ZN24ClientboundAnimatePacket16getEstimatedSizeEv = 0xacc78
_ZN26ClientboundAwardStatPacketC1Ev = 0xacc90
_ZN26ClientboundAwardStatPacketD1Ev = 0xacd44
_ZN26ClientboundAwardStatPacketD0Ev = 0xacd8c
_ZN26ClientboundAwardStatPacket6handleEP14PacketListener = 0xacdb0
_ZNSt3__110shared_ptrI26ClientboundAwardStatPacketED2Ev = 0xace10
_ZN26ClientboundAwardStatPacket4readEP15DataInputStream = 0xace20
_ZN26ClientboundAwardStatPacket5writeEP16DataOutputStream = 0xaceac
_ZN26ClientboundAwardStatPacket16getEstimatedSizeEv = 0xacf18
_ZN26ClientboundAwardStatPacket6isAyncEv = 0xacf20
_ZN33ClientboundBlockDestructionPacketC1Ev = 0xacf34
_ZN33ClientboundBlockDestructionPacket4readEP15DataInputStream = 0xad000
_ZN33ClientboundBlockDestructionPacket5writeEP16DataOutputStream = 0xad05c
_ZN33ClientboundBlockDestructionPacket6handleEP14PacketListener = 0xad0ac
_ZN33ClientboundBlockDestructionPacket16getEstimatedSizeEv = 0xad10c
_ZN43ClientboundBlockCollectionDestructionPacketC1Ev = 0xad134
_ZN43ClientboundBlockCollectionDestructionPacketD2Ev = 0xad214
_ZN43ClientboundBlockCollectionDestructionPacketD0Ev = 0xad258
_ZN43ClientboundBlockCollectionDestructionPacket4readEP15DataInputStream = 0xad27c
_ZN43ClientboundBlockCollectionDestructionPacket5writeEP16DataOutputStream = 0xad34c
_ZN43ClientboundBlockCollectionDestructionPacket6handleEP14PacketListener = 0xad3ec
_ZN43ClientboundBlockCollectionDestructionPacket16getEstimatedSizeEv = 0xad44c
_ZN32ClientboundBlockEntityDataPacketC1Ev = 0xad4a8
_ZN32ClientboundBlockEntityDataPacketD2Ev = 0xad57c
_ZN32ClientboundBlockEntityDataPacketD0Ev = 0xad5cc
_ZN32ClientboundBlockEntityDataPacket4readEP15DataInputStream = 0xad5f0
_ZN32ClientboundBlockEntityDataPacket5writeEP16DataOutputStream = 0xad660
_ZN32ClientboundBlockEntityDataPacket6handleEP14PacketListener = 0xad6c0
_ZN32ClientboundBlockEntityDataPacket16getEstimatedSizeEv = 0xad710
_ZN27ClientboundBlockEventPacketC1Ev = 0xad740
_ZN27ClientboundBlockEventPacket4readEP15DataInputStream = 0xad818
_ZN27ClientboundBlockEventPacket5writeEP16DataOutputStream = 0xad894
_ZN27ClientboundBlockEventPacket6handleEP14PacketListener = 0xad910
_ZN27ClientboundBlockEventPacket16getEstimatedSizeEv = 0xad970
_ZN28ClientboundBlockUpdatePacketC1Ev = 0xad9a0
_ZN28ClientboundBlockUpdatePacket4readEP15DataInputStream = 0xadabc
_ZN28ClientboundBlockUpdatePacket5writeEP16DataOutputStream = 0xadb60
_ZN28ClientboundBlockUpdatePacket6handleEP14PacketListener = 0xadbe4
_ZN28ClientboundBlockUpdatePacket16getEstimatedSizeEv = 0xadc44
_ZN26ClientboundBossEventPacketC1Ev = 0xadc80
_ZN26ClientboundBossEventPacket4readEP15DataInputStream = 0xadebc
_ZN26ClientboundBossEventPacket5writeEP16DataOutputStream = 0xae17c
_ZN26ClientboundBossEventPacket6handleEP14PacketListener = 0xae304
_ZN26ClientboundBossEventPacket16getEstimatedSizeEv = 0xae3bc
_ZN33ClientboundChangeDifficultyPacketC1Ev = 0xae4b4
_ZN33ClientboundChangeDifficultyPacketD2Ev = 0xae534
_ZN33ClientboundChangeDifficultyPacketD0Ev = 0xae55c
_ZN33ClientboundChangeDifficultyPacket6handleEP14PacketListener = 0xae580
_ZNSt3__110shared_ptrI33ClientboundChangeDifficultyPacketED2Ev = 0xae5d0
_ZN33ClientboundChangeDifficultyPacket4readEP15DataInputStream = 0xae5e0
_ZN33ClientboundChangeDifficultyPacket5writeEP16DataOutputStream = 0xae618
_ZN21ClientboundChatPacketC1Ev = 0xae664
_ZN21ClientboundChatPacket4readEP15DataInputStream = 0xaeb8c
_ZN21ClientboundChatPacket5writeEP16DataOutputStream = 0xaebcc
_ZN21ClientboundChatPacket6handleEP14PacketListener = 0xaec08
_ZN21ClientboundChatPacket16getEstimatedSizeEv = 0xaec58
_ZN34ClientboundChunkBlocksUpdatePacketD2Ev = 0xaed24
_ZN34ClientboundChunkBlocksUpdatePacketD0Ev = 0xaed80
_ZN34ClientboundChunkBlocksUpdatePacketC1Ev = 0xaeda4
_ZN34ClientboundChunkBlocksUpdatePacket4readEP15DataInputStream = 0xaf0a0
_ZN34ClientboundChunkBlocksUpdatePacket5writeEP16DataOutputStream = 0xaf2e4
_ZN34ClientboundChunkBlocksUpdatePacket6handleEP14PacketListener = 0xaf574
_ZN34ClientboundChunkBlocksUpdatePacket16getEstimatedSizeEv = 0xaf5d4
_ZN29ClientboundContainerAckPacketC1Ev = 0xaf690
_ZN29ClientboundContainerAckPacket6handleEP14PacketListener = 0xaf724
_ZN29ClientboundContainerAckPacket4readEP15DataInputStream = 0xaf784
_ZN29ClientboundContainerAckPacket5writeEP16DataOutputStream = 0xaf7ec
_ZN29ClientboundContainerAckPacket16getEstimatedSizeEv = 0xaf844
_ZN31ClientboundContainerClosePacketC1Ev = 0xaf864
_ZN31ClientboundContainerClosePacket6handleEP14PacketListener = 0xaf8d8
_ZNSt3__110shared_ptrI31ClientboundContainerClosePacketED2Ev = 0xaf928
_ZN31ClientboundContainerClosePacket4readEP15DataInputStream = 0xaf938
_ZN31ClientboundContainerClosePacket5writeEP16DataOutputStream = 0xaf96c
_ZN31ClientboundContainerClosePacket16getEstimatedSizeEv = 0xaf984
_ZN30ClientboundContainerOpenPacketC1Ev = 0xafa30
_ZN30ClientboundContainerOpenPacketD2Ev = 0xafaf8
_ZN30ClientboundContainerOpenPacketD0Ev = 0xafb64
_ZN30ClientboundContainerOpenPacket6handleEP14PacketListener = 0xafed0
_ZN30ClientboundContainerOpenPacket4readEP15DataInputStream = 0xaff30
_ZN30ClientboundContainerOpenPacket5writeEP16DataOutputStream = 0xb0118
_ZN30ClientboundContainerOpenPacket16getEstimatedSizeEv = 0xb0200
_ZN36ClientboundContainerSetContentPacketC1Ev = 0xb0364
_ZN36ClientboundContainerSetContentPacketD2Ev = 0xb04a4
_ZN36ClientboundContainerSetContentPacketD0Ev = 0xb04fc
_ZN36ClientboundContainerSetContentPacket4readEP15DataInputStream = 0xb0520
_ZN36ClientboundContainerSetContentPacket5writeEP16DataOutputStream = 0xb05ec
_ZN36ClientboundContainerSetContentPacket6handleEP14PacketListener = 0xb06a0
_ZN36ClientboundContainerSetContentPacket16getEstimatedSizeEv = 0xb0700
_ZN33ClientboundContainerSetDataPacketC1Ev = 0xb0734
_ZN33ClientboundContainerSetDataPacket6handleEP14PacketListener = 0xb07c4
_ZN33ClientboundContainerSetDataPacket4readEP15DataInputStream = 0xb0824
_ZN33ClientboundContainerSetDataPacket5writeEP16DataOutputStream = 0xb088c
_ZN33ClientboundContainerSetDataPacket16getEstimatedSizeEv = 0xb08e4
_ZN33ClientboundContainerSetSlotPacketC1Ev = 0xb0904
_ZN33ClientboundContainerSetSlotPacket6handleEP14PacketListener = 0xb09fc
_ZN33ClientboundContainerSetSlotPacket4readEP15DataInputStream = 0xb0a5c
_ZN33ClientboundContainerSetSlotPacket5writeEP16DataOutputStream = 0xb0ad4
_ZN33ClientboundContainerSetSlotPacket16getEstimatedSizeEv = 0xb0b44
_ZN25ClientboundCooldownPacketC1Ev = 0xb0b68
_ZN25ClientboundCooldownPacket4readEP15DataInputStream = 0xb0bf0
_ZN25ClientboundCooldownPacket5writeEP16DataOutputStream = 0xb0c2c
_ZN25ClientboundCooldownPacket6handleEP14PacketListener = 0xb0c68
_ZNSt3__110shared_ptrI25ClientboundCooldownPacketED2Ev = 0xb0cd0
_ZN30ClientboundCustomPayloadPacketC1Ev = 0xb0cf0
_ZN30ClientboundCustomPayloadPacketD2Ev = 0xb0da8
_ZN30ClientboundCustomPayloadPacketD0Ev = 0xb0df4
_ZN30ClientboundCustomPayloadPacket4readEP15DataInputStream = 0xb0e18
_ZN30ClientboundCustomPayloadPacket5writeEP16DataOutputStream = 0xb0f34
_ZN30ClientboundCustomPayloadPacket6handleEP14PacketListener = 0xb0f94
_ZN30ClientboundCustomPayloadPacket16getEstimatedSizeEv = 0xb0ff4
_ZN32ClientboundDamageIndicatorPacketC1Ev = 0xb1030
_ZN32ClientboundDamageIndicatorPacket4readEP15DataInputStream = 0xb10c0
_ZN32ClientboundDamageIndicatorPacket5writeEP16DataOutputStream = 0xb1120
_ZN32ClientboundDamageIndicatorPacket6handleEP14PacketListener = 0xb1178
_ZN32ClientboundDamageIndicatorPacket16getEstimatedSizeEv = 0xb11d8
_ZN6Entity28readAdditionContructionTag_4EP11CompoundTag = 0xb12b8
_ZN6Entity16PositionLocked_4Ev = 0xb12bc
_ZN6Entity19SetPositionLocked_4Eb = 0xb12c4
_ZN6Entity26TakeGlideCollisionDamage_4Ev = 0xb12c8
_ZN6Entity25SetGlideCollisionDamage_4Eb = 0xb12d0
_ZN6Entity22GetLiftForceModifier_4Ev = 0xb12d4
_ZN6Entity22SetLiftForceModifier_4Ed = 0xb12dc
_ZN6Entity18onLoadedFromSave_4Ev = 0xb12e0
_ZN6Entity17isUsingItemFlag_4Ev = 0xb12e4
_ZN6Entity18setUsingItemFlag_4Eb = 0xb12ec
_ZN11BlockEntityD0Ev = 0xb13b0
_ZN11BlockEntity6rotateEP8Rotation = 0xb13d4
_ZN11BlockEntity6mirrorEP6Mirror = 0xb13d8
_ZN14AddIslandLayerD0Ev = 0xb1518
_ZN5LayerD2Ev = 0xb153c
_ZN22AddMushroomIslandLayerD0Ev = 0xb1550
_ZN12AddSnowLayerD0Ev = 0xb1574
_ZN5Block18isTopSolidBlockingEPK10BlockState = 0xb1598
_ZN5Block22ParticlesSurviveWithinEv = 0xb15f0
_ZN8AirBlockD0Ev = 0xb15f8
_ZN5Block15shouldBlockTickEP5LevelRK8BlockPosPK10BlockState = 0xb161c
_ZN5Block13isLiquidBlockEv = 0xb1624
_ZN4Item13GetUseTooltipERK21ItemToolTipDataHolder = 0xb162c
_ZN10AnvilBlockD0Ev = 0xb167c
_ZN22ArrowDamageEnchantmentD0Ev = 0xb18dc
_ZN20ArrowFireEnchantmentD0Ev = 0xb1900
_ZN24ArrowInfiniteEnchantmentD0Ev = 0xb1924
_ZN11EnchantmentD1Ev = 0xb196c
_ZN25ArrowKnockbackEnchantmentD0Ev = 0xb1970
_ZN4ItemD2Ev = 0xb1a64
_ZN15BaseEntityBlockD0Ev = 0xb1ac0
_ZN11BannerBlockD0Ev = 0xb1af4
_ZN15WallBannerBlockD0Ev = 0xb1b28
_ZN19StandingBannerBlockD0Ev = 0xb1b5c
_ZN12BarrierBlockD0Ev = 0xb1bf4
_ZN26WeightedPressurePlateBlockD2Ev = 0xb1c48
_ZN22BasePressurePlateBlockD0Ev = 0xb1c7c
_ZN5BlockD2Ev = 0xb1ca0
_ZN13BaseRailBlockD0Ev = 0xb1cb4
_ZN11BeaconBlockD0Ev = 0xb1ce4
_ZN8BedBlockD2Ev = 0xb1fc8
_ZN8BedBlockD0Ev = 0xb1ff0
_ZN11BlockEntityD1Ev = 0xb2030
_ZN4BushD0Ev = 0xb20c8
_ZN13BeetrootBlockD0Ev = 0xb20ec
_ZN23BindingCurseEnchantmentD0Ev = 0xb21b0
_ZN5Biome7isFoggyEv = 0xb21d4
_ZN5Biome9isNaturalEv = 0xb21dc
_ZN11CarrotBlockD0Ev = 0xb22c4
_ZN23BlockRegionUpdatePacket11getPacketIdEv = 0xb2510
_ZN9BoneBlockD0Ev = 0xb25ec
_ZN14BookshelfBlockD0Ev = 0xb2658
_ZN17BrewingStandBlockD0Ev = 0xb2950
_ZN4SlotD1Ev = 0xb2a10
_ZN11ButtonBlockD0Ev = 0xb2ab4
_ZN21ByteArrayOutputStream5flushEv = 0xb2ad8
_ZN7ByteTagD0Ev = 0xb2adc
_ZN11CactusBlockD0Ev = 0xb2b00
_ZN9CakeBlockD0Ev = 0xb2b24
_ZN13CauldronBlock22ParticlesSurviveWithinEv = 0xb2b90
_ZN13CauldronBlockD0Ev = 0xb2b98
_ZN13WallSignBlockD2Ev = 0xb2ca0
_ZN10ChestBlockD0Ev = 0xb2cc8
_ZN17ChorusFlowerBlockD0Ev = 0xb2e64
_ZN16ChorusPlantBlockD0Ev = 0xb2eac
_ZN12ChunkStorage10WaitForAllEv = 0xb2ed0
_ZN12ChunkStorage25WaitIfTooManyQueuedChunksEv = 0xb2ed4
_ZN25ChunkVisibilityAreaPacketD2Ev = 0xb2ed8
_ZN25ChunkVisibilityAreaPacketD0Ev = 0xb2f00
_ZN25ChunkVisibilityAreaPacket11getPacketIdEv = 0xb2f24
_ZN21ChunkVisibilityPacketD2Ev = 0xb2f2c
_ZN21ChunkVisibilityPacketD0Ev = 0xb2f54
_ZN21ChunkVisibilityPacket11getPacketIdEv = 0xb2f78
_ZN9ClayBlockD0Ev = 0xb2f80
_ZN7FeatureD2Ev = 0xb2fa4
_ZN11ClayFeatureD0Ev = 0xb2fa8
_ZN26ClientboundAddEntityPacketD2Ev = 0xb2fcc
_ZN26ClientboundAddEntityPacketD0Ev = 0xb3010
_ZN26ClientboundAddEntityPacket11getPacketIdEv = 0xb3034
_ZN33ClientboundAddExperienceOrbPacketD2Ev = 0xb303c
_ZN33ClientboundAddExperienceOrbPacketD0Ev = 0xb3064
_ZN33ClientboundAddExperienceOrbPacket11getPacketIdEv = 0xb3088
_ZN32ClientboundAddGlobalEntityPacketD2Ev = 0xb3090
_ZN32ClientboundAddGlobalEntityPacketD0Ev = 0xb30b8
_ZN32ClientboundAddGlobalEntityPacket11getPacketIdEv = 0xb30dc
_ZN23ClientboundAddMobPacket11getPacketIdEv = 0xb30e4
_ZN28ClientboundAddPaintingPacketD2Ev = 0xb30ec
_ZN28ClientboundAddPaintingPacketD0Ev = 0xb3130
_ZN28ClientboundAddPaintingPacket11getPacketIdEv = 0xb3154
_ZN26ClientboundAddPlayerPacket11getPacketIdEv = 0xb315c
_ZN24ClientboundAnimatePacketD2Ev = 0xb3164
_ZN24ClientboundAnimatePacketD0Ev = 0xb318c
_ZN24ClientboundAnimatePacket11getPacketIdEv = 0xb31b0
_ZN26ClientboundAwardStatPacket11getPacketIdEv = 0xb31b8
_ZN33ClientboundBlockDestructionPacketD2Ev = 0xb31c0
_ZN33ClientboundBlockDestructionPacketD0Ev = 0xb31e8
_ZN33ClientboundBlockDestructionPacket11getPacketIdEv = 0xb320c
_ZN43ClientboundBlockCollectionDestructionPacket11getPacketIdEv = 0xb3214
_ZN32ClientboundBlockEntityDataPacket11getPacketIdEv = 0xb321c
_ZN27ClientboundBlockEventPacketD2Ev = 0xb3224
_ZN27ClientboundBlockEventPacketD0Ev = 0xb324c
_ZN27ClientboundBlockEventPacket11getPacketIdEv = 0xb3270
_ZN28ClientboundBlockUpdatePacketD2Ev = 0xb3278
_ZN28ClientboundBlockUpdatePacketD0Ev = 0xb32a0
_ZN28ClientboundBlockUpdatePacket11getPacketIdEv = 0xb32c4
_ZN26ClientboundBossEventPacketD2Ev = 0xb32cc
_ZN26ClientboundBossEventPacketD0Ev = 0xb3318
_ZN26ClientboundBossEventPacket11getPacketIdEv = 0xb333c
_ZN33ClientboundChangeDifficultyPacket11getPacketIdEv = 0xb3344
_ZN21ClientboundChatPacketD2Ev = 0xb334c
_ZN21ClientboundChatPacketD0Ev = 0xb3374
_ZN21ClientboundChatPacket11getPacketIdEv = 0xb3398
_ZN34ClientboundChunkBlocksUpdatePacket11getPacketIdEv = 0xb33a0
_ZN29ClientboundContainerAckPacketD2Ev = 0xb33a8
_ZN29ClientboundContainerAckPacketD0Ev = 0xb33d0
_ZN29ClientboundContainerAckPacket11getPacketIdEv = 0xb33f4
_ZN31ClientboundContainerClosePacketD2Ev = 0xb33fc
_ZN31ClientboundContainerClosePacketD0Ev = 0xb3424
_ZN31ClientboundContainerClosePacket11getPacketIdEv = 0xb3448
_ZN30ClientboundContainerOpenPacket11getPacketIdEv = 0xb3450
_ZN36ClientboundContainerSetContentPacket11getPacketIdEv = 0xb3458
_ZN33ClientboundContainerSetDataPacketD2Ev = 0xb3460
_ZN33ClientboundContainerSetDataPacketD0Ev = 0xb3488
_ZN33ClientboundContainerSetDataPacket11getPacketIdEv = 0xb34ac
_ZN33ClientboundContainerSetSlotPacketD2Ev = 0xb34b4
_ZN33ClientboundContainerSetSlotPacketD0Ev = 0xb34f8
_ZN33ClientboundContainerSetSlotPacket11getPacketIdEv = 0xb351c
_ZN25ClientboundCooldownPacketD2Ev = 0xb3524
_ZN25ClientboundCooldownPacketD0Ev = 0xb354c
_ZN25ClientboundCooldownPacket11getPacketIdEv = 0xb3570
_ZN30ClientboundCustomPayloadPacket11getPacketIdEv = 0xb3578
_ZN32ClientboundDamageIndicatorPacketD2Ev = 0xb3580
_ZN32ClientboundDamageIndicatorPacketD0Ev = 0xb35a8
_ZN32ClientboundDamageIndicatorPacket11getPacketIdEv = 0xb35cc
_ZN5BiomeD2Ev = 0xb3784
_ZN9BlockImplD0Ev = 0xb383c
_ZN6BufferD2Ev = 0xb3860
_ZN6BufferD0Ev = 0xb3864
_ZN11EntityBlock12isValidSpawnEPK10BlockStateSt10shared_ptrI6EntityE = 0xb40d8
_ZN17WeighedRandomItemC2Ei = 0xb41b0
_ZN14SimpleRegistryI16ResourceLocation11eINSTANCEOFNSt3__14hashIS0_EENS2_8equal_toIS0_EEE11registerKeyES0_S1_ = 0xb4428
_ZN14SimpleRegistryI16ResourceLocation11eINSTANCEOFNSt3__14hashIS0_EENS2_8equal_toIS0_EEE6keySetEv = 0xb4494
_ZN14SimpleRegistryI16ResourceLocation11eINSTANCEOFNSt3__14hashIS0_EENS2_8equal_toIS0_EEE9getRandomEP6Random = 0xb449c
_ZN14SimpleRegistryI16ResourceLocation11eINSTANCEOFNSt3__14hashIS0_EENS2_8equal_toIS0_EEE11containsKeyES0_ = 0xb4540
_ZN14MappedRegistryI16ResourceLocation11eINSTANCEOFNSt3__14hashIS0_EENS2_8equal_toIS0_EENS3_IS1_EENS5_IS1_EEE4byIdEi = 0xb4588
_ZN14MappedRegistryI16ResourceLocation11eINSTANCEOFNSt3__14hashIS0_EENS2_8equal_toIS0_EENS3_IS1_EENS5_IS1_EEE10containsIdEi = 0xb4590
_ZThn80_N14MappedRegistryI16ResourceLocation11eINSTANCEOFNSt3__14hashIS0_EENS2_8equal_toIS0_EENS3_IS1_EENS5_IS1_EEE5getIdES1_ = 0xb4598
_ZThn80_N14MappedRegistryI16ResourceLocation11eINSTANCEOFNSt3__14hashIS0_EENS2_8equal_toIS0_EENS3_IS1_EENS5_IS1_EEE4byIdEi = 0xb45a0
_ZNSt3__113unordered_mapI16ResourceLocation11eINSTANCEOFNS_4hashIS1_EENS_8equal_toIS1_EENS_9allocatorINS_4pairIKS1_S2_EEEEE2atERS9_ = 0xb49f0
_ZNSt3__112__hash_tableINS_17__hash_value_typeI16ResourceLocation11eINSTANCEOFEENS_22__unordered_map_hasherIS2_S4_NS_4hashIS2_EELb1EEENS_21__unordered_map_equalIS2_S4_NS_8equal_toIS2_EELb1EEENS_9allocatorIS4_EEE4findIS2_EENS_15__hash_iteratorIPNS_11__hash_nodeIS4_PvEEEERKT_ = 0xb4a08
_ZNKSt3__14hashI16ResourceLocationEclERKS1_ = 0xb4b34
_ZNK16ResourceLocationeqERKS_ = 0xb4b3c
_ZNSt3__112__hash_tableINS_17__hash_value_typeI16ResourceLocation11eINSTANCEOFEENS_22__unordered_map_hasherIS2_S4_NS_4hashIS2_EELb1EEENS_21__unordered_map_equalIS2_S4_NS_8equal_toIS2_EELb1EEENS_9allocatorIS4_EEE21__construct_node_hashIRKNS_21piecewise_construct_tEJNS_5tupleIJRKS2_EEENSK_IJEEEEEENS_10unique_ptrINS_11__hash_nodeIS4_PvEENS_22__hash_node_destructorINSD_ISS_EEEEEEmOT_DpOT0_ = 0xb4da4
_ZNSt3__127__tree_balance_after_insertIPNS_16__tree_node_baseIPvEEEEvT_S5_ = 0xb5370
_ZNSt3__118__tree_left_rotateIPNS_16__tree_node_baseIPvEEEEvT_ = 0xb5460
_ZNSt3__119__tree_right_rotateIPNS_16__tree_node_baseIPvEEEEvT_ = 0xb54a0
vtbl_710103AD28_func_0 = 0xb66b8
vtbl_710103AB98_func_0 = 0xb6778
_ZN3TagD2Ev = 0xb67a0
_ZN10NumericTagD0Ev = 0xb67a4
_ZN12ChunkStorageD1Ev = 0xb67c8
_ZN12ChunkStorageD0Ev = 0xb67cc
_ZNSt3__18weak_ptrI24ClientboundAnimatePacketED2Ev = 0xb6a60
_ZN14FlexiblePacketD2Ev = 0xb6ab0
_ZNSt3__18weak_ptrI31ClientboundContainerClosePacketED2Ev = 0xb6b6c
_ZNSt3__18weak_ptrI25ClientboundCooldownPacketED2Ev = 0xb6b9c
_ZNSt3__111char_traitsIwE6lengthEPKw = 0xb6bbc
_ZNSt3__111char_traitsIwE6assignERwRKw = 0xb6bc0
_ZNSt3__121__murmur2_or_cityhashImLm64EEclEPKvm = 0xb6ce8
_ZNSt3__121__murmur2_or_cityhashImLm64EE13__hash_len_16Emm = 0xb7450
_ZNSt3__121__murmur2_or_cityhashImLm64EE29__weak_hash_len_32_with_seedsEPKcmm = 0xb7480
_ZNSt3__121__murmur2_or_cityhashImLm64EE8__rotateEmi = 0xb7524
_ZNSt3__110shared_ptrI12ItemInstanceEC2IS1_EEPT_NS_9enable_ifIXsr14is_convertibleIS5_PS1_EE5valueENS2_5__natEE4typeE = 0xb7f6c
_ZNSt3__120__shared_ptr_pointerIP12ItemInstanceNS_14default_deleteIS1_EENS_9allocatorIS1_EEED0Ev = 0xb8038
_ZNSt3__120__shared_ptr_pointerIP12ItemInstanceNS_14default_deleteIS1_EENS_9allocatorIS1_EEE16__on_zero_sharedEv = 0xb805c
_ZNKSt3__120__shared_ptr_pointerIP12ItemInstanceNS_14default_deleteIS1_EENS_9allocatorIS1_EEE13__get_deleterERKSt9type_info = 0xb8094
_ZNSt3__120__shared_ptr_pointerIP12ItemInstanceNS_14default_deleteIS1_EENS_9allocatorIS1_EEE21__on_zero_shared_weakEv = 0xb80b0
_ZN10TypedBoxedIiEC1Ei = 0xba25c
_ZN15arrayWithLengthIiE16createDataBufferEj = 0xbaca4
_ZNSt3__111char_traitsIwE7compareEPKwS3_m = 0xbc260
_ZNSt3__111char_traitsIwE3eofEv = 0xbce68
_ZNSt3__115basic_stringbufIwNS_11char_traitsIwEENS_9allocatorIwEEE3strERKNS_12basic_stringIwS2_S4_EE = 0xbce70
_ZNSt3__115basic_stringbufIwNS_11char_traitsIwEENS_9allocatorIwEEED2Ev = 0xbcf60
_ZNSt3__115basic_stringbufIwNS_11char_traitsIwEENS_9allocatorIwEEED0Ev = 0xbcf94
_ZNSt3__115basic_stringbufIwNS_11char_traitsIwEENS_9allocatorIwEEE7seekoffExNS_8ios_base7seekdirEj = 0xbcfb8
_ZNSt3__115basic_stringbufIwNS_11char_traitsIwEENS_9allocatorIwEEE7seekposENS_4fposI11__mbstate_tEEj = 0xbd114
_ZNSt3__115basic_stringbufIwNS_11char_traitsIwEENS_9allocatorIwEEE9underflowEv = 0xbd128
_ZNSt3__115basic_stringbufIwNS_11char_traitsIwEENS_9allocatorIwEEE9pbackfailEj = 0xbd174
_ZNSt3__115basic_stringbufIwNS_11char_traitsIwEENS_9allocatorIwEEE8overflowEj = 0xbd238
_ZNSt3__111char_traitsIwE11to_int_typeEw = 0xbd42c
_ZNSt3__111char_traitsIwE11eq_int_typeEjj = 0xbd430
_ZNSt3__111char_traitsIwE7not_eofEj = 0xbd43c
_ZNSt3__111char_traitsIwE2eqEww = 0xbd478
_ZNSt3__111char_traitsIwE12to_char_typeEj = 0xbd484
_ZNSt3__110shared_ptrI11BlockEntityEC2IS1_EERKNS_8weak_ptrIT_EENS_9enable_ifIXsr14is_convertibleIPS5_PS1_EE5valueENS2_5__natEE4typeE = 0xbec90
_ZNKSt3__14hashINS_12basic_stringIwNS_11char_traitsIwEENS_9allocatorIwEEEEEclERKS6_ = 0xbfdfc
_ZNSt3__16vectorIPN5Biome14MobSpawnerDataENS_9allocatorIS3_EEE21__push_back_slow_pathIS3_EEvOT_ = 0xc10a4
_ZNSt3__114__split_bufferIPN5Biome14MobSpawnerDataERNS_9allocatorIS3_EEEC2EmmS6_ = 0xc115c
_ZNSt3__16vectorIPN5Biome14MobSpawnerDataENS_9allocatorIS3_EEE26__swap_out_circular_bufferERNS_14__split_bufferIS3_RS5_EE = 0xc11bc
_ZNSt3__114__split_bufferIPN5Biome14MobSpawnerDataERNS_9allocatorIS3_EEED2Ev = 0xc1234
_ZNKSt3__16vectorIPN5Biome14MobSpawnerDataENS_9allocatorIS3_EEE8max_sizeEv = 0xc1268
_ZN15arrayWithLengthIhE16createDataBufferEj = 0xc1270
std__vector__push_back_Biome = 0xc1ebc
_ZNSt3__113unordered_mapIP5BlockiNS_4hashIS2_EENS_8equal_toIS2_EENS_9allocatorINS_4pairIKS2_iEEEEEixERS9_ = 0xc492c
_ZNSt3__112__hash_tableINS_17__hash_value_typeIP5BlockiEENS_22__unordered_map_hasherIS3_S4_NS_4hashIS3_EELb1EEENS_21__unordered_map_equalIS3_S4_NS_8equal_toIS3_EELb1EEENS_9allocatorIS4_EEE21__construct_node_hashIRKNS_21piecewise_construct_tEJNS_5tupleIJRKS3_EEENSK_IJEEEEEENS_10unique_ptrINS_11__hash_nodeIS4_PvEENS_22__hash_node_destructorINSD_ISS_EEEEEEmOT_DpOT0_ = 0xc4b80
_ZNSt3__112__hash_tableINS_17__hash_value_typeIP5BlockiEENS_22__unordered_map_hasherIS3_S4_NS_4hashIS3_EELb1EEENS_21__unordered_map_equalIS3_S4_NS_8equal_toIS3_EELb1EEENS_9allocatorIS4_EEE6rehashEm = 0xc4be0
_ZNSt3__112__hash_tableINS_17__hash_value_typeINS_12basic_stringIwNS_11char_traitsIwEENS_9allocatorIwEEEEPFP11BlockEntityvEEENS_22__unordered_map_hasherIS7_SC_NS_4hashIS7_EELb1EEENS_21__unordered_map_equalIS7_SC_NS_8equal_toIS7_EELb1EEENS5_ISC_EEE21__construct_node_hashINS_4pairIKS7_SB_EEJEEENS_10unique_ptrINS_11__hash_nodeISC_PvEENS_22__hash_node_destructorINS5_ISU_EEEEEEmOT_DpOT0_ = 0xc51d4
_ZNSt3__112__hash_tableINS_17__hash_value_typeINS_12basic_stringIwNS_11char_traitsIwEENS_9allocatorIwEEEEPFP11BlockEntityvEEENS_22__unordered_map_hasherIS7_SC_NS_4hashIS7_EELb1EEENS_21__unordered_map_equalIS7_SC_NS_8equal_toIS7_EELb1EEENS5_ISC_EEE6rehashEm = 0xc5240
_ZNSt3__14pairIKNS_12basic_stringIwNS_11char_traitsIwEENS_9allocatorIwEEEEPFP11BlockEntityvEEC2EOSC_ = 0xc5324
_ZNSt3__112__hash_tableINS_17__hash_value_typeINS_12basic_stringIwNS_11char_traitsIwEENS_9allocatorIwEEEEPFP11BlockEntityvEEENS_22__unordered_map_hasherIS7_SC_NS_4hashIS7_EELb1EEENS_21__unordered_map_equalIS7_SC_NS_8equal_toIS7_EELb1EEENS5_ISC_EEE8__rehashEm = 0xc5350
_ZNSt3__114__split_bufferIPK9DirectionRNS_9allocatorIS3_EEEC2EmmS6_ = 0xc6360
_ZNSt3__16vectorIPK9DirectionNS_9allocatorIS3_EEE26__swap_out_circular_bufferERNS_14__split_bufferIS3_RS5_EE = 0xc63c0
_ZNSt3__114__split_bufferIPK9DirectionRNS_9allocatorIS3_EEED2Ev = 0xc6438
_ZNKSt3__16vectorIPK9DirectionNS_9allocatorIS3_EEE8max_sizeEv = 0xc646c
_ZNSt3__110shared_ptrI24ClientboundAnimatePacketEC2IS1_EERKNS_8weak_ptrIT_EENS_9enable_ifIXsr14is_convertibleIPS5_PS1_EE5valueENS2_5__natEE4typeE = 0xca82c
_ZNSt3__18weak_ptrI26ClientboundAwardStatPacketED2Ev = 0xca86c
_ZNSt3__110shared_ptrI26ClientboundAwardStatPacketEC2IS1_EERKNS_8weak_ptrIT_EENS_9enable_ifIXsr14is_convertibleIPS5_PS1_EE5valueENS2_5__natEE4typeE = 0xca87c
_ZNSt3__18weak_ptrI33ClientboundChangeDifficultyPacketED2Ev = 0xcaae4
_ZNSt3__110shared_ptrI33ClientboundChangeDifficultyPacketEC2IS1_EERKNS_8weak_ptrIT_EENS_9enable_ifIXsr14is_convertibleIPS5_PS1_EE5valueENS2_5__natEE4typeE = 0xcaaf4
_ZNSt3__16vectorIiNS_9allocatorIiEEE21__push_back_slow_pathIRKiEEvOT_ = 0xcab34
_ZNSt3__110shared_ptrI31ClientboundContainerClosePacketEC2IS1_EERKNS_8weak_ptrIT_EENS_9enable_ifIXsr14is_convertibleIPS5_PS1_EE5valueENS2_5__natEE4typeE = 0xcad2c
_ZNSt3__110shared_ptrI25ClientboundCooldownPacketEC2IS1_EERKNS_8weak_ptrIT_EENS_9enable_ifIXsr14is_convertibleIPS5_PS1_EE5valueENS2_5__natEE4typeE = 0xcae8c
_ZN28ClientboundEntityEventPacketC1Ev = 0xcaf5c
_ZN28ClientboundEntityEventPacket4readEP15DataInputStream = 0xcaff8
_ZN28ClientboundEntityEventPacket5writeEP16DataOutputStream = 0xcb054
_ZN28ClientboundEntityEventPacket6handleEP14PacketListener = 0xcb0ac
_ZN28ClientboundEntityEventPacket16getEstimatedSizeEv = 0xcb10c
_ZN24ClientboundExplodePacketC1Ev = 0xcb12c
_ZN24ClientboundExplodePacket4readEP15DataInputStream = 0xcb42c
_ZN24ClientboundExplodePacket5writeEP16DataOutputStream = 0xcb5f0
_ZN24ClientboundExplodePacket6handleEP14PacketListener = 0xcb7b0
_ZN24ClientboundExplodePacket16getEstimatedSizeEv = 0xcb810
_ZN26ClientboundGameEventPacketC1Ev = 0xcb864
_ZN26ClientboundGameEventPacket4readEP15DataInputStream = 0xcb954
_ZN26ClientboundGameEventPacket5writeEP16DataOutputStream = 0xcb9b4
_ZN26ClientboundGameEventPacket6handleEP14PacketListener = 0xcba0c
_ZN26ClientboundGameEventPacket16getEstimatedSizeEv = 0xcba5c
_ZN26ClientboundKeepAlivePacketC1Ev = 0xcba7c
_ZN26ClientboundKeepAlivePacket6handleEP14PacketListener = 0xcbab4
_ZNSt3__110shared_ptrI26ClientboundKeepAlivePacketED2Ev = 0xcbb04
_ZN26ClientboundKeepAlivePacket4readEP15DataInputStream = 0xcbb14
_ZN26ClientboundKeepAlivePacket5writeEP16DataOutputStream = 0xcbb44
_ZN26ClientboundKeepAlivePacket16getEstimatedSizeEv = 0xcbb5c
_ZN26ClientboundKeepAlivePacket16canBeInvalidatedEv = 0xcbb64
_ZN26ClientboundKeepAlivePacket15isInvalidatedByENSt3__110shared_ptrI6PacketEE = 0xcbb6c
_ZN26ClientboundKeepAlivePacket6isAyncEv = 0xcbb74
_ZN27ClientboundLevelEventPacketC1Ev = 0xcbb7c
_ZN27ClientboundLevelEventPacket4readEP15DataInputStream = 0xcbc54
_ZN15DataInputStream12readBlockPosEv = 0xcbcc4
_ZN27ClientboundLevelEventPacket5writeEP16DataOutputStream = 0xcbce8
_ZN16DataOutputStream13writeBlockPosERK8BlockPos = 0xcbd4c
_ZN27ClientboundLevelEventPacket6handleEP14PacketListener = 0xcbd88
_ZN27ClientboundLevelEventPacket16getEstimatedSizeEv = 0xcbde8
_ZN31ClientboundLevelParticlesPacketC1Ev = 0xcbec8
_ZN31ClientboundLevelParticlesPacketD2Ev = 0xcc118
_ZN31ClientboundLevelParticlesPacketD0Ev = 0xcc15c
_ZN31ClientboundLevelParticlesPacket4readEP15DataInputStream = 0xcc180
_ZN31ClientboundLevelParticlesPacket5writeEP16DataOutputStream = 0xcc360
_ZN31ClientboundLevelParticlesPacket6handleEP14PacketListener = 0xcc594
_ZN31ClientboundLevelParticlesPacket16getEstimatedSizeEv = 0xcc5f4
_ZN22ClientboundLoginPacketC1Ev = 0xcc5fc
_ZN22ClientboundLoginPacket4readEP15DataInputStream = 0xcca88
_ZN22ClientboundLoginPacket5writeEP16DataOutputStream = 0xccdf4
_ZN22ClientboundLoginPacket6handleEP14PacketListener = 0xcd0f0
_ZN22ClientboundLoginPacket16getEstimatedSizeEv = 0xcd150
_ZN28ClientboundMapItemDataPacketC1Ev = 0xcd1d0
_ZN28ClientboundMapItemDataPacketD2Ev = 0xcd358
_ZN28ClientboundMapItemDataPacketD0Ev = 0xcd3dc
_ZN28ClientboundMapItemDataPacket6handleEP14PacketListener = 0xcd400
_ZN28ClientboundMapItemDataPacket4readEP15DataInputStream = 0xcd460
_ZN15DataInputStream10readVarIntEv = 0xcd6f0
_ZN28ClientboundMapItemDataPacket5writeEP16DataOutputStream = 0xcd860
_ZN16DataOutputStream11writeVarIntEi = 0xcda68
_ZN39ClientboundMGPlayerSettingsUpdatePacketC1Ev = 0xce77c
_ZN39ClientboundMGPlayerSettingsUpdatePacket4readEP15DataInputStream = 0xce800
_ZN39ClientboundMGPlayerSettingsUpdatePacket5writeEP16DataOutputStream = 0xceb84
_ZN39ClientboundMGPlayerSettingsUpdatePacket6handleEP14PacketListener = 0xcef04
_ZN39ClientboundMGPlayerSettingsUpdatePacket16getEstimatedSizeEv = 0xcef64
_ZN27ClientboundMoveEntityPacketC1Ev = 0xcef74
_ZN27ClientboundMoveEntityPacket4readEP15DataInputStream = 0xcf004
_ZN27ClientboundMoveEntityPacket5writeEP16DataOutputStream = 0xcf038
_ZN27ClientboundMoveEntityPacket6handleEP14PacketListener = 0xcf078
_ZN27ClientboundMoveEntityPacket16getEstimatedSizeEv = 0xcf0d8
_ZN27ClientboundMoveEntityPacket16canBeInvalidatedEv = 0xcf0e0
_ZN27ClientboundMoveEntityPacket15isInvalidatedByESt10shared_ptrI6PacketE = 0xcf0e8
_ZN27ClientboundMoveEntityPacket6PosRotC1Ev = 0xcf1c8
_ZN27ClientboundMoveEntityPacket6PosRot4readEP15DataInputStream = 0xcf27c
_ZN27ClientboundMoveEntityPacket6PosRot5writeEP16DataOutputStream = 0xcf33c
_ZN27ClientboundMoveEntityPacket6PosRot16getEstimatedSizeEv = 0xcf3f0
_ZN27ClientboundMoveEntityPacket3PosC1Ev = 0xcf3f8
_ZN27ClientboundMoveEntityPacket3Pos4readEP15DataInputStream = 0xcf484
_ZN27ClientboundMoveEntityPacket3Pos5writeEP16DataOutputStream = 0xcf51c
_ZN27ClientboundMoveEntityPacket3Pos16getEstimatedSizeEv = 0xcf5a8
_ZN27ClientboundMoveEntityPacket3RotC1Ev = 0xcf5b0
_ZN27ClientboundMoveEntityPacket3Rot4readEP15DataInputStream = 0xcf640
_ZN27ClientboundMoveEntityPacket3Rot5writeEP16DataOutputStream = 0xcf6a4
_ZN27ClientboundMoveEntityPacket3Rot16getEstimatedSizeEv = 0xcf700
_ZN28ClientboundMoveVehiclePacketC1Ev = 0xcf708
_ZN28ClientboundMoveVehiclePacket4readEP15DataInputStream = 0xcf7b0
_ZN28ClientboundMoveVehiclePacket5writeEP16DataOutputStream = 0xcf834
_ZN28ClientboundMoveVehiclePacket6handleEP14PacketListener = 0xcf8b4
_ZN31ClientboundOpenSignEditorPacketC1Ev = 0xcf93c
_ZN31ClientboundOpenSignEditorPacketD2Ev = 0xcf974
_ZN31ClientboundOpenSignEditorPacketD0Ev = 0xcf99c
_ZN31ClientboundOpenSignEditorPacket6handleEP14PacketListener = 0xcfa10
_ZNSt3__110shared_ptrI31ClientboundOpenSignEditorPacketED2Ev = 0xcfa60
_ZN31ClientboundOpenSignEditorPacket4readEP15DataInputStream = 0xcfa70
_ZN31ClientboundOpenSignEditorPacket5writeEP16DataOutputStream = 0xcfa9c
_ZN32ClientboundPlayerAbilitiesPacketC1Ev = 0xcfabc
_ZN32ClientboundPlayerAbilitiesPacketC1EP9Abilitiesi = 0xcfb08
_ZN32ClientboundPlayerAbilitiesPacket15setInvulnerableEb = 0xcfbac
_ZN32ClientboundPlayerAbilitiesPacket9setFlyingEb = 0xcfbb8
_ZN32ClientboundPlayerAbilitiesPacket9setCanFlyEb = 0xcfbc4
_ZN32ClientboundPlayerAbilitiesPacket13setInstabuildEb = 0xcfbd0
_ZN32ClientboundPlayerAbilitiesPacket14setFlyingSpeedEf = 0xcfbdc
_ZN32ClientboundPlayerAbilitiesPacket15setWalkingSpeedEf = 0xcfbe4
_ZN32ClientboundPlayerAbilitiesPacket11setCanBuildEb = 0xcfbec
_ZN32ClientboundPlayerAbilitiesPacket4readEP15DataInputStream = 0xcfbf8
_ZN32ClientboundPlayerAbilitiesPacket5writeEP16DataOutputStream = 0xcfcb4
_ZN32ClientboundPlayerAbilitiesPacket14isInvulnerableEv = 0xcfd84
_ZN32ClientboundPlayerAbilitiesPacket8isFlyingEv = 0xcfd8c
_ZN32ClientboundPlayerAbilitiesPacket6canFlyEv = 0xcfd94
_ZN32ClientboundPlayerAbilitiesPacket13canInstabuildEv = 0xcfd9c
_ZN32ClientboundPlayerAbilitiesPacket8canBuildEv = 0xcfda4
_ZN32ClientboundPlayerAbilitiesPacket6handleEP14PacketListener = 0xcfdac
_ZNSt3__110shared_ptrI32ClientboundPlayerAbilitiesPacketED2Ev = 0xcfdfc
_ZN32ClientboundPlayerAbilitiesPacket16getEstimatedSizeEv = 0xcfe0c
_ZN32ClientboundPlayerAbilitiesPacket14getFlyingSpeedEv = 0xcfe14
_ZN32ClientboundPlayerAbilitiesPacket15getWalkingSpeedEv = 0xcfe1c
_ZN32ClientboundPlayerAbilitiesPacket16canBeInvalidatedEv = 0xcfe24
_ZN32ClientboundPlayerAbilitiesPacket15isInvalidatedByENSt3__110shared_ptrI6PacketEE = 0xcfe2c
_ZN32ClientboundPlayerAbilitiesPacket11getPlayerIdEv = 0xcfe34
_ZN29ClientboundPlayerCombatPacketC1Ev = 0xcfe3c
_ZN29ClientboundPlayerCombatPacketD2Ev = 0xcfe78
_ZN29ClientboundPlayerCombatPacketD0Ev = 0xcfebc
_ZN29ClientboundPlayerCombatPacket6handleEP14PacketListener = 0xd03fc
_ZNSt3__110shared_ptrI29ClientboundPlayerCombatPacketED2Ev = 0xd044c
_ZN29ClientboundPlayerCombatPacket4readEP15DataInputStream = 0xd045c
_ZN29ClientboundPlayerCombatPacket5writeEP16DataOutputStream = 0xd0568
_GLOBAL__sub_I_WeaponCategory.cpp = 0xd3a48
_ZN11BowCategoryC2Ev = 0xd3b28
_ZN31ClientboundPlayerPositionPacketC1Ev = 0xd48f8
_ZN31ClientboundPlayerPositionPacketD2Ev = 0xd494c
_ZN31ClientboundPlayerPositionPacketD0Ev = 0xd4990
_ZN31ClientboundPlayerPositionPacket6handleEP14PacketListener = 0xd4ac4
_ZN31ClientboundPlayerPositionPacket4readEP15DataInputStream = 0xd4b24
_ZN31ClientboundPlayerPositionPacket5writeEP16DataOutputStream = 0xd4bd0
_ZN28ClientboundPlayerSleepPacketC1Ev = 0xd4cb8
_ZN28ClientboundPlayerSleepPacketD2Ev = 0xd4d18
_ZN28ClientboundPlayerSleepPacketD0Ev = 0xd4d40
_ZN28ClientboundPlayerSleepPacketC1ENSt3__110shared_ptrI6PlayerEERK8BlockPos = 0xd4d64
_ZN28ClientboundPlayerSleepPacket6handleEP14PacketListener = 0xd4dcc
_ZNSt3__110shared_ptrI28ClientboundPlayerSleepPacketED2Ev = 0xd4e1c
_ZN28ClientboundPlayerSleepPacket4readEP15DataInputStream = 0xd4e2c
_ZN28ClientboundPlayerSleepPacket5writeEP16DataOutputStream = 0xd4e68
_ZN28ClientboundPlayerSleepPacket6getPosEv = 0xd4e9c
_ZN28ClientboundPlayerSleepPacket11getPlayerIdEv = 0xd4eac
_ZN24ClientboundPowerupPacketC1Ev = 0xd4eb4
_ZN24ClientboundPowerupPacket4readEP15DataInputStream = 0xd4f38
_ZN24ClientboundPowerupPacket5writeEP16DataOutputStream = 0xd4f80
_ZN24ClientboundPowerupPacket6handleEP14PacketListener = 0xd4fc4
_ZN24ClientboundPowerupPacket16getEstimatedSizeEv = 0xd5024
_ZN25ClientboundPreLoginPacketC1Ev = 0xd503c
_ZN25ClientboundPreLoginPacketD2Ev = 0xd51a8
_ZN25ClientboundPreLoginPacketD0Ev = 0xd51f4
_ZN25ClientboundPreLoginPacket4readEP15DataInputStream = 0xd5218
_ZN25ClientboundPreLoginPacket5writeEP16DataOutputStream = 0xd5540
_ZN25ClientboundPreLoginPacket6handleEP14PacketListener = 0xd57a4
_ZN25ClientboundPreLoginPacket16getEstimatedSizeEv = 0xd5804
_ZN25ClientboundPreLoginPacket6createEv = 0xd5824
_ZN25ClientboundPreLoginPacket11getPacketIdEv = 0xd5934
_ZN31ClientboundRemoveEntitiesPacketC1Ev = 0xd593c
_ZN31ClientboundRemoveEntitiesPacketD2Ev = 0xd5a4c
_ZN31ClientboundRemoveEntitiesPacketD0Ev = 0xd5a94
_ZN31ClientboundRemoveEntitiesPacket4readEP15DataInputStream = 0xd5ab8
_ZN31ClientboundRemoveEntitiesPacket5writeEP16DataOutputStream = 0xd5b5c
_ZN31ClientboundRemoveEntitiesPacket6handleEP14PacketListener = 0xd5bd8
_ZN31ClientboundRemoveEntitiesPacket16getEstimatedSizeEv = 0xd5c38
_ZN32ClientboundRemoveMobEffectPacketC1Ev = 0xd5c48
_ZN32ClientboundRemoveMobEffectPacket4readEP15DataInputStream = 0xd5cc8
_ZN32ClientboundRemoveMobEffectPacket5writeEP16DataOutputStream = 0xd5d10
_ZN32ClientboundRemoveMobEffectPacket6handleEP14PacketListener = 0xd5d64
_ZN32ClientboundRemoveMobEffectPacket16getEstimatedSizeEv = 0xd5dc4
_ZN29ClientboundResourcePackPacketC1Ev = 0xd5dec
_ZN29ClientboundResourcePackPacketD2Ev = 0xd5e4c
_ZN29ClientboundResourcePackPacketD0Ev = 0xd5e98
_ZN29ClientboundResourcePackPacket6handleEP14PacketListener = 0xd5ebc
_ZN29ClientboundResourcePackPacket4readEP15DataInputStream = 0xd5f1c
_ZN29ClientboundResourcePackPacket5writeEP16DataOutputStream = 0xd6044
_ZN24ClientboundRespawnPacketC1Ev = 0xd6074
_ZN24ClientboundRespawnPacket6handleEP14PacketListener = 0xd632c
_ZN24ClientboundRespawnPacket4readEP15DataInputStream = 0xd638c
_ZN10Difficulty4byIdEi = 0xd65a4
_ZN24ClientboundRespawnPacket5writeEP16DataOutputStream = 0xd65c8
_ZNK10Difficulty5getIdEv = 0xd67f0
_ZN24ClientboundRespawnPacket16getEstimatedSizeEv = 0xd67f8
_ZN27ClientboundRotateHeadPacketC1Ev = 0xd6894
_ZN27ClientboundRotateHeadPacket4readEP15DataInputStream = 0xd691c
_ZN27ClientboundRotateHeadPacket5writeEP16DataOutputStream = 0xd695c
_ZN27ClientboundRotateHeadPacket6handleEP14PacketListener = 0xd6998
_ZN27ClientboundRotateHeadPacket16getEstimatedSizeEv = 0xd69f8
_ZN27ClientboundRotateHeadPacket16canBeInvalidatedEv = 0xd6a00
_ZN27ClientboundRotateHeadPacket15isInvalidatedByESt10shared_ptrI6PacketE = 0xd6a08
_ZN27ClientboundRotateHeadPacket6isAyncEv = 0xd6a88
_ZN26ClientboundSetBorderPacketC1Ev = 0xd6aa0
_ZN26ClientboundSetBorderPacketD2Ev = 0xd6ad4
_ZN26ClientboundSetBorderPacketD0Ev = 0xd6afc
_ZN26ClientboundSetBorderPacket4readEP15DataInputStream = 0xd6b20
_ZN15DataInputStream11readVarLongEv = 0xd6c80
_ZN26ClientboundSetBorderPacket5writeEP16DataOutputStream = 0xd6cfc
_ZN16DataOutputStream12writeVarLongEl = 0xd6e58
_ZN26ClientboundSetBorderPacket6handleEP14PacketListener = 0xd6ed4
_ZNSt3__110shared_ptrI26ClientboundSetBorderPacketED2Ev = 0xd6f24
_ZN26ClientboundSetCameraPacketC1Ev = 0xd702c
_ZN26ClientboundSetCameraPacketD2Ev = 0xd7064
_ZN26ClientboundSetCameraPacketD0Ev = 0xd708c
_ZN26ClientboundSetCameraPacket6handleEP14PacketListener = 0xd70b0
_ZN26ClientboundSetCameraPacket4readEP15DataInputStream = 0xd7110
_ZN26ClientboundSetCameraPacket5writeEP16DataOutputStream = 0xd7138
_ZN31ClientboundSetCarriedItemPacketC1Ev = 0xd7150
_ZN31ClientboundSetCarriedItemPacket4readEP15DataInputStream = 0xd71c4
_ZN31ClientboundSetCarriedItemPacket5writeEP16DataOutputStream = 0xd71f8
_ZN31ClientboundSetCarriedItemPacket6handleEP14PacketListener = 0xd7210
_ZNSt3__110shared_ptrI31ClientboundSetCarriedItemPacketED2Ev = 0xd7260
_ZN31ClientboundSetCarriedItemPacket16getEstimatedSizeEv = 0xd7270
_ZN31ClientboundSetCarriedItemPacket16canBeInvalidatedEv = 0xd7278
_ZN31ClientboundSetCarriedItemPacket15isInvalidatedByESt10shared_ptrI6PacketE = 0xd7280
_ZN30ClientboundSetEntityDataPacketC1Ev = 0xd7290
_ZN30ClientboundSetEntityDataPacketD2Ev = 0xd72d4
_ZN30ClientboundSetEntityDataPacketD0Ev = 0xd7384
_ZN30ClientboundSetEntityDataPacket4readEP15DataInputStream = 0xd748c
_ZN30ClientboundSetEntityDataPacket5writeEP16DataOutputStream = 0xd74d8
_ZN30ClientboundSetEntityDataPacket6handleEP14PacketListener = 0xd7520
_ZN30ClientboundSetEntityDataPacket16getEstimatedSizeEv = 0xd7580
_ZN30ClientboundSetEntityLinkPacketC1Ev = 0xd75a0
_ZN30ClientboundSetEntityLinkPacket16getEstimatedSizeEv = 0xd7644
_ZN30ClientboundSetEntityLinkPacket4readEP15DataInputStream = 0xd764c
_ZN30ClientboundSetEntityLinkPacket5writeEP16DataOutputStream = 0xd7694
_ZN30ClientboundSetEntityLinkPacket6handleEP14PacketListener = 0xd76d8
_ZN30ClientboundSetEntityLinkPacket16canBeInvalidatedEv = 0xd7738
_ZN30ClientboundSetEntityLinkPacket15isInvalidatedByESt10shared_ptrI6PacketE = 0xd7740
_ZN32ClientboundSetEntityMotionPacketC1Ev = 0xd7868
_ZN32ClientboundSetEntityMotionPacket4readEP15DataInputStream = 0xd796c
_ZN32ClientboundSetEntityMotionPacket5writeEP16DataOutputStream = 0xd7a5c
_ZN32ClientboundSetEntityMotionPacket6handleEP14PacketListener = 0xd7b44
_ZN32ClientboundSetEntityMotionPacket16getEstimatedSizeEv = 0xd7ba4
_ZN32ClientboundSetEntityMotionPacket16canBeInvalidatedEv = 0xd7bbc
_ZN32ClientboundSetEntityMotionPacket15isInvalidatedByESt10shared_ptrI6PacketE = 0xd7bc4
_ZN32ClientboundSetEquippedItemPacketC1Ev = 0xd7c64
_ZN32ClientboundSetEquippedItemPacket4readEP15DataInputStream = 0xd7d64
_ZN32ClientboundSetEquippedItemPacket5writeEP16DataOutputStream = 0xd7ec4
_ZN32ClientboundSetEquippedItemPacket6handleEP14PacketListener = 0xd7ff8
_ZN32ClientboundSetEquippedItemPacket16getEstimatedSizeEv = 0xd8058
_ZN32ClientboundSetEquippedItemPacket16canBeInvalidatedEv = 0xd806c
_ZN32ClientboundSetEquippedItemPacket15isInvalidatedByESt10shared_ptrI6PacketE = 0xd8074
_ZN30ClientboundSetExperiencePacketC1Ev = 0xd811c
_ZN30ClientboundSetExperiencePacket4readEP15DataInputStream = 0xd81b0
_ZN30ClientboundSetExperiencePacket5writeEP16DataOutputStream = 0xd81fc
_ZN30ClientboundSetExperiencePacket6handleEP14PacketListener = 0xd8244
_ZN30ClientboundSetExperiencePacket16getEstimatedSizeEv = 0xd82a4
_ZN30ClientboundSetExperiencePacket16canBeInvalidatedEv = 0xd82ac
_ZN30ClientboundSetExperiencePacket15isInvalidatedByESt10shared_ptrI6PacketE = 0xd82b4
_ZN26ClientboundSetHealthPacketC1Ev = 0xd82d4
_ZN26ClientboundSetHealthPacket4readEP15DataInputStream = 0xd8384
_ZN26ClientboundSetHealthPacket5writeEP16DataOutputStream = 0xd8408
_ZN26ClientboundSetHealthPacket6handleEP14PacketListener = 0xd8484
_ZN26ClientboundSetHealthPacket16getEstimatedSizeEv = 0xd84e4
_ZN26ClientboundSetHealthPacket16canBeInvalidatedEv = 0xd84ec
_ZN26ClientboundSetHealthPacket15isInvalidatedByESt10shared_ptrI6PacketE = 0xd84f4
_ZN30ClientboundSetPassengersPacketC1Ev = 0xd8514
_ZN30ClientboundSetPassengersPacketD2Ev = 0xd854c
_ZN30ClientboundSetPassengersPacketD0Ev = 0xd8590
_ZN30ClientboundSetPassengersPacket4readEP15DataInputStream = 0xd8750
_ZN30ClientboundSetPassengersPacket5writeEP16DataOutputStream = 0xd882c
_ZN30ClientboundSetPassengersPacket6handleEP14PacketListener = 0xd88c4
_ZN30ClientboundSetPlayerTeamPacketC1Ev = 0xd8938
_ZN30ClientboundSetPlayerTeamPacket4readEP15DataInputStream = 0xd8f04
_ZN30ClientboundSetPlayerTeamPacket5writeEP16DataOutputStream = 0xd90a8
_ZN30ClientboundSetPlayerTeamPacket6handleEP14PacketListener = 0xd91b0
_ZN30ClientboundSetPlayerTeamPacket16getEstimatedSizeEv = 0xd9210
_ZN33ClientboundSetSpawnPositionPacketC1Ev = 0xd925c
_ZN33ClientboundSetSpawnPositionPacketC1Eiii = 0xd92b8
_ZN33ClientboundSetSpawnPositionPacketC1ERK8BlockPos = 0xd9334
_ZN33ClientboundSetSpawnPositionPacket4readEP15DataInputStream = 0xd9384
_ZN33ClientboundSetSpawnPositionPacket5writeEP16DataOutputStream = 0xd93b0
_ZN33ClientboundSetSpawnPositionPacket6handleEP14PacketListener = 0xd93c0
_ZNSt3__110shared_ptrI33ClientboundSetSpawnPositionPacketED2Ev = 0xd9410
_ZN33ClientboundSetSpawnPositionPacket16getEstimatedSizeEv = 0xd9420
_ZN33ClientboundSetSpawnPositionPacket16canBeInvalidatedEv = 0xd9428
_ZN33ClientboundSetSpawnPositionPacket15isInvalidatedByENSt3__110shared_ptrI6PacketEE = 0xd9430
_ZN33ClientboundSetSpawnPositionPacket6isAyncEv = 0xd9438
_ZN24ClientboundSetTimePacketC1Ev = 0xd9440
_ZN24ClientboundSetTimePacketC1Exxb = 0xd9478
_ZN24ClientboundSetTimePacket4readEP15DataInputStream = 0xd94c0
_ZN24ClientboundSetTimePacket5writeEP16DataOutputStream = 0xd9508
_ZN24ClientboundSetTimePacket6handleEP14PacketListener = 0xd954c
_ZNSt3__110shared_ptrI24ClientboundSetTimePacketED2Ev = 0xd959c
_ZN24ClientboundSetTimePacket16getEstimatedSizeEv = 0xd95ac
_ZN24ClientboundSetTimePacket16canBeInvalidatedEv = 0xd95b4
_ZN24ClientboundSetTimePacket15isInvalidatedByENSt3__110shared_ptrI6PacketEE = 0xd95bc
_ZN24ClientboundSetTimePacket6isAyncEv = 0xd95c4
_ZN24ClientboundSetTimePacket11getGameTimeEv = 0xd95cc
_ZN24ClientboundSetTimePacket10getDayTimeEv = 0xd95d4
_ZN26ClientboundSetTitlesPacketC1Ev = 0xd95dc
_ZN26ClientboundSetTitlesPacket4readEP15DataInputStream = 0xd9618
_ZN26ClientboundSetTitlesPacket5writeEP16DataOutputStream = 0xd9728
_ZN26ClientboundSetTitlesPacket6handleEP14PacketListener = 0xd97c4
_ZN22ClientboundSoundPacketC1Ev = 0xd9824
_ZN22ClientboundSoundPacket4readEP15DataInputStream = 0xd99fc
_ZN22ClientboundSoundPacket5writeEP16DataOutputStream = 0xd9b08
_ZN22ClientboundSoundPacket6handleEP14PacketListener = 0xd9c90
_ZN22ClientboundSoundPacket16getEstimatedSizeEv = 0xd9cf0
_ZN24ClientboundTabListPacketC1Ev = 0xd9cf8
_ZN24ClientboundTabListPacketD2Ev = 0xd9d38
_ZN24ClientboundTabListPacketD0Ev = 0xd9d84
_ZN24ClientboundTabListPacket4readEP15DataInputStream = 0xd9da8
_ZN24ClientboundTabListPacket5writeEP16DataOutputStream = 0xd9ed0
_ZN24ClientboundTabListPacket6handleEP14PacketListener = 0xd9f00
_ZN31ClientboundTakeItemEntityPacketC1Ev = 0xd9f04
_ZN31ClientboundTakeItemEntityPacket4readEP15DataInputStream = 0xd9f98
_ZN31ClientboundTakeItemEntityPacket5writeEP16DataOutputStream = 0xd9fdc
_ZN31ClientboundTakeItemEntityPacket6handleEP14PacketListener = 0xda01c
_ZN31ClientboundTakeItemEntityPacket16getEstimatedSizeEv = 0xda07c
_ZN31ClientboundTeleportEntityPacketC1Ev = 0xda09c
_ZN31ClientboundTeleportEntityPacket4readEP15DataInputStream = 0xda1bc
_ZN31ClientboundTeleportEntityPacket5writeEP16DataOutputStream = 0xda264
_ZN31ClientboundTeleportEntityPacket6handleEP14PacketListener = 0xda304
_ZN31ClientboundTeleportEntityPacket16getEstimatedSizeEv = 0xda364
_ZN31ClientboundTeleportEntityPacket16canBeInvalidatedEv = 0xda36c
_ZN31ClientboundTeleportEntityPacket15isInvalidatedByESt10shared_ptrI6PacketE = 0xda374
_ZN33ClientboundUpdateAttributesPacketC1Ev = 0xda42c
_ZN33ClientboundUpdateAttributesPacketD2Ev = 0xda778
_ZN33ClientboundUpdateAttributesPacketD0Ev = 0xda7f0
_ZN33ClientboundUpdateAttributesPacket4readEP15DataInputStream = 0xda814
_ZN33ClientboundUpdateAttributesPacket5writeEP16DataOutputStream = 0xdadd0
_ZN33ClientboundUpdateAttributesPacket6handleEP14PacketListener = 0xdaf20
_ZN33ClientboundUpdateAttributesPacket16getEstimatedSizeEv = 0xdaf80
_ZN32ClientboundUpdateMobEffectPacketC1Ev = 0xdb50c
_ZN32ClientboundUpdateMobEffectPacket4readEP15DataInputStream = 0xdb610
_ZN32ClientboundUpdateMobEffectPacket5writeEP16DataOutputStream = 0xdb684
_ZN32ClientboundUpdateMobEffectPacket25tryReplaceDuplicatePacketEPSt5dequeISt10shared_ptrI6PacketESt9allocatorISt10shared_ptrI6PacketEEE = 0xdb6f4
_ZN32ClientboundUpdateMobEffectPacket6handleEP14PacketListener = 0xdb708
_ZN32ClientboundUpdateMobEffectPacket16getEstimatedSizeEv = 0xdb768
_ZN32ClientboundUpdateMobEffectPacket16canBeInvalidatedEv = 0xdb770
_ZN32ClientboundUpdateMobEffectPacket15isInvalidatedByESt10shared_ptrI6PacketE = 0xdb778
_ZNK8DyeColor12getBlockDataEv = 0xdeac4
_ZN17BonemealableBlockC2Ev = 0xdec58
_ZN10CocoaBlock4tickEP5LevelRK8BlockPosPK10BlockStateP6Random = 0xdec6c
_ZN10CocoaBlock12isCubeShapedEPK10BlockState = 0xdee88
_ZNK10CocoaBlock13isSolidRenderEPK10BlockState = 0xdee90
_ZN10CocoaBlock8getShapeEPK10BlockStateP11LevelSourceRK8BlockPos = 0xdee98
_ZNK9Direction14get3DDataValueEv = 0xdef0c
_ZN10CocoaBlock6rotateEPK10BlockStateP8Rotation = 0xdef14
_ZN10CocoaBlock6mirrorEPK10BlockStateP6Mirror = 0xdef6c
_ZN10CocoaBlock11setPlacedByEP5LevelRK8BlockPosPK10BlockStateSt10shared_ptrI12LivingEntityE12not_null_ptrI12ItemInstanceE = 0xdefd4
_ZN10CocoaBlock20getStateForPlacementEP5LevelRK8BlockPosPK9DirectionfffiSt10shared_ptrI12LivingEntityE = 0xdf078
_ZNK9Direction7getAxisEv = 0xdf100
_ZN9Direction4Axis12isHorizontalEv = 0xdf108
_ZN10CocoaBlock15neighborChangedEPK10BlockStateP5LevelRK8BlockPosP5BlockRK8BlockPos = 0xdf12c
_ZN10CocoaBlock14spawnResourcesEP5LevelRK8BlockPosPK10BlockStatefi = 0xdf198
_ZN10CocoaBlock20getCloneItemInstanceEP5LevelRK8BlockPosPK10BlockState = 0xdf268
_ZN10CocoaBlock14getRenderLayerEv = 0xdf398
_ZN10CocoaBlock13getBlockStateEi = 0xdf3a0
_ZN9Direction15from2DDataValueEi = 0xdf400
_ZN10CocoaBlock29convertBlockStateToLegacyDataEPK10BlockState = 0xdf434
_ZN10CocoaBlock18GetInteractTooltipERK22BlockTooltipDataHolder = 0xdf48c
_ZN10CocoaBlock26createBlockStateDefinitionEv = 0xdf518
_ZN10CocoaBlock17getBlockFaceShapeEP11LevelSourcePK10BlockStateRK8BlockPosPK9Direction = 0xdf5a0
_ZN10CocoaBlock10getTextureEPK9DirectionPK10BlockState = 0xdf5a8
_ZN10CocoaBlock13registerIconsEP12IconRegister = 0xdf5c8
_ZN10CocoaBlock14getRenderShapeEPK10BlockState = 0xdf640
_ZN12ColoredBlock15blockStaticCtorEv = 0xdf668
_ZN24StainedHardenedClayBlock25getSpawnResourcesAuxValueEPK10BlockState = 0xdfa64
_ZN12ColoredBlock11getMapColorEPK10BlockStateP11LevelSourceRK8BlockPos = 0xdfa8c
_ZN24StainedHardenedClayBlock13getBlockStateEi = 0xdfab4
_ZN24StainedHardenedClayBlock29convertBlockStateToLegacyDataEPK10BlockState = 0xdfb1c
_ZN24StainedHardenedClayBlock26createBlockStateDefinitionEv = 0xdfb44
_ZN24StainedHardenedClayBlock10getTextureEPK9DirectionPK10BlockState = 0xdfbb8
_ZN24StainedHardenedClayBlock13registerIconsEP12IconRegister = 0xdfbf4
_ZN11CompoundTag10putBooleanERKNSt3__112basic_stringIwNS0_11char_traitsIwEENS0_9allocatorIwEEEEb = 0xe1370
_ZN11CompoundTag10getBooleanERKNSt3__112basic_stringIwNS0_11char_traitsIwEENS0_9allocatorIwEEEE = 0xe1494
_ZNK13DimensionType5getIdEv = 0xe15a4
_ZN11CompoundTag8containsERKSt12basic_stringIwSt11char_traitsIwESt9allocatorIwEE = 0xe1d60
_ZN11CompoundTag11getCompoundERKSt12basic_stringIwSt11char_traitsIwESt9allocatorIwEEi = 0xe1d80
_ZN11CompoundTag9getStringERKSt12basic_stringIwSt11char_traitsIwESt9allocatorIwEE = 0xe1e60
putString__11CompoundTagFRCQ2_3std78basic_string__tm__58_wQ2_3std20char_traits__tm__2_wQ2_3std18allocator__tm__2_wT1 = 0xe1ee8
_ZN11CompoundTag3putERKNSt3__112basic_stringIwNS0_11char_traitsIwEENS0_9allocatorIwEEEEP3Tag = 0xe1f4c
_ZN15ComparatorBlock15blockStaticCtorEv = 0xe29e8
_ZN15ComparatorBlock7getNameEv = 0xe2e54
_ZN15ComparatorBlock11getResourceEPK10BlockStateP6Randomi = 0xe2e98
_ZN15ComparatorBlock20getCloneItemInstanceEP5LevelRK8BlockPosPK10BlockState = 0xe2ea8
_ZN15ComparatorBlock3useEP5LevelRK8BlockPosPK10BlockStateSt10shared_ptrI6PlayerEN15InteractionHand16EInteractionHandEPK9Directionfffb = 0xe3730
_ZN15ComparatorBlock4tickEP5LevelRK8BlockPosPK10BlockStateP6Random = 0xe3c5c
_ZN15ComparatorBlock7onPlaceEP5LevelRK8BlockPosPK10BlockState = 0xe3cfc
_ZN13RepeaterBlock7onPlaceEP5LevelRK8BlockPosPK10BlockState = 0xe3d68
_ZN15ComparatorBlock8onRemoveEP5LevelRK8BlockPosPK10BlockState = 0xe3d74
_ZN15ComparatorBlock12triggerEventEPK10BlockStateP5LevelRK8BlockPosii = 0xe3dcc
_ZN15ComparatorBlock13getBlockStateEi = 0xe3fbc
_ZN15ComparatorBlock29convertBlockStateToLegacyDataEPK10BlockState = 0xe4048
_ZN15ComparatorBlock18GetInteractTooltipERK22BlockTooltipDataHolder = 0xe40cc
_ZN15ComparatorBlock6rotateEPK10BlockStateP8Rotation = 0xe40f4
_ZN15ComparatorBlock6mirrorEPK10BlockStateP6Mirror = 0xe414c
_ZN15ComparatorBlock26createBlockStateDefinitionEv = 0xe41b4
_ZN15ComparatorBlock20getStateForPlacementEP5LevelRK8BlockPosPK9DirectionfffiSt10shared_ptrI12LivingEntityE = 0xe4244
_ZN15ComparatorBlock14getRenderShapeEPK10BlockState = 0xe42cc
_ZN15ComparatorBlock7TestUseEv = 0xe42d4
_ZN15ComparatorBlock10getTextureEPK9DirectionPK10BlockState = 0xe4338
_ZN11CompoundTag6putIntERKNSt3__112basic_stringIwNS0_11char_traitsIwEENS0_9allocatorIwEEEEi = 0xe4458
_ZN11CompoundTag6getIntERKSt12basic_stringIwSt11char_traitsIwESt9allocatorIwEE = 0xe4530
_ZN11CompoundTagC1Ev = 0xe5a44
_ZN11CompoundTagD1Ev = 0xe5a84
_ZN11CompoundTagD0Ev = 0xe5b60
_ZN11CompoundTag5writeEP10DataOutput = 0xe5b84
_ZN11CompoundTag4loadEP9DataInputi = 0xe5c6c
_ZN11CompoundTag5getIdEv = 0xe60f8
_ZN11CompoundTag3getERKNSt3__112basic_stringIwNS0_11char_traitsIwEENS0_9allocatorIwEEEE = 0xe6108
_ZN11CompoundTag7putByteERKNSt3__112basic_stringIwNS0_11char_traitsIwEENS0_9allocatorIwEEEEh = 0xe6140
_ZN11CompoundTag8containsERKSt12basic_stringIwSt11char_traitsIwESt9allocatorIwEEi = 0xe6460
_ZN11CompoundTag7getByteERKSt12basic_stringIwSt11char_traitsIwESt9allocatorIwEE = 0xe64a8
_ZN11CompoundTag8getShortERKSt12basic_stringIwSt11char_traitsIwESt9allocatorIwEE = 0xe64fc
_ZN11CompoundTag8getFloatERKSt12basic_stringIwSt11char_traitsIwESt9allocatorIwEE = 0xe65a4
_ZN11CompoundTag7getListERKSt12basic_stringIwSt11char_traitsIwESt9allocatorIwEEi = 0xe6764
_ZNK11CompoundTag16fjSafeGetListTagERKSt12basic_stringIwSt11char_traitsIwESt9allocatorIwEEi = 0xe67ec
_ZN11CompoundTag18stripEmptyChildrenEv = 0xe68d0
_ZN11CompoundTag8toStringEv = 0xe6958
_ZN11CompoundTag5printERKNSt3__112basic_stringIwNS0_11char_traitsIwEENS0_9allocatorIwEEEEPcRNS0_13basic_ostreamIwS3_EE = 0xe6968
_ZNK11CompoundTag7isEmptyEv = 0xe696c
_ZN11CompoundTag4copyEv = 0xe697c
_ZN11CompoundTag6equalsEP3Tag = 0xe6a2c
isRenderChunkEmpty__22CompressedBlockStorageFi = 0xe712c
_ZN22CompressedBlockStorage3getEiii = 0xe79e8
_ZN22CompressedBlockStorage10staticCtorEv = 0xe87e4
_ZN22CompressedBlockStorage4tickEv = 0xe8898
_ZN19ConcretePowderBlock15blockStaticCtorEv = 0xe8b18
_ZN19ConcretePowderBlock15neighborChangedEPK10BlockStateP5LevelRK8BlockPosP5BlockRK8BlockPos = 0xe8e18
_ZN19ConcretePowderBlock7onPlaceEP5LevelRK8BlockPosPK10BlockState = 0xe8e98
_ZN19ConcretePowderBlock25getSpawnResourcesAuxValueEPK10BlockState = 0xe8ef0
_ZN19ConcretePowderBlock11getMapColorEPK10BlockStateP11LevelSourceRK8BlockPos = 0xe8f18
_ZN19ConcretePowderBlock13getBlockStateEi = 0xe8f40
_ZN19ConcretePowderBlock29convertBlockStateToLegacyDataEPK10BlockState = 0xe8f8c
_ZN19ConcretePowderBlock26createBlockStateDefinitionEv = 0xe8fb4
_ZN19ConcretePowderBlock10getTextureEPK9DirectionPK10BlockState = 0xe9028
_ZN19ConcretePowderBlock13registerIconsEP12IconRegister = 0xe9064
_ZN10Connection16getAndSetRunningEb = 0xe9190
_ZN10Connection5_initEv = 0xe91d8
_ZN10ConnectionD1Ev = 0xe923c
_ZN16DataOutputStream17deleteChildStreamEv = 0xe9394
_ZNSt3__112__deque_baseINS_10shared_ptrI6PacketEENS_9allocatorIS3_EEED2Ev = 0xe93ac
_ZN10ConnectionC1EP6SocketRKNSt3__112basic_stringIwNS2_11char_traitsIwEENS2_9allocatorIwEEEEP14PacketListener = 0xe93f8
_ZN10Connection7runReadEPv = 0xe9654
_ZN10Connection8runWriteEPv = 0xe9710
_ZN10Connection11setListenerEP14PacketListener = 0xe9850
_ZN10Connection4sendENSt3__110shared_ptrI6PacketEE = 0xe9858
_ZNSt3__15dequeINS_10shared_ptrI6PacketEENS_9allocatorIS3_EEE9push_backERKS3_ = 0xe993c
_ZN10Connection9queueSendENSt3__110shared_ptrI6PacketEE = 0xe99b4
_ZN10Connection9writeTickEv = 0xe9a30
_ZNSt3__15dequeINS_10shared_ptrI6PacketEENS_9allocatorIS3_EEE9pop_frontEv = 0xe9e08
_ZN21ByteArrayOutputStream4sizeEv = 0xe9e7c
_ZN21ByteArrayOutputStream5clearEv = 0xe9e84
_ZN10Connection5flushEv = 0xe9e8c
_ZN10Connection8readTickEv = 0xe9ec4
_ZN10Connection5closeEN16DisconnectPacket17eDisconnectReasonE = 0xe9fb8
_ZN10Connection4tickEv = 0xea0d4
_ZNSt3__110shared_ptrI6PacketEC2I26ClientboundKeepAlivePacketEEPT_NS_9enable_ifIXsr14is_convertibleIS6_PS1_EE5valueENS2_5__natEE4typeE = 0xea430
_ZNSt3__110shared_ptrI6PacketEC2I26ServerboundKeepAlivePacketEEPT_NS_9enable_ifIXsr14is_convertibleIS6_PS1_EE5valueENS2_5__natEE4typeE = 0xea508
_ZNSt3__15dequeINS_10shared_ptrI6PacketEENS_9allocatorIS3_EEE10push_frontERKS3_ = 0xea5f0
_ZN10Connection11sendAndQuitEv = 0xea688
_ZNK16DataOutputStream7getSizeEv = 0xea6d8
_ZN21ConsoleSaveFileCommonC1Ev = 0xea6e0
_ZN15ConsoleSaveFileC1Ev = 0xea738
_ZN21ConsoleSaveFileCommonD1Ev = 0xea74c
_ZN21ConsoleSaveFileCommonD0Ev = 0xea798
_initSaveFromData__21ConsoleSaveFileCommonFRCQ2_3std78basic_string__tm__58_wQ2_3std20char_traits__tm__2_wQ2_3std18allocator__tm__2_wUiPv13ESavePlatform = 0xea7bc
_deleteFile__21ConsoleSaveFileCommonFP9FileEntry = 0xea9a8
_writeFile__21ConsoleSaveFileCommonFP9FileEntryPCvUiPUi = 0xeaac4
PrepareForWrite__21ConsoleSaveFileCommonFP9FileEntryUi = 0xeab74
currentRealTimeMillis__6SystemSFv = 0xeac20
_zeroFile__21ConsoleSaveFileCommonFP9FileEntryUiPUi = 0xeac44
_readFile__21ConsoleSaveFileCommonFP9FileEntryPvUiPUi = 0xeace8
_ZN21ConsoleSaveFileCommon11closeHandleEP9FileEntry = 0xead98
_ZN21ConsoleSaveFileCommon13finalizeWriteEv = 0xeade4
MoveDataBeyond__21ConsoleSaveFileCommonFP9FileEntryUi = 0xeae24
_ZN21ConsoleSaveFileCommon13doesFileExistE15ConsoleSavePath = 0xeafa4
_ZN21ConsoleSaveFileCommon13getSizeOnDiskEv = 0xeb02c
_ZN21ConsoleSaveFileCommon11getFilenameEv = 0xeb034
_ZN21ConsoleSaveFileCommon18getFilesWithPrefixERKNSt3__112basic_stringIwNS0_11char_traitsIwEENS0_9allocatorIwEEEE = 0xeb040
_ZN21ConsoleSaveFileCommon4unk1Ev = 0xeb048
_ZN21ConsoleSaveFileCommon4unk2Ev = 0xeb050
_ZN21ConsoleSaveFileCommon4unk3Ev = 0xeb058
_ZN21ConsoleSaveFileCommon14getSaveVersionEv = 0xeb060
_ZN21ConsoleSaveFileCommon22getOriginalSaveVersionEv = 0xeb070
_ZN21ConsoleSaveFileCommon14LockSaveAccessEv = 0xeb080
_ZN21ConsoleSaveFileCommon17ReleaseSaveAccessEv = 0xeb088
_ZN21ConsoleSaveFileCommon15getSavePlatformEv = 0xeb090
_ZN21ConsoleSaveFileCommon21isSaveEndianDifferentEv = 0xeb0a0
_ZN21ConsoleSaveFileCommon16setLocalPlatformEv = 0xeb0b8
_ZN21ConsoleSaveFileCommon11setPlatformE13ESavePlatform = 0xeb0d4
_ZN21ConsoleSaveFileCommon13getSaveEndianEv = 0xeb0e4
_ZN21ConsoleSaveFileCommon14getLocalEndianEv = 0xeb0f4
_ZN21ConsoleSaveFileCommon9setEndianE9ByteOrder = 0xeb100
_ZN21ConsoleSaveFileCommon22isLocalEndianDifferentE13ESavePlatform = 0xeb110
_ZN21ConsoleSaveFileCommon17ConvertRegionFileE4File = 0xeb14c
deleteChildStream__15DataInputStreamFv = 0xeb294
_ZN21ConsoleSaveFileCommon22ConvertToLocalPlatformEv = 0xeb2ac
_ZN4FileD1Ev = 0xeb438
fjGetSaveThumbnailData__21ConsoleSaveFileCommonFPUcUi = 0xeb43c
_ZN21ConsoleSaveFileCommon15fjHasRegionFileERK4File = 0xeb518
ConvertSave__24ConsoleSaveFileConverterSFP15ConsoleSaveFileT1P16ProgressListener = 0xeb610
ProcessSimpleFile__24ConsoleSaveFileConverterSFP15ConsoleSaveFileP9FileEntryT1T2 = 0xec348
_ZN26ConsoleSaveFileInputStreamC2EP15ConsoleSaveFileRK15ConsoleSavePath = 0xec3e0
_ZN26ConsoleSaveFileInputStreamC2EP15ConsoleSaveFileP9FileEntry = 0xec458
vtbl_710103AB98_func_2 = 0xec4b8
vtbl_710103AB98_func_3 = 0xec508
vtbl_710103AB98_func_4 = 0xec560
vtbl_710103AB98_func_5 = 0xec5d8
__ct__23ConsoleSaveFileOriginalFRCQ2_3std78basic_string__tm__58_wQ2_3std20char_traits__tm__2_wQ2_3std18allocator__tm__2_wPvUib13ESavePlatform = 0xec610
_ZN23ConsoleSaveFileOriginalD1Ev = 0xec754
_ZN23ConsoleSaveFileOriginalD0Ev = 0xec7a8
_ZN23ConsoleSaveFileOriginal19refreshFromLevelgenEv = 0xec7cc
_ZN23ConsoleSaveFileOriginal17AllocInitialQuotaEj = 0xec89c
_ZN23ConsoleSaveFileOriginal7ReAllocEj = 0xec8f4
_ZN23ConsoleSaveFileOriginal10createFileERK15ConsoleSavePath = 0xec958
_ZN23ConsoleSaveFileOriginal10deleteFileEP9FileEntry = 0xec9f0
_ZN23ConsoleSaveFileOriginal14setFilePointerEP9FileEntrylPij = 0xec9f4
_ZN23ConsoleSaveFileOriginal9writeFileEP9FileEntryPKvjPj = 0xeca64
_ZN23ConsoleSaveFileOriginal8zeroFileEP9FileEntryjPj = 0xeca68
_ZN23ConsoleSaveFileOriginal8readFileEP9FileEntryPvjPj = 0xeca6c
_ZN23ConsoleSaveFileOriginal5FlushEbb = 0xeca70
SaveSaveDataCallback__23ConsoleSaveFileOriginalSFPvb = 0xeccd0
_ZN23ConsoleSaveFileOriginal25getRegionFilesByDimensionEj = 0xeccd8
_ZN23ConsoleSaveFileOriginal15getWritePointerEP9FileEntry = 0xecce0
_ZN27ConsoleSaveFileOutputStreamC2EP15ConsoleSaveFileRK15ConsoleSavePath = 0xeccf0
_ZN27ConsoleSaveFileOutputStreamC2EP15ConsoleSaveFileP9FileEntry = 0xecd68
vtbl_710103AD28_func_2 = 0xecdc8
vtbl_710103AD28_func_3 = 0xece04
vtbl_710103AD28_func_4 = 0xece44
vtbl_710103AD28_func_5 = 0xecea4
__ct__23ConsoleSaveFileReadOnlyFRCQ2_3std78basic_string__tm__58_wQ2_3std20char_traits__tm__2_wQ2_3std18allocator__tm__2_wPvUib13ESavePlatform = 0xecedc
_ZN23ConsoleSaveFileReadOnlyD1Ev = 0xed020
_ZN23ConsoleSaveFileReadOnlyD0Ev = 0xed074
_ZN23ConsoleSaveFileReadOnly19refreshFromLevelgenEv = 0xed098
_ZN23ConsoleSaveFileReadOnly17AllocInitialQuotaEj = 0xed168
_ZN23ConsoleSaveFileReadOnly7ReAllocEj = 0xed1c0
_ZN23ConsoleSaveFileReadOnly10createFileERK15ConsoleSavePath = 0xed224
_ZN23ConsoleSaveFileReadOnly10deleteFileEP9FileEntry = 0xed2a0
_ZN23ConsoleSaveFileReadOnly14setFilePointerEP9FileEntrylPij = 0xed2a4
_ZN23ConsoleSaveFileReadOnly9writeFileEP9FileEntryPKvjPj = 0xed314
_ZN23ConsoleSaveFileReadOnly8zeroFileEP9FileEntryjPj = 0xed318
_ZN23ConsoleSaveFileReadOnly8readFileEP9FileEntryPvjPj = 0xed31c
_ZN23ConsoleSaveFileReadOnly5FlushEbb = 0xed320
_ZN23ConsoleSaveFileReadOnly25getRegionFilesByDimensionEj = 0xed324
ConsoleSaveFileSplit__ConsoleSaveFileSplit = 0xedb60
_ZN20ConsoleSaveFileSplitD1Ev = 0xee124
_ZN20ConsoleSaveFileSplitD0Ev = 0xee1f8
_ZN20ConsoleSaveFileSplit17AllocInitialQuotaEj = 0xee21c
_ZN20ConsoleSaveFileSplit7ReAllocEj = 0xee274
_ZN20ConsoleSaveFileSplit10createFileERK15ConsoleSavePath = 0xee2d8
_ZN20ConsoleSaveFileSplit10deleteFileEP9FileEntry = 0xee558
_ZN20ConsoleSaveFileSplit14setFilePointerEP9FileEntrylPij = 0xee564
_ZN20ConsoleSaveFileSplit9writeFileEP9FileEntryPKvjPj = 0xee5f0
_ZN20ConsoleSaveFileSplit8zeroFileEP9FileEntryjPj = 0xee6f8
_ZN20ConsoleSaveFileSplit8readFileEP9FileEntryPvjPj = 0xee7f8
_ZN20ConsoleSaveFileSplit4tickEv = 0xee8e0
_ZN20ConsoleSaveFileSplit5FlushEbb = 0xeecdc
_ZN20ConsoleSaveFileSplit25getRegionFilesByDimensionEj = 0xeeff0
_ZN20ConsoleSaveFileSplit15fjHasRegionFileERK4File = 0xef088
_ZN3Cow14addDataWalkersEP14DataFixerUpper = 0xefa9c
_ZN18CraftingTableBlock7TestUseEv = 0xf1084
_ZN18CraftingTableBlock3useEP5LevelRK8BlockPosPK10BlockStateSt10shared_ptrI6PlayerEN15InteractionHand16EInteractionHandEPK9Directionfffb = 0xf108c
_ZN18CraftingTableBlock10getTextureEPK9DirectionPK10BlockState = 0xf1154
_ZN18CraftingTableBlock13registerIconsEP12IconRegister = 0xf11d0
_ZN18CraftingTableBlock18GetInteractTooltipERK22BlockTooltipDataHolder = 0xf141c
_ZN15CraftItemPacketD2Ev = 0xf1444
_ZN15CraftItemPacketD0Ev = 0xf14c8
_ZN15CraftItemPacketC1Ev = 0xf14ec
_ZN15CraftItemPacket6handleEP14PacketListener = 0xf1748
_ZN15CraftItemPacket4readEP15DataInputStream = 0xf17a8
_ZN15CraftItemPacket5writeEP16DataOutputStream = 0xf18f8
_ZN15CraftItemPacket16getEstimatedSizeEv = 0xf1a24
_ZN7Creeper10staticCtorEv = 0xf1a2c
_ZN7Creeper14addDataWalkersEP14DataFixerUpper = 0xf1ea4
_ZN11PotatoBlock11DerivedInitEv = 0xf2e04
_ZN11PotatoBlock4tickEP5LevelRK8BlockPosPK10BlockStateP6Random = 0xf2fc8
_ZN11CarrotBlock14spawnResourcesEP5LevelRK8BlockPosPK10BlockStatefi = 0xf3604
_ZN11PotatoBlock11getResourceEPK10BlockStateP6Randomi = 0xf371c
_ZN11PotatoBlock20getCloneItemInstanceEP5LevelRK8BlockPosPK10BlockState = 0xf3754
_ZN11PotatoBlock13getBlockStateEi = 0xf3804
_ZN11PotatoBlock29convertBlockStateToLegacyDataEPK10BlockState = 0xf3808
_ZN11PotatoBlock18GetInteractTooltipERK22BlockTooltipDataHolder = 0xf380c
_ZN11PotatoBlock26createBlockStateDefinitionEv = 0xf387c
_ZN11PotatoBlock14getRenderShapeEPK10BlockState = 0xf39e8
_ZN26CustomizableSourceSettingsC1EPNS_7BuilderE = 0xf39f0
_ZN26CustomizableSourceSettings7Builder10fromStringEP15SuperflatConfig = 0xf3c6c
_ZN26CustomizableSourceSettings7BuilderC1Ev = 0xf3c98
_ZN26CustomizableSourceSettings7Builder11setDefaultsEv = 0xf3c9c
_ZN5Float14floatToIntBitsEf = 0xf3e10
_ZN26CustomizableSourceSettings7Builder5buildEv = 0xf3e18
_ZN14ChunkGeneratorC2Ev = 0xf3e4c
_ZN27GenericOverworldLevelSourceC2Ev = 0xf3e60
_ZN15arrayWithLengthIdEC1Ev = 0xf3e80
_ZN15arrayWithLengthIdEixEj = 0xf3e8c
_ZN17DamageEnchantmentC1EPK6Rarityi15arrayWithLengthIPK13EquipmentSlotE = 0xf3e98
_ZN11EnchantmentC1EPK6RarityPK19EnchantmentCategory15arrayWithLengthIPK13EquipmentSlotE = 0xf3edc
_ZN17DamageEnchantment10getMinCostEi = 0xf3f34
_ZN17DamageEnchantment10getMaxCostEi = 0xf3f60
_ZN17DamageEnchantment11getMaxLevelEv = 0xf3f9c
_ZN17DamageEnchantment14getDamageBonusEi7MobType = 0xf3fa4
_ZN17DamageEnchantment16getDescriptionIdEv = 0xf4018
_ZN17DamageEnchantment18checkCompatibilityEPK11Enchantment = 0xf402c
_ZN17DamageEnchantment10canEnchantERK12not_null_ptrI12ItemInstanceE = 0xf4070
_ZN11Enchantment10canEnchantERK12not_null_ptrI12ItemInstanceE = 0xf40f0
_ZN17DamageEnchantment12doPostAttackERKNSt3__110shared_ptrI12LivingEntityEERKNS1_I6EntityEEi = 0xf412c
_ZN12DamageSource12bypassArmourEv = 0xf4234
_ZN12DamageSource12CreateThornsESt10shared_ptrI6EntityE = 0xf431c
_ZN12DamageSource11isExplosionEv = 0xf4a7c
_ZNK12DamageSource13isBypassInvulEv = 0xf4ab0
_ZN12DamageSourceC1Ev = 0xf4ac0
_ZN12DamageSource15getDirectEntityEv = 0xf4b1c
_ZN12DamageSource9getEntityEv = 0xf4b28
_ZN12DamageSource20scalesWithDifficultyEv = 0xf4b30
_ZN12DamageSource21getDeathMessagePacketESt10shared_ptrI12LivingEntityE = 0xf4d44
_ZN12DamageSource6isFireEv = 0xf4e74
_ZN12DamageSource4copyEv = 0xf4f24
_ZN12DamageSource17getSourcePositionEv = 0xf4f84
_ZN12DamageSource19GetBaseDamageSourceEv = 0xf4f8c
_ZN15DataInputStreamC1EP11InputStream = 0xf4f90
_ZN15DataInputStream4readEv = 0xf4fe8
vtbl_710103D840_func_2 = 0xf4ff8
_ZN15DataInputStream4readE15arrayWithLengthIhE = 0xf5000
vtbl_710103D840_func_3 = 0xf5014
_ZN15DataInputStream4readE15arrayWithLengthIhEjj = 0xf501c
vtbl_710103D840_func_4 = 0xf502c
_ZN15DataInputStream5closeEv = 0xf5034
_ZN15DataInputStream11readBooleanEv = 0xf5044
vtbl_710103D840_func_5 = 0xf506c
_ZN15DataInputStream8readByteEv = 0xf5074
vtbl_710103D840_func_6 = 0xf5094
_ZN15DataInputStream16readUnsignedByteEv = 0xf509c
vtbl_710103D840_func_7 = 0xf50bc
_ZN15DataInputStream8readCharEv = 0xf50c4
vtbl_710103D840_func_15 = 0xf5108
_ZN15DataInputStream9readFullyE15arrayWithLengthIhE = 0xf5110
vtbl_710103D840_func_8 = 0xf5190
_ZN15DataInputStream9readFullyE15arrayWithLengthIcE = 0xf5198
vtbl_710103D840_func_9 = 0xf51a4
_ZN15DataInputStream9readBytesE15arrayWithLengthIhE = 0xf51ac
_ZN15DataInputStream10readDoubleEv = 0xf5238
vtbl_710103D840_func_10 = 0xf525c
_ZN15DataInputStream9readFloatEv = 0xf5264
vtbl_710103D840_func_11 = 0xf5288
_ZN15DataInputStream7readIntEv = 0xf5290
vtbl_710103D840_func_12 = 0xf5314
_ZN15DataInputStream8readLongEv = 0xf531c
vtbl_710103D840_func_13 = 0xf5428
_ZN15DataInputStream9readShortEv = 0xf5430
vtbl_710103D840_func_14 = 0xf5474
_ZN15DataInputStream17readUnsignedShortEv = 0xf547c
_ZN15DataInputStream7readUTFEv = 0xf54c0
vtbl_710103D840_func_16 = 0xf5660
_ZN15DataInputStream11readUTFCharEv = 0xf5668
_ZN15DataInputStream13readPlayerUIDEv = 0xf5784
vtbl_710103D840_func_17 = 0xf57dc
readCompressedNbt__15DataInputStreamFv = 0xf587c
_ZN15DataInputStream4skipEx = 0xf5948
_ZN15DataInputStream9skipBytesEx = 0xf5958
vtbl_710103D840_func_18 = 0xf5964
_ZN16DataOutputStreamC1EP12OutputStream = 0xf596c
_ZN10DataOutputC1Ev = 0xf59b4
_ZN16DataOutputStream5writeEj = 0xf59c8
vtbl_710103D998_func_2 = 0xf5a00
_ZN16DataOutputStream5flushEv = 0xf5a08
_ZN16DataOutputStream5writeE15arrayWithLengthIhE = 0xf5a18
vtbl_710103D998_func_3 = 0xf5a2c
_ZN16DataOutputStream10writeBytesE15arrayWithLengthIhE = 0xf5a34
vtbl_710103D998_func_4 = 0xf5a48
_ZN16DataOutputStream5writeE15arrayWithLengthIhEjj = 0xf5a50
vtbl_710103D998_func_5 = 0xf5a8c
_ZN16DataOutputStream5closeEv = 0xf5a94
_ZN16DataOutputStream9writeByteEh = 0xf5aa4
vtbl_710103D998_func_6 = 0xf5ab8
_ZN16DataOutputStream11writeDoubleEd = 0xf5ac0
_ZN6Double16doubleToLongBitsEd = 0xf5b00
vtbl_710103D998_func_7 = 0xf5b24
_ZN16DataOutputStream10writeFloatEf = 0xf5b2c
vtbl_710103D998_func_8 = 0xf5b6c
_ZN16DataOutputStream8writeIntEi = 0xf5b74
vtbl_710103D998_func_9 = 0xf5bf0
_ZN16DataOutputStream9writeLongEx = 0xf5bf8
vtbl_710103D998_func_10 = 0xf5cc4
_ZN16DataOutputStream10writeShortEs = 0xf5ccc
vtbl_710103D998_func_11 = 0xf5d20
_ZN16DataOutputStream18writeUnsignedShortEt = 0xf5d28
_ZN16DataOutputStream9writeCharEw = 0xf5d7c
vtbl_710103D998_func_13 = 0xf5dd0
_ZN16DataOutputStream10writeCharsERKSt12basic_stringIwSt11char_traitsIwESt9allocatorIwEE = 0xf5dd8
vtbl_710103D998_func_14 = 0xf5e60
_ZN16DataOutputStream12writeBooleanEb = 0xf5e68
vtbl_710103D998_func_12 = 0xf5ea4
_ZN16DataOutputStream8writeUTFERKSt12basic_stringIwSt11char_traitsIwESt9allocatorIwEE = 0xf5eb0
vtbl_710103D998_func_15 = 0xf60ec
_ZN16DataOutputStream14writePlayerUIDE9PlayerUID = 0xf60f4
vtbl_710103D998_func_16 = 0xf6140
_ZN21DaylightDetectorBlock8getShapeEPK10BlockStateP11LevelSourceRK8BlockPos = 0xf63f8
_ZN21DaylightDetectorBlock9getSignalEPK10BlockStateP11LevelSourceRK8BlockPosPK9Direction = 0xf6408
_ZN9Dimension13isHasSkyLightEv = 0xf659c
_ZN21DaylightDetectorBlock3useEP5LevelRK8BlockPosPK10BlockStateSt10shared_ptrI6PlayerEN15InteractionHand16EInteractionHandEPK9Directionfffb = 0xf65a4
_ZN21DaylightDetectorBlock11getResourceEPK10BlockStateP6Randomi = 0xf6718
_ZN21DaylightDetectorBlock20getCloneItemInstanceEP5LevelRK8BlockPosPK10BlockState = 0xf6728
_ZN21DaylightDetectorBlock12isCubeShapedEPK10BlockState = 0xf677c
_ZNK21DaylightDetectorBlock13isSolidRenderEPK10BlockState = 0xf6784
_ZN21DaylightDetectorBlock14getRenderShapeEPK10BlockState = 0xf678c
_ZN21DaylightDetectorBlock14isSignalSourceEPK10BlockState = 0xf6794
_ZN21DaylightDetectorBlock13getBlockStateEi = 0xf6900
_ZN21DaylightDetectorBlock29convertBlockStateToLegacyDataEPK10BlockState = 0xf6930
_ZN21DaylightDetectorBlock18GetInteractTooltipERK22BlockTooltipDataHolder = 0xf6948
_ZN21DaylightDetectorBlock13GetHitTooltipERK22BlockTooltipDataHolder = 0xf69ac
_ZN21DaylightDetectorBlock26createBlockStateDefinitionEv = 0xf69d0
_ZN21DaylightDetectorBlock21getPistonPushReactionEPK10BlockState = 0xf6a44
_ZN21DaylightDetectorBlock17getBlockFaceShapeEP11LevelSourcePK10BlockStateRK8BlockPosPK9Direction = 0xf6a4c
_ZN21DaylightDetectorBlock10getTextureEPK9DirectionPK10BlockState = 0xf6a68
_ZN21DaylightDetectorBlock13registerIconsEP12IconRegister = 0xf6a94
_ZN13DeadBushBlock11getMapColorEPK10BlockStateP11LevelSourceRK8BlockPos = 0xf6da8
_ZN13DeadBushBlock8getShapeEPK10BlockStateP11LevelSourceRK8BlockPos = 0xf6db8
_ZN13DeadBushBlock19mayReplaceWithPlaceEP11LevelSourceRK8BlockPos = 0xf6e7c
_ZN13DeadBushBlock11getResourceEPK10BlockStateP6Randomi = 0xf6e84
_ZN13DeadBushBlock13playerDestroyEP5LevelSt10shared_ptrI6PlayerERK8BlockPosPK10BlockStateSt10shared_ptrI11BlockEntityE12not_null_ptrI12ItemInstanceE = 0xf6e94
__ct__15DeadBushFeatureFP5Block = 0xf7004
_ZN18DebugOptionsPacketD2Ev = 0xf72e8
_ZN18DebugOptionsPacketD0Ev = 0xf7310
_ZN18DebugOptionsPacketC1Ev = 0xf7334
_ZN18DebugOptionsPacket6handleEP14PacketListener = 0xf736c
_ZN18DebugOptionsPacket4readEP15DataInputStream = 0xf73cc
_ZN18DebugOptionsPacket5writeEP16DataOutputStream = 0xf73fc
_ZN18DebugOptionsPacket16getEstimatedSizeEv = 0xf7414
_ZN11DesertBiomeC1EN5Biome9EBiomeIDsEPN5Biome15BiomePropertiesE = 0xf83fc
vtbl_710103E7F0_func_11 = 0xf873c
_ZN17DesertWellFeature10staticCtorEv = 0xf8fe0
_ZN9Direction5Plane8iteratorEv = 0xf922c
_ZN17DetectorRailBlock15blockStaticCtorEv = 0xf9230
_ZN17DetectorRailBlock12getTickDelayEP5Level = 0xf9670
_ZN17DetectorRailBlock14isSignalSourceEPK10BlockState = 0xf9678
_ZN17DetectorRailBlock12entityInsideEP5LevelRK8BlockPosPK10BlockStateRKSt10shared_ptrI6EntityE = 0xf9680
_ZN17DetectorRailBlock10randomTickEP5LevelRK8BlockPosPK10BlockStateP6Random = 0xf96f8
_ZN17DetectorRailBlock4tickEP5LevelRK8BlockPosPK10BlockStateP6Random = 0xf96fc
_ZN17DetectorRailBlock9getSignalEPK10BlockStateP11LevelSourceRK8BlockPosPK9Direction = 0xf9774
_ZN17DetectorRailBlock15getDirectSignalEPK10BlockStateP11LevelSourceRK8BlockPosPK9Direction = 0xf97b8
_ZN17DetectorRailBlock7onPlaceEP5LevelRK8BlockPosPK10BlockState = 0xf9a74
_ZN17DetectorRailBlock21hasAnalogOutputSignalEPK10BlockState = 0xf9ad0
_ZN17DetectorRailBlock21getAnalogOutputSignalEPK10BlockStateP5LevelRK8BlockPos = 0xf9ad8
_ZN17DetectorRailBlock13getBlockStateEi = 0xf9d9c
_ZN17DetectorRailBlock29convertBlockStateToLegacyDataEPK10BlockState = 0xf9dfc
_ZN17DetectorRailBlock6rotateEPK10BlockStateP8Rotation = 0xf9e54
_ZN17DetectorRailBlock6mirrorEPK10BlockStateP6Mirror = 0xf9fec
_ZN17DetectorRailBlock26createBlockStateDefinitionEv = 0xfa14c
_ZN17DetectorRailBlock13registerIconsEP12IconRegister = 0xfa1cc
_ZN17DetectorRailBlock10getTextureEPK9DirectionPK10BlockState = 0xfa28c
_ZN18DifficultyInstanceC1EPK9Difficultyxxf = 0xfa2d8
_ZNK18DifficultyInstance19calculateDifficultyEPK9Difficultyxxf = 0xfa300
_ZN24DigDurabilityEnchantmentC1EPK6Rarity15arrayWithLengthIPK13EquipmentSlotE = 0xfa480
_ZN24DigDurabilityEnchantment10getMinCostEi = 0xfa4d8
_ZN24DigDurabilityEnchantment10getMaxCostEi = 0xfa4e4
_ZN11Enchantment10getMinCostEi = 0xfa4fc
_ZN24DigDurabilityEnchantment11getMaxLevelEv = 0xfa50c
_ZN24DigDurabilityEnchantment10canEnchantERK12not_null_ptrI12ItemInstanceE = 0xfa514
_ZN18DiggingEnchantmentC1EPK6Rarity15arrayWithLengthIPK13EquipmentSlotE = 0xfaa90
_ZN18DiggingEnchantment10getMinCostEi = 0xfaae8
_ZN18DiggingEnchantment10getMaxCostEi = 0xfaaf8
_ZN18DiggingEnchantment11getMaxLevelEv = 0xfab10
_ZN18DiggingEnchantment10canEnchantERK12not_null_ptrI12ItemInstanceE = 0xfab18
_ZN9Dimension4initEP5Level = 0xfab8c
_ZN9Dimension15updateLightRampEv = 0xfac14
_ZN9Dimension4initEv = 0xfac60
_ZN9DimensionC2Ev = 0xfad80
_ZN9DimensionD1Ev = 0xfadc8
_ZN9DimensionD0Ev = 0xfae1c
_ZNK9Dimension26createRandomLevelGeneratorEv = 0xfae40
_ZNK9Dimension21createFlatLevelSourceEv = 0xfaf14
_ZN9Dimension13createStorageE4File = 0xfaf84
_ZN4FileC2ERKS_ = 0xfafdc
_ZNK9Dimension12isValidSpawnEii = 0xfafe0
_ZNK9Dimension12getTimeOfDayExf = 0xfb070
_ZNK9Dimension12getMoonPhaseEx = 0xfb120
_ZN9Dimension18isNaturalDimensionEv = 0xfb170
_ZN9Dimension15getSunriseColorEff = 0xfb178
_ZN9Dimension11getFogColorEff = 0xfb304
_ZNK9Dimension10mayRespawnEv = 0xfb390
_ZN9Dimension14getCloudHeightEv = 0xfb398
_ZN9Dimension9hasGroundEv = 0xfb3b4
_ZNK9Dimension11getSpawnPosEv = 0xfb3bc
_ZN9Dimension17getSpawnYPositionEv = 0xfb3c4
getClearColorScale__9DimensionFv = 0xfb3e8
_ZN9Dimension9isFoggyAtEii = 0xfb410
_ZN9Dimension14getBiomeSourceEv = 0xfb418
_ZN9Dimension12isHasCeilingEv = 0xfb428
_ZN9Dimension17getBrightnessRampEv = 0xfb430
_ZN9Dimension17createWorldBorderEP5Level = 0xfb438
_ZN9Dimension9getXZSizeEv = 0xfb46c
_ZN9Dimension20getPlayerConstraintsERK8BlockPos = 0xfb474
_ZN9Dimension19inPlayerConstraintsERK8BlockPos = 0xfb4c0
_ZN9Dimension13containsChunkEii = 0xfb5bc
_ZN9Dimension19getBlockLightColourEv = 0xfb624
_ZN9Dimension8saveDataEv = 0xfb648
_ZN9Dimension4tickEv = 0xfb64c
_ZN9Dimension14canUnloadChunkEii = 0xfb650
_ZNK13DimensionType6createEv = 0xfb6bc
_ZN15NetherDimensionC1Ev = 0xfb744
_ZN15NormalDimensionC1Ev = 0xfb774
_ZN13RepeaterBlock8getShapeEPK10BlockStateP11LevelSourceRK8BlockPos = 0xfb9bc
_ZN13RepeaterBlock12isCubeShapedEPK10BlockState = 0xfb9cc
_ZN13RepeaterBlock8mayPlaceEP5LevelRK8BlockPos = 0xfb9d4
_ZN13RepeaterBlock10randomTickEP5LevelRK8BlockPosPK10BlockStateP6Random = 0xfbab0
_ZN13RepeaterBlock4tickEP5LevelRK8BlockPosPK10BlockStateP6Random = 0xfbab4
_ZN13RepeaterBlock16shouldRenderFaceEPK10BlockStateP11LevelSourceRK8BlockPosPK9Direction = 0xfbc18
_ZN13RepeaterBlock15getDirectSignalEPK10BlockStateP11LevelSourceRK8BlockPosPK9Direction = 0xfbc4c
_ZN13RepeaterBlock9getSignalEPK10BlockStateP11LevelSourceRK8BlockPosPK9Direction = 0xfbc68
_ZN13RepeaterBlock15neighborChangedEPK10BlockStateP5LevelRK8BlockPosP5BlockRK8BlockPos = 0xfbd08
_ZN13RepeaterBlock14isSignalSourceEPK10BlockState = 0xfc20c
_ZN13RepeaterBlock20getStateForPlacementEP5LevelRK8BlockPosPK9DirectionfffiSt10shared_ptrI12LivingEntityE = 0xfc214
_ZN13RepeaterBlock11setPlacedByEP5LevelRK8BlockPosPK10BlockStateSt10shared_ptrI12LivingEntityE12not_null_ptrI12ItemInstanceE = 0xfc26c
_ZN13RepeaterBlock7destroyEP5LevelRK8BlockPosPK10BlockState = 0xfc35c
_ZNK13RepeaterBlock13isSolidRenderEPK10BlockState = 0xfc3fc
_ZN13RepeaterBlock10isMatchingEP5Block = 0xfc5dc
_ZN13RepeaterBlock14getRenderLayerEv = 0xfc618
_ZN13RepeaterBlock17getBlockFaceShapeEP11LevelSourcePK10BlockStateRK8BlockPosPK9Direction = 0xfc620
_ZN10DiodeBlock14getRenderShapeEPK10BlockState = 0xfc63c
_ZN13RepeaterBlock10getTextureEPK9DirectionPK10BlockState = 0xfc644
_ZN9Direction10staticCtorEv = 0xfc6c0
_ZN9Direction4Axis10staticCtorEv = 0xfcb44
_ZNSt3__113unordered_mapINS_12basic_stringIwNS_11char_traitsIwEENS_9allocatorIwEEEEPK9DirectionNS_4hashIS6_EENS_8equal_toIS6_EENS4_INS_4pairIKS6_S9_EEEEEixERSF_ = 0xfcd6c
_ZNK9Direction7getNameEv = 0xfd05c
_ZN9DirectionC1EiiiRKNSt3__112basic_stringIwNS0_11char_traitsIwEENS0_9allocatorIwEEEEPNS_13AxisDirectionEPNS_4AxisEP5Vec3ih = 0xfd068
vtbl_710103F5F8_func_0 = 0xfd268
vtbl_710103F5F8_func_1 = 0xfd274
_ZN16DirectionalBlock15blockStaticCtorEv = 0xfda58
create__17DirectionPropertySFRCQ2_3std78basic_string__tm__58_wQ2_3std20char_traits__tm__2_wQ2_3std18allocator__tm__2_w = 0xfdbf0
create__17DirectionPropertySFRCQ2_3std78basic_string__tm__58_wQ2_3std20char_traits__tm__2_wQ2_3std18allocator__tm__2_wPC30Predicate__tm__13_PC9Direction = 0xfdc00
_ZN12LevelStorageC2Ev = 0xfe6c4
_ZN8PlayerIOC2Ev = 0xfe6d8
_ZN9FileEntry11newestFirstEPS_S0_ = 0xffbc8
_ZN9DirtBlock15blockStaticCtorEv = 0x100e08
_ZN9DirtBlock11getMapColorEPK10BlockStateP11LevelSourceRK8BlockPos = 0x101540
_ZN9DirtBlock31fillVirtualBlockStatePropertiesEPK10BlockStateP11LevelSourceRK8BlockPos = 0x101598
_ZN9DirtBlock20getCloneItemInstanceEP5LevelRK8BlockPosPK10BlockState = 0x10166c
_ZN9DirtBlock13getBlockStateEi = 0x1016e0
_ZN9DirtBlock29convertBlockStateToLegacyDataEPK10BlockState = 0x1017f0
_ZN9DirtBlock18GetInteractTooltipERK22BlockTooltipDataHolder = 0x101818
_ZN9DirtBlock26createBlockStateDefinitionEv = 0x1018a4
_ZN9DirtBlock25getSpawnResourcesAuxValueEPK10BlockState = 0x101924
_ZN9DirtBlock10getTextureEPK9DirectionPK10BlockState = 0x10196c
_ZN9DirtBlock13registerIconsEP12IconRegister = 0x1019e8
_ZN16DisconnectPacketC1Ev = 0x101bd4
_ZN16DisconnectPacket4readEP15DataInputStream = 0x101c48
_ZN16DisconnectPacket5writeEP16DataOutputStream = 0x101c78
_ZN16DisconnectPacket6handleEP14PacketListener = 0x101c90
_ZNSt3__110shared_ptrI16DisconnectPacketED2Ev = 0x101ce0
_ZN16DisconnectPacket16getEstimatedSizeEv = 0x101cf0
_ZN16DisconnectPacket16canBeInvalidatedEv = 0x101cf8
_ZN16DisconnectPacket15isInvalidatedByENSt3__110shared_ptrI6PacketEE = 0x101d00
_ZN14DispenserBlock15blockStaticCtorEv = 0x101d44
_ZN12DropperBlock12getTickDelayEP5Level = 0x101de0
_ZN12DropperBlock7onPlaceEP5LevelRK8BlockPosPK10BlockState = 0x101de8
_ZN12DropperBlock7TestUseEv = 0x102018
_ZN12DropperBlock3useEP5LevelRK8BlockPosPK10BlockStateSt10shared_ptrI6PlayerEN15InteractionHand16EInteractionHandEPK9Directionfffb = 0x102020
_ZN12DropperBlock15neighborChangedEPK10BlockStateP5LevelRK8BlockPosP5BlockRK8BlockPos = 0x1022bc
_ZN12DropperBlock4tickEP5LevelRK8BlockPosPK10BlockStateP6Random = 0x1023d4
_ZN12DropperBlock20getStateForPlacementEP5LevelRK8BlockPosPK9DirectionfffiSt10shared_ptrI12LivingEntityE = 0x1025cc
_ZN12DropperBlock11setPlacedByEP5LevelRK8BlockPosPK10BlockStateSt10shared_ptrI12LivingEntityE12not_null_ptrI12ItemInstanceE = 0x102634
_ZN12DropperBlock8onRemoveEP5LevelRK8BlockPosPK10BlockState = 0x10276c
_ZN12DropperBlock21hasAnalogOutputSignalEPK10BlockState = 0x1028b4
_ZN12DropperBlock21getAnalogOutputSignalEPK10BlockStateP5LevelRK8BlockPos = 0x1028bc
_ZN12DropperBlock14getRenderShapeEPK10BlockState = 0x10290c
_ZN12DropperBlock13getBlockStateEi = 0x102914
_ZN12DropperBlock29convertBlockStateToLegacyDataEPK10BlockState = 0x102974
_ZN14DispenserBlock18GetInteractTooltipERK22BlockTooltipDataHolder = 0x1029cc
_ZN12DropperBlock6rotateEPK10BlockStateP8Rotation = 0x1029f4
_ZN12DropperBlock6mirrorEPK10BlockStateP6Mirror = 0x102a4c
_ZN12DropperBlock26createBlockStateDefinitionEv = 0x102ab4
_ZN12DropperBlock10getTextureEPK9DirectionPK10BlockState = 0x102b34
_ZN14DispenserBlock13registerIconsEP12IconRegister = 0x102be0
_ZN20DispenserBlockEntity14addDataWalkersEP14DataFixerUpper = 0x1031c8
_ZN5SynthC2Ev = 0x103ca4
_ZN6Donkey14addDataWalkersEP14DataFixerUpper = 0x103d04
_ZN9DoorBlock15blockStaticCtorEv = 0x104610
_ZN9DoorBlock8getShapeEPK10BlockStateP11LevelSourceRK8BlockPos = 0x104ee8
_ZN9DoorBlock7getNameEv = 0x10501c
_ZNK9DoorBlock13isSolidRenderEPK10BlockState = 0x105068
_ZN9DoorBlock14isPathfindableEP11LevelSourceRK8BlockPos = 0x105070
_ZN9DoorBlock12isCubeShapedEPK10BlockState = 0x1051c4
_ZN9DoorBlock11getMapColorEPK10BlockStateP11LevelSourceRK8BlockPos = 0x10520c
_ZN9DoorBlock7TestUseEv = 0x1053bc
_ZN9DoorBlock3useEP5LevelRK8BlockPosPK10BlockStateSt10shared_ptrI6PlayerEN15InteractionHand16EInteractionHandEPK9Directionfffb = 0x1053d4
_ZN9DoorBlock15neighborChangedEPK10BlockStateP5LevelRK8BlockPosP5BlockRK8BlockPos = 0x105814
_ZN9DoorBlock11getResourceEPK10BlockStateP6Randomi = 0x105b90
_ZN9DoorBlock8mayPlaceEP5LevelRK8BlockPos = 0x105cd4
_ZN9DoorBlock21getPistonPushReactionEPK10BlockState = 0x105d88
_ZN9DoorBlock20getCloneItemInstanceEP5LevelRK8BlockPosPK10BlockState = 0x105da0
_ZN9DoorBlock17playerWillDestroyEP5LevelRK8BlockPosPK10BlockStateSt10shared_ptrI6PlayerE = 0x105df0
_ZN9DoorBlock14getRenderLayerEv = 0x105f48
_ZN9DoorBlock31fillVirtualBlockStatePropertiesEPK10BlockStateP11LevelSourceRK8BlockPos = 0x105f50
_ZN9DoorBlock13getBlockStateEi = 0x1060b8
_ZN9DoorBlock29convertBlockStateToLegacyDataEPK10BlockState = 0x106190
_ZN9DoorBlock18GetInteractTooltipERK22BlockTooltipDataHolder = 0x10625c
_ZN9DoorBlock6rotateEPK10BlockStateP8Rotation = 0x1062f4
_ZN9DoorBlock6mirrorEPK10BlockStateP6Mirror = 0x106388
_ZN9DoorBlock26createBlockStateDefinitionEv = 0x106458
_ZN9DoorBlock17getBlockFaceShapeEP11LevelSourcePK10BlockStateRK8BlockPosPK9Direction = 0x106550
_ZN9DoorBlock10getTextureEPK9DirectionPK10BlockState = 0x1065cc
_ZN9DoorBlock10getTextureEP11LevelSourceRK8BlockPosPK9DirectionPK10BlockState = 0x1065d4
_ZN9DoorBlock13registerIconsEP12IconRegister = 0x10680c
_ZN9DoorBlock14getRenderShapeEPK10BlockState = 0x106978
_ZN16DoublePlantBlock15blockStaticCtorEv = 0x107860
_ZN16DoublePlantBlock8getShapeEPK10BlockStateP11LevelSourceRK8BlockPos = 0x10802c
_ZN16DoublePlantBlock8mayPlaceEP5LevelRK8BlockPos = 0x1080ec
_ZN16DoublePlantBlock19mayReplaceWithPlaceEP11LevelSourceRK8BlockPos = 0x108154
_ZN16DoublePlantBlock11getResourceEPK10BlockStateP6Randomi = 0x1084d4
_ZN16DoublePlantBlock25getSpawnResourcesAuxValueEPK10BlockState = 0x1085b0
_ZN16DoublePlantBlock8getColorEP11LevelSourceRK8BlockPosi = 0x108638
_ZN16DoublePlantBlock8getColorEP11LevelSourceRK8BlockPosPK10BlockState = 0x108690
_ZN16DoublePlantBlock11setPlacedByEP5LevelRK8BlockPosPK10BlockStateSt10shared_ptrI12LivingEntityE12not_null_ptrI12ItemInstanceE = 0x1087dc
_ZN16DoublePlantBlock13playerDestroyEP5LevelSt10shared_ptrI6PlayerERK8BlockPosPK10BlockStateSt10shared_ptrI11BlockEntityE12not_null_ptrI12ItemInstanceE = 0x108860
_ZN16DoublePlantBlock17playerWillDestroyEP5LevelRK8BlockPosPK10BlockStateSt10shared_ptrI6PlayerE = 0x108afc
_ZN16DoublePlantBlock20getCloneItemInstanceEP5LevelRK8BlockPosPK10BlockState = 0x108dc4
_ZN16DoublePlantBlock13getBlockStateEi = 0x108f40
_ZN16DoublePlantBlock31fillVirtualBlockStatePropertiesEPK10BlockStateP11LevelSourceRK8BlockPos = 0x108fc8
_ZN16DoublePlantBlock29convertBlockStateToLegacyDataEPK10BlockState = 0x10909c
_ZN16DoublePlantBlock18GetInteractTooltipERK22BlockTooltipDataHolder = 0x10911c
_ZN16DoublePlantBlock26createBlockStateDefinitionEv = 0x10918c
_ZN16DoublePlantBlock13getOffsetTypeEv = 0x10921c
_ZN16DoublePlantBlock14getRenderShapeEPK10BlockState = 0x109224
_ZN16DoublePlantBlock14getIconTextureEPK9DirectionPK10BlockState = 0x10922c
_ZN16DoublePlantBlock10getTextureEPK9DirectionPK10BlockState = 0x1092b0
_ZN16DoublePlantBlock13registerIconsEP12IconRegister = 0x1092f8
_ZN9DoubleTagC2Ev = 0x109644
_ZN9DoubleTagC2Ed = 0x109674
_ZN9DoubleTag5writeEP10DataOutput = 0x1096b4
_ZN9DoubleTag4loadEP9DataInputi = 0x1096c8
_ZN9DoubleTag5getIdEv = 0x1096f8
_ZN9DoubleTag8toStringEv = 0x109700
_ZN9DoubleTag4copyEv = 0x109758
_ZN9DoubleTag6equalsEP3Tag = 0x10978c
_ZN9DoubleTag9getAsLongEv = 0x1097cc
_ZN9DoubleTag8getAsIntEv = 0x1097e8
_ZN9DoubleTag10getAsShortEv = 0x1097f0
_ZN9DoubleTag9getAsByteEv = 0x109808
_ZN9DoubleTag11getAsDoubleEv = 0x109820
_ZN9DoubleTag10getAsFloatEv = 0x109828
_ZN14DragonEggBlock8getShapeEPK10BlockStateP11LevelSourceRK8BlockPos = 0x109880
_ZN14DragonEggBlock7onPlaceEP5LevelRK8BlockPosPK10BlockState = 0x109890
_ZN14DragonEggBlock15neighborChangedEPK10BlockStateP5LevelRK8BlockPosP5BlockRK8BlockPos = 0x1098ec
_ZN14DragonEggBlock4tickEP5LevelRK8BlockPosPK10BlockStateP6Random = 0x10994c
_ZN14DragonEggBlock3useEP5LevelRK8BlockPosPK10BlockStateSt10shared_ptrI6PlayerEN15InteractionHand16EInteractionHandEPK9Directionfffb = 0x109c68
_ZN14DragonEggBlock6attackEP5LevelRK8BlockPosSt10shared_ptrI6PlayerE = 0x109e60
_ZN14DragonEggBlock12getTickDelayEP5Level = 0x109e64
_ZNK14DragonEggBlock13isSolidRenderEPK10BlockState = 0x109e6c
_ZN14DragonEggBlock12isCubeShapedEPK10BlockState = 0x109e74
_ZN14DragonEggBlock16shouldRenderFaceEPK10BlockStateP11LevelSourceRK8BlockPosPK9Direction = 0x109e7c
_ZN14DragonEggBlock17getBlockFaceShapeEP11LevelSourcePK10BlockStateRK8BlockPosPK9Direction = 0x109e84
_ZN14DragonEggBlock14getRenderShapeEPK10BlockState = 0x109e8c
_ZN14DragonFireball14addDataWalkersEP14DataFixerUpper = 0x10a170
_ZN12DropperBlock13registerIconsEP12IconRegister = 0x10aa20
_ZN12DropperBlock18GetInteractTooltipERK22BlockTooltipDataHolder = 0x10abb8
_ZN18DropperBlockEntity14addDataWalkersEP14DataFixerUpper = 0x10abe0
_ZN8DyeColor10staticCtorEv = 0x10ad7c
arrayWithLength_unkCtor = 0x10b808
_ZNK8DyeColor23getTextureDiffuseColorsEv = 0x10b82c
_ZN18DynamicLiquidBlock4tickEP5LevelRK8BlockPosPK10BlockStateP6Random = 0x10c8c8
_ZN18DynamicLiquidBlock7onPlaceEP5LevelRK8BlockPosPK10BlockState = 0x10d288
_ZN12EatBlockGoal10staticCtorEv = 0x10d308
_ZN13ElderGuardian14addDataWalkersEP14DataFixerUpper = 0x10dc00
_ZN15EmptyLevelChunkC1EP5Levelii = 0x10e330
_ZN11Enchantment10staticCtorEv = 0x10f2ac
_ZN15arrayWithLengthIPK13EquipmentSlotEC2Ejb = 0x1102f4
_ZN15arrayWithLengthIPK13EquipmentSlotEixEj = 0x110338
_ZN15arrayWithLengthIPK13EquipmentSlotEC2Ev = 0x110344
_ZN11Enchantment9getRarityEv = 0x110350
_ZN11Enchantment12getSlotItemsERKNSt3__110shared_ptrI12LivingEntityEE = 0x110358
_ZN11Enchantment11getMinLevelEv = 0x1104b0
_ZN11Enchantment11getMaxLevelEv = 0x1104b8
_ZN11Enchantment10getMaxCostEi = 0x1104c0
_ZN11Enchantment19getDamageProtectionEiPK12DamageSource = 0x1104e0
_ZN11Enchantment14getDamageBonusEi7MobType = 0x1104e8
_ZN11Enchantment18checkCompatibilityEPKS_ = 0x1104f0
_ZN11Enchantment16setDescriptionIdEi = 0x1104fc
_ZN11Enchantment16getDescriptionIdEv = 0x110504
_ZN11Enchantment11getFullnameEi = 0x11050c
_ZN11Enchantment12doPostAttackERKNSt3__110shared_ptrI12LivingEntityEERKNS1_I6EntityEEi = 0x11063c
_ZN11Enchantment10doPostHurtERKNSt3__110shared_ptrI12LivingEntityEERKNS1_I6EntityEEi = 0x110640
_ZN11Enchantment14isTreasureOnlyEv = 0x110644
_ZN11Enchantment7isCurseEv = 0x11064c
_ZN19EnchantmentCategoryC2Ev = 0x11068c
_ZN13ArmorCategoryC2Ev = 0x110720
_ZN17FeetArmorCategoryC2Ev = 0x110750
_ZN18ChestArmorCategoryC2Ev = 0x1107b0
_ZN17HeadArmorCategoryC2Ev = 0x1107e0
_ZN14WeaponCategoryC2Ev = 0x110810
_ZN14DiggerCategoryC2Ev = 0x110840
_ZN18FishingRodCategoryC2Ev = 0x110870
_ZN17BreakableCategoryC2Ev = 0x1108a0
_ZN16WearableCategoryC2Ev = 0x110900
_ZN17EnchantmentHelper23getItemEnchantmentLevelEPK11EnchantmentRK12not_null_ptrI12ItemInstanceE = 0x110a10
_ZN17EnchantmentHelper17getRandomItemWithEP11Enchantment = 0x111b38
_ZN12Enchantments10staticCtorEv = 0x113ce0
_ZN21EnchantmentTableBlock8getShapeEPK10BlockStateP11LevelSourceRK8BlockPos = 0x114578
_ZN21EnchantmentTableBlock12isCubeShapedEPK10BlockState = 0x114588
_ZN21EnchantmentTableBlock11animateTickEPK10BlockStateP5LevelRK8BlockPosP6Random = 0x114590
_ZNK21EnchantmentTableBlock13isSolidRenderEPK10BlockState = 0x1147c4
_ZN21EnchantmentTableBlock14getRenderShapeEPK10BlockState = 0x1147cc
_ZN21EnchantmentTableBlock3useEP5LevelRK8BlockPosPK10BlockStateSt10shared_ptrI6PlayerEN15InteractionHand16EInteractionHandEPK9Directionfffb = 0x114a1c
_ZN21EnchantmentTableBlock11setPlacedByEP5LevelRK8BlockPosPK10BlockStateSt10shared_ptrI12LivingEntityE12not_null_ptrI12ItemInstanceE = 0x114af0
_ZN21EnchantmentTableBlock17getBlockFaceShapeEP11LevelSourcePK10BlockStateRK8BlockPosPK9Direction = 0x114c78
_ZN21EnchantmentTableBlock10getTextureEPK9DirectionPK10BlockState = 0x114c94
_ZN21EnchantmentTableBlock13registerIconsEP12IconRegister = 0x114ce0
_ZN21EnchantmentTableBlock18GetInteractTooltipERK22BlockTooltipDataHolder = 0x114d54
_ZN15EnderChestBlock15blockStaticCtorEv = 0x11bcac
_ZN15EnderChestBlock8getShapeEPK10BlockStateP11LevelSourceRK8BlockPos = 0x11bd40
_ZNK15EnderChestBlock13isSolidRenderEPK10BlockState = 0x11bd50
_ZN15EnderChestBlock12isCubeShapedEPK10BlockState = 0x11bd58
_ZN15EnderChestBlock25hasCustomBreakingProgressEPK10BlockState = 0x11bd60
_ZN15EnderChestBlock11getResourceEPK10BlockStateP6Randomi = 0x11bd68
_ZN15EnderChestBlock16getResourceCountEP6Random = 0x11bd78
_ZN15EnderChestBlock15isSilkTouchableEv = 0x11bd80
_ZN15EnderChestBlock20getStateForPlacementEP5LevelRK8BlockPosPK9DirectionfffiSt10shared_ptrI12LivingEntityE = 0x11bd88
_ZN15EnderChestBlock11setPlacedByEP5LevelRK8BlockPosPK10BlockStateSt10shared_ptrI12LivingEntityE12not_null_ptrI12ItemInstanceE = 0x11bde0
_ZN15EnderChestBlock3useEP5LevelRK8BlockPosPK10BlockStateSt10shared_ptrI6PlayerEN15InteractionHand16EInteractionHandEPK9Directionfffb = 0x11bf64
_ZN15EnderChestBlock11animateTickEPK10BlockStateP5LevelRK8BlockPosP6Random = 0x11c23c
_ZN15EnderChestBlock13getBlockStateEi = 0x11c3b0
_ZN15EnderChestBlock29convertBlockStateToLegacyDataEPK10BlockState = 0x11c414
_ZN15EnderChestBlock18GetInteractTooltipERK22BlockTooltipDataHolder = 0x11c43c
_ZN15EnderChestBlock6rotateEPK10BlockStateP8Rotation = 0x11c464
_ZN15EnderChestBlock6mirrorEPK10BlockStateP6Mirror = 0x11c4bc
_ZN15EnderChestBlock26createBlockStateDefinitionEv = 0x11c524
_ZN15EnderChestBlock17getBlockFaceShapeEP11LevelSourcePK10BlockStateRK8BlockPosPK9Direction = 0x11c598
_ZN15EnderChestBlock13registerIconsEP12IconRegister = 0x11c5a0
_ZN15EnderChestBlock14getRenderShapeEPK10BlockState = 0x11c618
_ZN12EnderCrystal10staticCtorEv = 0x11cb80
_ZN11EnderDragon10staticCtorEv = 0x11d4e0
_ZN11EnderDragon14addDataWalkersEP14DataFixerUpper = 0x122484
_ZN8EnderMan10staticCtorEv = 0x1235d0
_ZN8EnderMan14addDataWalkersEP14DataFixerUpper = 0x125c20
_ZN9Endermite14addDataWalkersEP14DataFixerUpper = 0x12770c
_ZN15EndGatewayBlock16shouldRenderFaceEPK10BlockStateP11LevelSourceRK8BlockPosPK9Direction = 0x128110
_ZN15EndGatewayBlock11getClipAABBEPK10BlockStateP11LevelSourceRK8BlockPos = 0x12819c
_ZNK15EndGatewayBlock13isSolidRenderEPK10BlockState = 0x1281ac
_ZN15EndGatewayBlock12isCubeShapedEPK10BlockState = 0x1281b4
_ZN15EndGatewayBlock16getResourceCountEP6Random = 0x1281bc
_ZN15EndGatewayBlock11animateTickEPK10BlockStateP5LevelRK8BlockPosP6Random = 0x1281c4
_ZN15EndGatewayBlock20getCloneItemInstanceEP5LevelRK8BlockPosPK10BlockState = 0x128414
_ZN15EndGatewayBlock11getMapColorEPK10BlockStateP11LevelSourceRK8BlockPos = 0x128424
_ZN15EndGatewayBlock17getBlockFaceShapeEP11LevelSourcePK10BlockStateRK8BlockPosPK9Direction = 0x128434
_ZN15EndGatewayBlock26createBlockStateDefinitionEv = 0x12843c
_ZN15EndGatewayBlock13getBlockStateEi = 0x1284b0
_ZN15EndGatewayBlock29convertBlockStateToLegacyDataEPK10BlockState = 0x1284e0
_ZN14EndPortalBlock8getShapeEPK10BlockStateP11LevelSourceRK8BlockPos = 0x1288d0
_ZN14EndPortalBlock16shouldRenderFaceEPK10BlockStateP11LevelSourceRK8BlockPosPK9Direction = 0x1288e0
_ZN14EndPortalBlock17addCollisionAABBsEPK10BlockStateP5LevelRK8BlockPosPK4AABBPSt6vectorIP4AABBSt9allocatorIP4AABBEESt10shared_ptrI6EntityEb = 0x128900
_ZNK14EndPortalBlock13isSolidRenderEPK10BlockState = 0x128904
_ZN14EndPortalBlock12isCubeShapedEPK10BlockState = 0x12890c
_ZN14EndPortalBlock16getResourceCountEP6Random = 0x128914
_ZN14EndPortalBlock12entityInsideEP5LevelRK8BlockPosPK10BlockStateRKSt10shared_ptrI6EntityE = 0x12891c
_ZN14EndPortalBlock11animateTickEPK10BlockStateP5LevelRK8BlockPosP6Random = 0x128b70
_ZN14EndPortalBlock20getCloneItemInstanceEP5LevelRK8BlockPosPK10BlockState = 0x128c44
_ZN14EndPortalBlock11getMapColorEPK10BlockStateP11LevelSourceRK8BlockPos = 0x128c54
_ZN14EndPortalBlock17getBlockFaceShapeEP11LevelSourcePK10BlockStateRK8BlockPosPK9Direction = 0x128c64
_ZN14EndPortalBlock13registerIconsEP12IconRegister = 0x128c6c
_ZN14EndPortalBlock14getRenderShapeEPK10BlockState = 0x128ce4
_ZN19EndPortalFrameBlock15blockStaticCtorEv = 0x128cec
_ZNK19EndPortalFrameBlock13isSolidRenderEPK10BlockState = 0x128d98
_ZN19EndPortalFrameBlock8getShapeEPK10BlockStateP11LevelSourceRK8BlockPos = 0x128da0
_ZN19EndPortalFrameBlock17addCollisionAABBsEPK10BlockStateP5LevelRK8BlockPosPK4AABBPSt6vectorIP4AABBSt9allocatorIP4AABBEESt10shared_ptrI6EntityEb = 0x128db0
_ZN19EndPortalFrameBlock11getResourceEPK10BlockStateP6Randomi = 0x128e70
_ZN19EndPortalFrameBlock20getStateForPlacementEP5LevelRK8BlockPosPK9DirectionfffiSt10shared_ptrI12LivingEntityE = 0x128e80
_ZN19EndPortalFrameBlock21hasAnalogOutputSignalEPK10BlockState = 0x128eec
_ZN19EndPortalFrameBlock21getAnalogOutputSignalEPK10BlockStateP5LevelRK8BlockPos = 0x128ef4
_ZN19EndPortalFrameBlock13getBlockStateEi = 0x128f38
_ZN19EndPortalFrameBlock29convertBlockStateToLegacyDataEPK10BlockState = 0x128f98
_ZN19EndPortalFrameBlock6rotateEPK10BlockStateP8Rotation = 0x128ff0
_ZN19EndPortalFrameBlock6mirrorEPK10BlockStateP6Mirror = 0x129048
_ZN19EndPortalFrameBlock26createBlockStateDefinitionEv = 0x1290b0
_ZN19EndPortalFrameBlock12isCubeShapedEPK10BlockState = 0x129130
_ZN19EndPortalFrameBlock17getBlockFaceShapeEP11LevelSourcePK10BlockStateRK8BlockPosPK9Direction = 0x1293b8
_ZN19EndPortalFrameBlock10getTextureEPK9DirectionPK10BlockState = 0x1293dc
_ZN19EndPortalFrameBlock13registerIconsEP12IconRegister = 0x12942c
_ZN19EndPortalFrameBlock14getRenderShapeEPK10BlockState = 0x129534
_ZN11EndRodBlock11DerivedInitEv = 0x12953c
_ZN11EndRodBlock6rotateEPK10BlockStateP8Rotation = 0x1295c8
_ZN11EndRodBlock6mirrorEPK10BlockStateP6Mirror = 0x129620
_ZN11EndRodBlock8getShapeEPK10BlockStateP11LevelSourceRK8BlockPos = 0x129678
_ZNK11EndRodBlock13isSolidRenderEPK10BlockState = 0x1296d4
_ZN11EndRodBlock12isCubeShapedEPK10BlockState = 0x1296dc
_ZN11EndRodBlock8mayPlaceEP5LevelRK8BlockPos = 0x1296e4
_ZN11EndRodBlock20getStateForPlacementEP5LevelRK8BlockPosPK9DirectionfffiSt10shared_ptrI12LivingEntityE = 0x1296ec
_ZN11EndRodBlock11animateTickEPK10BlockStateP5LevelRK8BlockPosP6Random = 0x1297e0
_ZN11EndRodBlock14getRenderLayerEv = 0x1299c8
_ZN11EndRodBlock13getBlockStateEi = 0x1299d0
_ZN11EndRodBlock29convertBlockStateToLegacyDataEPK10BlockState = 0x129a1c
_ZN11EndRodBlock21getPistonPushReactionEPK10BlockState = 0x129a44
_ZN11EndRodBlock17getBlockFaceShapeEP11LevelSourcePK10BlockStateRK8BlockPosPK9Direction = 0x129a4c
_ZN11EndRodBlock26createBlockStateDefinitionEv = 0x129a54
_ZN11EndRodBlock14getRenderShapeEPK10BlockState = 0x129ac8
_ZN11EndRodBlock25getSpawnResourcesAuxValueEPK10BlockState = 0x129b70
_ZN6EndTagC1Ev = 0x129b80
_ZN6EndTag4loadEP9DataInputi = 0x129bb0
_ZN6EndTag5writeEP10DataOutput = 0x129bb4
_ZN6EndTag5getIdEv = 0x129bb8
_ZN6EndTag8toStringEv = 0x129bc0
_ZN6EndTag4copyEv = 0x129c00
_ZN6EndTag6equalsEP3Tag = 0x129c2c
_ZN14PacketListenerD2Ev = 0x129c88
_ZN24ClientGamePacketListenerD0Ev = 0x129c8c
_ZN14PacketListener22isServerPacketListenerEv = 0x129cb0
_ZN28ClientboundEntityEventPacketD2Ev = 0x129cb8
_ZN28ClientboundEntityEventPacketD0Ev = 0x129ce0
_ZN28ClientboundEntityEventPacket11getPacketIdEv = 0x129d04
_ZN24ClientboundExplodePacketD2Ev = 0x129d0c
_ZN24ClientboundExplodePacketD0Ev = 0x129d50
_ZN24ClientboundExplodePacket11getPacketIdEv = 0x129d74
_ZN26ClientboundGameEventPacketD2Ev = 0x129d7c
_ZN26ClientboundGameEventPacketD0Ev = 0x129da4
_ZN26ClientboundGameEventPacket11getPacketIdEv = 0x129dc8
_ZN26ClientboundKeepAlivePacketD2Ev = 0x129dd0
_ZN26ClientboundKeepAlivePacketD0Ev = 0x129df8
_ZN26ClientboundKeepAlivePacket11getPacketIdEv = 0x129e1c
_ZN27ClientboundLevelEventPacketD2Ev = 0x129e24
_ZN27ClientboundLevelEventPacketD0Ev = 0x129e4c
_ZN27ClientboundLevelEventPacket11getPacketIdEv = 0x129e70
_ZN31ClientboundLevelParticlesPacket11getPacketIdEv = 0x129e78
_ZN22ClientboundLoginPacketD2Ev = 0x129e80
_ZN22ClientboundLoginPacketD0Ev = 0x129ec4
_ZN22ClientboundLoginPacket11getPacketIdEv = 0x129ee8
_ZN28ClientboundMapItemDataPacket11getPacketIdEv = 0x129ef0
_ZN39ClientboundMGPlayerSettingsUpdatePacketD2Ev = 0x129ef8
_ZN39ClientboundMGPlayerSettingsUpdatePacketD0Ev = 0x129f3c
_ZN39ClientboundMGPlayerSettingsUpdatePacket11getPacketIdEv = 0x129f60
_ZN27ClientboundMoveEntityPacketD0Ev = 0x129f68
_ZN27ClientboundMoveEntityPacket11getPacketIdEv = 0x129f8c
_ZN27ClientboundMoveEntityPacket6PosRotD0Ev = 0x129f94
_ZN27ClientboundMoveEntityPacket6PosRot11getPacketIdEv = 0x129fb8
_ZN27ClientboundMoveEntityPacket3PosD0Ev = 0x129fc0
_ZN27ClientboundMoveEntityPacket3Pos11getPacketIdEv = 0x129fe4
_ZN27ClientboundMoveEntityPacketD2Ev = 0x129fec
_ZN27ClientboundMoveEntityPacket3RotD0Ev = 0x12a014
_ZN27ClientboundMoveEntityPacket3Rot11getPacketIdEv = 0x12a038
_ZN28ClientboundMoveVehiclePacketD2Ev = 0x12a040
_ZN28ClientboundMoveVehiclePacketD0Ev = 0x12a068
_ZN28ClientboundMoveVehiclePacket11getPacketIdEv = 0x12a08c
_ZN31ClientboundOpenSignEditorPacket11getPacketIdEv = 0x12a094
_ZN30ClientboundSetEntityLinkPacketD2Ev = 0x12a09c
_ZN30ClientboundSetEntityLinkPacketD0Ev = 0x12a0c4
_ZN30ClientboundSetEntityLinkPacket11getPacketIdEv = 0x12a0e8
_ZN32ClientboundPlayerAbilitiesPacketD2Ev = 0x12a0f0
_ZN32ClientboundPlayerAbilitiesPacketD0Ev = 0x12a118
_ZN32ClientboundPlayerAbilitiesPacket11getPacketIdEv = 0x12a13c
_ZN29ClientboundPlayerCombatPacket11getPacketIdEv = 0x12a144
_ZN31ClientboundPlayerPositionPacket11getPacketIdEv = 0x12a14c
_ZN28ClientboundPlayerSleepPacket11getPacketIdEv = 0x12a154
_ZN24ClientboundPowerupPacketD2Ev = 0x12a15c
_ZN24ClientboundPowerupPacketD0Ev = 0x12a184
_ZN24ClientboundPowerupPacket11getPacketIdEv = 0x12a1a8
_ZN31ClientboundRemoveEntitiesPacket11getPacketIdEv = 0x12a1b0
_ZN32ClientboundRemoveMobEffectPacketD2Ev = 0x12a1b8
_ZN32ClientboundRemoveMobEffectPacketD0Ev = 0x12a1e0
_ZN32ClientboundRemoveMobEffectPacket11getPacketIdEv = 0x12a204
_ZN29ClientboundResourcePackPacket11getPacketIdEv = 0x12a20c
_ZN24ClientboundRespawnPacketD2Ev = 0x12a214
_ZN24ClientboundRespawnPacketD0Ev = 0x12a23c
_ZN24ClientboundRespawnPacket11getPacketIdEv = 0x12a260
_ZN27ClientboundRotateHeadPacketD2Ev = 0x12a268
_ZN27ClientboundRotateHeadPacketD0Ev = 0x12a290
_ZN27ClientboundRotateHeadPacket11getPacketIdEv = 0x12a2b4
_ZN26ClientboundSetBorderPacket11getPacketIdEv = 0x12a2bc
_ZN26ClientboundSetCameraPacket11getPacketIdEv = 0x12a2c4
_ZN31ClientboundSetCarriedItemPacketD2Ev = 0x12a2cc
_ZN31ClientboundSetCarriedItemPacketD0Ev = 0x12a2f4
_ZN31ClientboundSetCarriedItemPacket11getPacketIdEv = 0x12a318
_ZN30ClientboundSetEntityDataPacket11getPacketIdEv = 0x12a320
_ZN32ClientboundSetEntityMotionPacketD2Ev = 0x12a328
_ZN32ClientboundSetEntityMotionPacketD0Ev = 0x12a350
_ZN32ClientboundSetEntityMotionPacket11getPacketIdEv = 0x12a374
_ZN32ClientboundSetEquippedItemPacketD2Ev = 0x12a3a0
_ZN32ClientboundSetEquippedItemPacketD0Ev = 0x12a3e4
_ZN32ClientboundSetEquippedItemPacket11getPacketIdEv = 0x12a408
_ZN30ClientboundSetExperiencePacketD2Ev = 0x12a410
_ZN30ClientboundSetExperiencePacketD0Ev = 0x12a438
_ZN30ClientboundSetExperiencePacket11getPacketIdEv = 0x12a45c
_ZN26ClientboundSetHealthPacketD2Ev = 0x12a464
_ZN26ClientboundSetHealthPacketD0Ev = 0x12a48c
_ZN26ClientboundSetHealthPacket11getPacketIdEv = 0x12a4b0
_ZN30ClientboundSetPassengersPacket11getPacketIdEv = 0x12a4b8
_ZN30ClientboundSetPlayerTeamPacketD2Ev = 0x12a4c0
_ZN30ClientboundSetPlayerTeamPacketD0Ev = 0x12a50c
_ZN30ClientboundSetPlayerTeamPacket11getPacketIdEv = 0x12a530
_ZN33ClientboundSetSpawnPositionPacketD2Ev = 0x12a538
_ZN33ClientboundSetSpawnPositionPacketD0Ev = 0x12a560
_ZN33ClientboundSetSpawnPositionPacket11getPacketIdEv = 0x12a584
_ZN24ClientboundSetTimePacketD2Ev = 0x12a58c
_ZN24ClientboundSetTimePacketD0Ev = 0x12a5b4
_ZN24ClientboundSetTimePacket11getPacketIdEv = 0x12a5d8
_ZN26ClientboundSetTitlesPacketD2Ev = 0x12a5e0
_ZN26ClientboundSetTitlesPacketD0Ev = 0x12a624
_ZN26ClientboundSetTitlesPacket11getPacketIdEv = 0x12a648
_ZN22ClientboundSoundPacketD2Ev = 0x12a650
_ZN22ClientboundSoundPacketD0Ev = 0x12a678
_ZN22ClientboundSoundPacket11getPacketIdEv = 0x12a69c
_ZN24ClientboundTabListPacket11getPacketIdEv = 0x12a6a4
_ZN31ClientboundTakeItemEntityPacketD2Ev = 0x12a6ac
_ZN31ClientboundTakeItemEntityPacketD0Ev = 0x12a6d4
_ZN31ClientboundTakeItemEntityPacket11getPacketIdEv = 0x12a6f8
_ZN31ClientboundTeleportEntityPacketD2Ev = 0x12a700
_ZN31ClientboundTeleportEntityPacketD0Ev = 0x12a728
_ZN31ClientboundTeleportEntityPacket11getPacketIdEv = 0x12a74c
_ZN33ClientboundUpdateAttributesPacket11getPacketIdEv = 0x12a754
_ZN32ClientboundUpdateMobEffectPacketD2Ev = 0x12a75c
_ZN32ClientboundUpdateMobEffectPacketD0Ev = 0x12a784
_ZN32ClientboundUpdateMobEffectPacket11getPacketIdEv = 0x12a7a8
_ZN15DataInputStreamD0Ev = 0x12a7d4
vtbl_710103D840_func_0 = 0x12a7f8
vtbl_710103D840_func_1 = 0x12a800
_ZN10CocoaBlockD0Ev = 0x12a82c
_ZN12ColoredBlockD0Ev = 0x12a850
_ZN12DamageSourceD2Ev = 0x12a874
_ZN12DamageSourceD0Ev = 0x12a878
_ZN10DiodeBlockD0Ev = 0x12a924
_ZN15ComparatorBlockD2Ev = 0x12a948
_ZN15ComparatorBlockD0Ev = 0x12a970
_ZN19ConcretePowderBlockD0Ev = 0x12aa88
_ZN16DataOutputStreamD0Ev = 0x12aaac
vtbl_710103D998_func_0 = 0x12aad0
vtbl_710103D998_func_1 = 0x12aad8
_ZN15ConsoleSaveFile4tickEv = 0x12aae0
_ZN21ConsoleSaveFileCommon15getWritePointerEP9FileEntry = 0x12aae4
_ZN21ConsoleSaveFileCommon19refreshFromLevelgenEv = 0x12aaec
vtbl_710103AB98_func_1 = 0x12aaf0
vtbl_710103AB98_func_6 = 0x12ab14
vtbl_710103AD28_func_1 = 0x12ab1c
vtbl_710103AD28_func_6 = 0x12ab40
_ZN18CraftingTableBlockD0Ev = 0x12ac3c
_ZN15CraftItemPacket11getPacketIdEv = 0x12ac60
_ZN9CropBlockD0Ev = 0x12ac98
_ZN27GenericOverworldLevelSource6isFlatEv = 0x12acbc
_ZN11EnchantmentD0Ev = 0x12acc4
_ZN17DamageEnchantmentD0Ev = 0x12ace8
_ZN21DaylightDetectorBlockD0Ev = 0x12ad0c
_ZN13DeadBushBlockD0Ev = 0x12ad70
_ZN18DebugOptionsPacket11getPacketIdEv = 0x12addc
vtbl_710103E7F0_func_1 = 0x12aea8
vtbl_710103E7F0_func_18 = 0x12aecc
_ZN17DetectorRailBlockD0Ev = 0x12aef8
_ZN24DigDurabilityEnchantmentD0Ev = 0x12af1c
_ZN18DiggingEnchantmentD0Ev = 0x12af64
_ZN9DirtBlockD0Ev = 0x12b074
_ZN16DisconnectPacketD2Ev = 0x12b098
_ZN16DisconnectPacketD0Ev = 0x12b0c0
_ZN16DisconnectPacket11getPacketIdEv = 0x12b0e4
_ZN14DispenserBlockD0Ev = 0x12b110
_ZN9DoorBlockD0Ev = 0x12b1a0
_ZN16DoublePlantBlockD0Ev = 0x12b1e8
_ZN9DoubleTagD0Ev = 0x12b20c
_ZN14DragonEggBlockD0Ev = 0x12b230
_ZN12DropperBlockD0Ev = 0x12b350
_ZN18DynamicLiquidBlockD2Ev = 0x12b3a8
_ZN18DynamicLiquidBlockD0Ev = 0x12b3dc
_ZN17StaticLiquidBlock13isLiquidBlockEv = 0x12b400
_ZN21EnchantmentTableBlockD0Ev = 0x12b678
_ZN15EnderChestBlockD0Ev = 0x12b7c8
_ZN15EndGatewayBlockD0Ev = 0x12baa4
_ZN14EndPortalBlockD0Ev = 0x12bafc
_ZN19EndPortalFrameBlockD0Ev = 0x12bb30
_ZN11EndRodBlockD0Ev = 0x12bb54
_ZN6EndTagD0Ev = 0x12bb78
_ZN16DirectionalBlockD0Ev = 0x12c01c
_ZNSt3__112__deque_baseINS_10shared_ptrI6PacketEENS_9allocatorIS3_EEE5clearEv = 0x12c8b4
_ZNSt3__114__split_bufferIPNS_10shared_ptrI6PacketEENS_9allocatorIS4_EEED2Ev = 0x12c984
_ZNSt3__112__deque_baseINS_10shared_ptrI6PacketEENS_9allocatorIS3_EEE5beginEv = 0x12c9b8
_ZNSt3__112__deque_baseINS_10shared_ptrI6PacketEENS_9allocatorIS3_EEE3endEv = 0x12c9e8
_ZN15ConsoleSaveFileD1Ev = 0x12ca1c
_ZN15ConsoleSaveFileD0Ev = 0x12ca20
_ZN14ChunkGeneratorD2Ev = 0x12cab0
_ZN14ChunkGeneratorD0Ev = 0x12cab4
_ZN14ChunkGenerator10lightChunkEP10LevelChunk = 0x12cad8
_ZN6Double13convertToLongEd = 0x12cb24
_ZN12LevelStorageD1Ev = 0x12ccb4
_ZN12LevelStorageD0Ev = 0x12ccb8
_ZN12LevelStorage11getSaveFileEv = 0x12ccdc
_ZN12LevelStorage13flushSaveFileEb = 0x12cce4
_ZN12LevelStorage17getAuxValueForMapE9PlayerUIDiiii = 0x12cce8
_ZN8PlayerIOD1Ev = 0x12ccf0
_ZN8PlayerIOD0Ev = 0x12ccf4
_ZN5SynthD1Ev = 0x12ceec
_ZN5SynthD0Ev = 0x12cef0
_ZNK13ArmorCategory10canEnchantEP4Item = 0x12d878
_ZNK17FeetArmorCategory10canEnchantEP4Item = 0x12d8bc
_ZNK18ChestArmorCategory10canEnchantEP4Item = 0x12d96c
_ZNK17HeadArmorCategory10canEnchantEP4Item = 0x12d9c4
_ZNK14WeaponCategory10canEnchantEP4Item = 0x12da1c
_ZNK14DiggerCategory10canEnchantEP4Item = 0x12da60
_ZNK18FishingRodCategory10canEnchantEP4Item = 0x12daa4
_ZNK17BreakableCategory10canEnchantEP4Item = 0x12dae8
_ZNK11BowCategory10canEnchantEP4Item = 0x12daf0
_ZNK16WearableCategory10canEnchantEP4Item = 0x12db34
_ZNSt3__18weak_ptrI26ClientboundKeepAlivePacketED2Ev = 0x12ddd4
_ZNSt3__18weak_ptrI32ClientboundPlayerAbilitiesPacketED2Ev = 0x12de44
_ZNSt3__18weak_ptrI31ClientboundSetCarriedItemPacketED2Ev = 0x12de94
_ZNSt3__18weak_ptrI33ClientboundSetSpawnPositionPacketED2Ev = 0x12df2c
_ZNSt3__18weak_ptrI24ClientboundSetTimePacketED2Ev = 0x12df3c
_ZNSt3__18weak_ptrI16DisconnectPacketED2Ev = 0x12e034
_ZNSt3__120__shared_ptr_pointerIP26ClientboundKeepAlivePacketNS_14default_deleteIS1_EENS_9allocatorIS1_EEED0Ev = 0x12e404
_ZNSt3__120__shared_ptr_pointerIP26ClientboundKeepAlivePacketNS_14default_deleteIS1_EENS_9allocatorIS1_EEE16__on_zero_sharedEv = 0x12e428
_ZNKSt3__120__shared_ptr_pointerIP26ClientboundKeepAlivePacketNS_14default_deleteIS1_EENS_9allocatorIS1_EEE13__get_deleterERKSt9type_info = 0x12e440
_ZNSt3__120__shared_ptr_pointerIP26ClientboundKeepAlivePacketNS_14default_deleteIS1_EENS_9allocatorIS1_EEE21__on_zero_shared_weakEv = 0x12e45c
_ZNSt3__110shared_ptrI26ClientboundKeepAlivePacketEC2IS1_EERKNS_8weak_ptrIT_EENS_9enable_ifIXsr14is_convertibleIPS5_PS1_EE5valueENS2_5__natEE4typeE = 0x12e460
_ZNSt3__15dequeINS_10shared_ptrI6PacketEENS_9allocatorIS3_EEE20__add_front_capacityEv = 0x12f20c
_ZNSt3__15dequeINS_10shared_ptrI6PacketEENS_9allocatorIS3_EEE19__add_back_capacityEv = 0x12f4c4
_ZNSt3__114__split_bufferIPNS_10shared_ptrI6PacketEENS_9allocatorIS4_EEE10push_frontERKS4_ = 0x12f6f4
_ZNSt3__114__split_bufferIPNS_10shared_ptrI6PacketEENS_9allocatorIS4_EEE10push_frontEOS4_ = 0x12f820
_ZNSt3__114__split_bufferIPNS_10shared_ptrI6PacketEENS_9allocatorIS4_EEE9push_backEOS4_ = 0x12f94c
_ZNSt3__114__split_bufferIPNS_10shared_ptrI6PacketEERNS_9allocatorIS4_EEEC2EmmS7_ = 0x12fa70
_ZNSt3__114__split_bufferIPNS_10shared_ptrI6PacketEERNS_9allocatorIS4_EEE9push_backEOS4_ = 0x12fad0
_ZNSt3__114__split_bufferIPNS_10shared_ptrI6PacketEERNS_9allocatorIS4_EEED2Ev = 0x12fbf4
_ZNSt3__114__split_bufferIPNS_10shared_ptrI6PacketEERNS_9allocatorIS4_EEE18__construct_at_endINS_13move_iteratorIPS4_EEEENS_9enable_ifIXsr21__is_forward_iteratorIT_EE5valueEvE4typeESE_SE_ = 0x12fc28
_ZNSt3__114__split_bufferIPNS_10shared_ptrI6PacketEERNS_9allocatorIS4_EEE10push_frontERKS4_ = 0x12fc94
_ZNSt3__18weak_ptrI31ClientboundOpenSignEditorPacketED2Ev = 0x12fe80
_ZNSt3__110shared_ptrI31ClientboundOpenSignEditorPacketEC2IS1_EERKNS_8weak_ptrIT_EENS_9enable_ifIXsr14is_convertibleIPS5_PS1_EE5valueENS2_5__natEE4typeE = 0x12fe90
_ZNSt3__120__shared_ptr_pointerIP26ServerboundKeepAlivePacketNS_14default_deleteIS1_EENS_9allocatorIS1_EEED0Ev = 0x12fed0
_ZNSt3__120__shared_ptr_pointerIP26ServerboundKeepAlivePacketNS_14default_deleteIS1_EENS_9allocatorIS1_EEE16__on_zero_sharedEv = 0x12fef4
_ZNKSt3__120__shared_ptr_pointerIP26ServerboundKeepAlivePacketNS_14default_deleteIS1_EENS_9allocatorIS1_EEE13__get_deleterERKSt9type_info = 0x12ff0c
_ZNSt3__120__shared_ptr_pointerIP26ServerboundKeepAlivePacketNS_14default_deleteIS1_EENS_9allocatorIS1_EEE21__on_zero_shared_weakEv = 0x12ff28
_ZNSt3__110shared_ptrI26ServerboundKeepAlivePacketED2Ev = 0x12ff2c
_ZNSt3__18weak_ptrI26ServerboundKeepAlivePacketED2Ev = 0x12ff3c
_ZNSt3__110shared_ptrI32ClientboundPlayerAbilitiesPacketEC2IS1_EERKNS_8weak_ptrIT_EENS_9enable_ifIXsr14is_convertibleIPS5_PS1_EE5valueENS2_5__natEE4typeE = 0x12ff4c
_ZNSt3__18weak_ptrI29ClientboundPlayerCombatPacketED2Ev = 0x12ff8c
_ZNSt3__110shared_ptrI29ClientboundPlayerCombatPacketEC2IS1_EERKNS_8weak_ptrIT_EENS_9enable_ifIXsr14is_convertibleIPS5_PS1_EE5valueENS2_5__natEE4typeE = 0x12ff9c
_ZNSt3__18weak_ptrI28ClientboundPlayerSleepPacketED2Ev = 0x13002c
_ZNSt3__110shared_ptrI28ClientboundPlayerSleepPacketEC2IS1_EERKNS_8weak_ptrIT_EENS_9enable_ifIXsr14is_convertibleIPS5_PS1_EE5valueENS2_5__natEE4typeE = 0x13003c
_ZNSt3__18weak_ptrI26ClientboundSetBorderPacketED2Ev = 0x1302c8
_ZNSt3__110shared_ptrI26ClientboundSetBorderPacketEC2IS1_EERKNS_8weak_ptrIT_EENS_9enable_ifIXsr14is_convertibleIPS5_PS1_EE5valueENS2_5__natEE4typeE = 0x1302d8
_ZNSt3__110shared_ptrI31ClientboundSetCarriedItemPacketEC2IS1_EERKNS_8weak_ptrIT_EENS_9enable_ifIXsr14is_convertibleIPS5_PS1_EE5valueENS2_5__natEE4typeE = 0x130368
_ZNSt3__110shared_ptrI33ClientboundSetSpawnPositionPacketEC2IS1_EERKNS_8weak_ptrIT_EENS_9enable_ifIXsr14is_convertibleIPS5_PS1_EE5valueENS2_5__natEE4typeE = 0x130e88
_ZNSt3__110shared_ptrI24ClientboundSetTimePacketEC2IS1_EERKNS_8weak_ptrIT_EENS_9enable_ifIXsr14is_convertibleIPS5_PS1_EE5valueENS2_5__natEE4typeE = 0x130ec8
_ZNSt3__16vectorIP3TagNS_9allocatorIS2_EEE21__push_back_slow_pathIS2_EEvOT_ = 0x135edc
_ZNSt3__114__split_bufferIP3TagRNS_9allocatorIS2_EEEC2EmmS5_ = 0x135f94
_ZNSt3__16vectorIP3TagNS_9allocatorIS2_EEE26__swap_out_circular_bufferERNS_14__split_bufferIS2_RS4_EE = 0x135ff4
_ZNSt3__114__split_bufferIP3TagRNS_9allocatorIS2_EEED2Ev = 0x13606c
_ZNKSt3__16vectorIP3TagNS_9allocatorIS2_EEE8max_sizeEv = 0x1360a0
_ZNSt3__112__hash_tableINS_17__hash_value_typeINS_12basic_stringIwNS_11char_traitsIwEENS_9allocatorIwEEEEPK9DirectionEENS_22__unordered_map_hasherIS7_SB_NS_4hashIS7_EELb1EEENS_21__unordered_map_equalIS7_SB_NS_8equal_toIS7_EELb1EEENS5_ISB_EEE21__construct_node_hashIRKNS_21piecewise_construct_tEJNS_5tupleIJRKS7_EEENSQ_IJEEEEEENS_10unique_ptrINS_11__hash_nodeISB_PvEENS_22__hash_node_destructorINS5_ISY_EEEEEEmOT_DpOT0_ = 0x13a18c
_ZNSt3__112__hash_tableINS_17__hash_value_typeINS_12basic_stringIwNS_11char_traitsIwEENS_9allocatorIwEEEEPK9DirectionEENS_22__unordered_map_hasherIS7_SB_NS_4hashIS7_EELb1EEENS_21__unordered_map_equalIS7_SB_NS_8equal_toIS7_EELb1EEENS5_ISB_EEE6rehashEm = 0x13a204
_ZNSt3__16vectorIPK9DirectionNS_9allocatorIS3_EEE21__push_back_slow_pathIS3_EEvOT_ = 0x13a5f8
_ZNSt3__114__split_bufferIPK9DirectionRNS_9allocatorIS3_EEEC2EmmS6__0 = 0x13a6b0
_ZNSt3__110shared_ptrI16DisconnectPacketEC2IS1_EERKNS_8weak_ptrIT_EENS_9enable_ifIXsr14is_convertibleIPS5_PS1_EE5valueENS2_5__natEE4typeE = 0x13ef9c
vtbl_7101052D30_func_0 = 0x147a40
vtbl_7101052D30_func_1 = 0x147a78
_ZN6Entity5getIdEv = 0x151064
_ZN6Entity10staticCtorEv = 0x1512e0
_ZN6Entity4initEbP5Level = 0x15140c
_ZN15arrayWithLengthIdEC2Ejb = 0x1516fc
_ZN6EntityC1EP5Levelb = 0x151740
_ZN6EntityD0Ev = 0x151ab4
_ZN6Entity18fjDerivedCtorCallsEv = 0x151ae8
_ZN6Entity4killEv = 0x151b24
_ZN6Entity8resetPosEv = 0x151b4c
_ZN6Entity6removeEv = 0x151c54
_ZN6Entity23setDropContainerContentEb = 0x151c68
_ZN6Entity7setSizeEff = 0x151c6c
_ZN6Entity6setRotEff = 0x151dac
_ZN6Entity6setPosEddd = 0x151dec
_ZN6Entity15interpolateTurnEff = 0x151e60
_ZN6Entity4tickEv = 0x151eb8
_ZN6Entity13setSharedFlagEib = 0x151f20
_ZN6Entity8baseTickEv = 0x151f9c
_ZN6Entity15isInWaterOrRainEv = 0x152468
_ZN6Entity21processDimensionDelayEv = 0x1525a8
_ZN6Entity17getPortalWaitTimeEv = 0x1525bc
_ZN6Entity16setSecondsOnFireEi = 0x1525c4
_ZN6Entity9clearFireEv = 0x15264c
_ZN6Entity10outOfWorldEv = 0x152654
_ZN6Entity4moveE9MoverTypedddb = 0x152748
_ZN6Entity20updateDeltaAfterMoveEP5BlockdddRdS2_S2_ = 0x153c44
_ZN6Entity26setLocationFromBoundingboxEv = 0x153ce8
_ZN6Entity12getSwimSoundEv = 0x153d44
_ZN6Entity18getSwimSplashSoundEv = 0x153d54
_ZN6Entity17checkInsideBlocksEv = 0x153d64
_ZN6Entity13onInsideBlockEPK10BlockState = 0x153f7c
_ZN6Entity13playStepSoundERK8BlockPosP5Block = 0x153f80
_ZN6Entity12playFlySoundEf = 0x154130
_ZN6Entity12makeFlySoundEv = 0x154138
_ZN6Entity9playSoundEPK10SoundEventff = 0x1541d4
_ZN6Entity8isSilentEv = 0x154290
_ZN6Entity9setSilentEb = 0x1542a4
_ZN6Entity11isNoGravityEv = 0x1542c4
_ZN6Entity12setNoGravityEb = 0x1542d8
_ZN6Entity13makeStepSoundEv = 0x1542f8
_ZN6Entity15checkFallDamageEdbP5BlockRK8BlockPos = 0x154300
_ZN6Entity13getCollideBoxEv = 0x1543c4
_ZN6Entity4burnEi = 0x1543cc
_ZN6Entity15causeFallDamageEff = 0x154400
_ZN6Entity9isInWaterEv = 0x15451c
_ZN6Entity11isOverWaterEv = 0x154524
_ZN6Entity18updateInWaterStateEv = 0x1545c0
_ZN6Entity19doWaterSplashEffectEv = 0x154744
_ZN6Entity20updateSprintingStateEv = 0x154b04
_ZN6Entity22doSprintParticleEffectEv = 0x154b5c
_ZN6Entity13isUnderLiquidEP8Material = 0x154cdc
_ZN6Entity13getLightColorEv = 0x154f40
_ZN6Entity13getBrightnessEv = 0x155004
_ZN6Entity8setLevelEP5Level = 0x1550b0
_ZN6Entity6moveToEdddff = 0x1552e0
_ZN6Entity11playerTouchESt10shared_ptrI6PlayerE = 0x15552c
_ZN6Entity4pushESt10shared_ptrIS_E = 0x155530
_ZN6Entity4pushEddd = 0x1556b4
_ZN6Entity8markHurtEv = 0x1556e8
_ZN6Entity4hurtEP12DamageSourcef = 0x1556f4
_ZN6Entity13getViewVectorEf = 0x155744
_ZN6Entity19calculateViewVectorEff = 0x155780
_ZN6Entity10isPickableEv = 0x155e10
_ZN6Entity10isPushableEv = 0x155e18
_ZN6Entity14awardKillScoreESt10shared_ptrIS_EiP12DamageSource = 0x155e20
_ZN6Entity12shouldRenderEddd = 0x155e24
_ZN6Entity12shouldRenderEd = 0x155e58
_ZN6Entity25shouldRenderAtSqrDistanceEd = 0x155e64
_ZN6Entity4saveEP11CompoundTag = 0x156880
_ZN6Entity14addDataWalkersEP14DataFixerUpper = 0x156990
_ZN6Entity13getSharedFlagEi = 0x156bb0
_ZN6Entity4loadEP11CompoundTag = 0x156bf4
_ZN6Entity12setAirSupplyEi = 0x157598
_ZN6Entity25repositionEntityAfterLoadEv = 0x1575b8
_ZN6Entity25getAdditionContructionTagEv = 0x1575d4
_ZN6Entity15spawnAtLocationEP4Itemi = 0x1575dc
_ZN6Entity15spawnAtLocationEP4Itemif = 0x1575ec
_ZN6Entity15spawnAtLocationE12not_null_ptrI12ItemInstanceEf = 0x157684
_ZNK12ItemInstance7isEmptyEv = 0x157794
_ZN6Entity7isAliveEv = 0x157804
_ZN6Entity8isInWallEv = 0x157814
_ZN6Entity8interactERKSt10shared_ptrI6PlayerEN15InteractionHand16EInteractionHandE = 0x157a20
_ZN6Entity20getCollideAgainstBoxESt10shared_ptrIS_E = 0x157a28
_ZN6Entity8rideTickEv = 0x157a30
_ZN6Entity13positionRiderERKSt10shared_ptrIS_E = 0x157c3c
_ZN6Entity17onPassengerTurnedESt10shared_ptrIS_E = 0x157d24
_ZN6Entity15getRidingHeightEv = 0x157d28
_ZN6Entity13getRideHeightEv = 0x157d30
_ZN6Entity11startRidingESt10shared_ptrIS_E = 0x157d44
_ZN6Entity11startRidingESt10shared_ptrIS_Eb = 0x157da8
_ZN6Entity18GetInteractTooltipERK23EntityTooltipDataHolder = 0x157fa4
_ZN4Item5getIdEv = 0x1580e8
_ZNK12ItemInstance7getItemEv = 0x158108
_ZN12ItemInstance18hasCustomHoverNameEv = 0x158128
_ZN12ItemInstance12getHoverNameEv = 0x1581e0
_ZN6Entity13GetHitTooltipERK23EntityTooltipDataHolder = 0x158470
_ZN6Entity15HideUseTooltipsEv = 0x158488
_ZN6Entity7canRideESt10shared_ptrIS_E = 0x158490
_ZN6Entity15ejectPassengersEv = 0x1584a0
_ZN6Entity10stopRidingEv = 0x158544
_ZN6Entity24stopRidingBeforeTeleportEv = 0x1587d4
_ZN6Entity12addPassengerESt10shared_ptrIS_E = 0x15882c
_ZN6Entity15removePassengerESt10shared_ptrIS_E = 0x158ab8
_ZN6Entity15canAddPassengerESt10shared_ptrIS_E = 0x158d3c
_ZN6Entity6lerpToEdddffib = 0x158d64
_ZN6Entity13getPickRadiusEv = 0x158da8
_ZN6Entity12getLookAngleEv = 0x158db0
_ZN6Entity17getRotationVectorEv = 0x158db8
_ZN6Entity10getForwardEv = 0x158dc0
_ZN6Entity18handleInsidePortalERK8BlockPos = 0x158ddc
_ZN6Entity25getDimensionChangingDelayEv = 0x159004
_ZN6Entity10lerpMotionEddd = 0x15900c
_ZN6Entity17handleEntityEventEhi = 0x15901c
_ZN4Item4byIdEi = 0x159088
_ZN6Entity11animateHurtEv = 0x1590a0
_ZN6Entity12getHandSlotsEv = 0x1590a4
_ZN6Entity13getArmorSlotsEv = 0x1590ac
_ZN6Entity11getAllSlotsEv = 0x1590b4
_ZN6Entity11setItemSlotEPK13EquipmentSlot12not_null_ptrI12ItemInstanceE = 0x159234
_ZN6Entity8isOnFireEv = 0x159238
_ZN6Entity11isPassengerEv = 0x159294
_ZN6Entity9isVehicleEv = 0x1592a4
_ZN6Entity10isSneakingEv = 0x1592cc
_ZN6Entity11setSneakingEb = 0x1592d4
_ZN6Entity6isIdleEv = 0x1592e0
_ZN6Entity9setIsIdleEb = 0x1592e8
_ZN6Entity11isSprintingEv = 0x1592f4
_ZN6Entity12setSprintingEb = 0x1592fc
_ZN6Entity9isGlowingEv = 0x159308
_ZN6Entity10setGlowingEb = 0x159334
_ZN6Entity11isInvisibleEv = 0x159354
_ZN6Entity13isInvisibleToESt10shared_ptrI6PlayerE = 0x15935c
_ZN6Entity7getTeamEv = 0x1593a8
_ZN6Entity10isAlliedToESt10shared_ptrIS_E = 0x159450
_ZN6Entity10isAlliedToEP4Team = 0x159494
_ZN6Entity12setInvisibleEb = 0x1594ec
_ZN6Entity18ShouldRenderShadowEv = 0x1594f8
_ZN6Entity6canFlyEv = 0x159500
_ZN6Entity6getPosEf = 0x159508
_ZN6Entity12getAttachPosEN6Entity15EEntityLocationEf = 0x159558
_ZN6Entity10isWeakenedEv = 0x159628
_ZN6Entity11setWeakenedEb = 0x159630
_ZN6Entity10thunderHitEPK13LightningBolt = 0x15963c
_ZN6Entity6killedESt10shared_ptrI12LivingEntityE = 0x1596a0
_ZN6Entity12checkInBlockEddd = 0x1596a4
_ZN6Entity14makeStuckInWebEv = 0x1599f0
_ZN6Entity7getNameEv = 0x159a10
_ZN6Entity16isInvulnerableToEP12DamageSource = 0x159a80
_ZN6Entity14isInvulnerableEv = 0x159ae8
_ZN6Entity15setInvulnerableEb = 0x159af0
_ZN6Entity17spawnEatParticlesERK12ItemInstancei = 0x159afc
_ZN6Entity14getSubEntitiesEv = 0x159b00
_ZN6Entity2isESt10shared_ptrIS_E = 0x159b08
_ZN6Entity11getYHeadRotEv = 0x159b58
_ZN6Entity11setYHeadRotEf = 0x159b60
_ZN6Entity11setYBodyRotEf = 0x159b64
_ZN6Entity12isAttackableEv = 0x159b68
_ZN6Entity21skipAttackInteractionESt10shared_ptrIS_E = 0x159b70
_ZN6Entity12copyPositionESt10shared_ptrIS_E = 0x159b78
_ZN6Entity15changeDimensionEi = 0x159c8c
_ZN6Entity19canChangeDimensionsEv = 0x15a308
_ZN6Entity27getBlockExplosionResistanceEP9ExplosionP5LevelRK8BlockPos = 0x15a310
_ZN6Entity18shouldBlockExplodeEP9ExplosionP5LevelRK8BlockPosf = 0x15a390
_ZN6Entity18getMaxFallDistanceEv = 0x15a398
_ZN6Entity22getPortalEntranceBlockEv = 0x15a3a0
_ZN6Entity23getPortalEntranceOffsetEv = 0x15a3b4
_ZN6Entity25getPortalEntranceForwardsEv = 0x15a3bc
_ZN6Entity23isIgnoringBlockTriggersEv = 0x15a3c4
_ZN6Entity20displayFireAnimationEv = 0x15a3cc
_ZN6Entity7setUUIDERKNSt7__cxx1112basic_stringIwSt11char_traitsIwESaIwEEE = 0x15a3d8
_ZN6Entity7getUUIDEv = 0x15a408
_ZN6Entity13getStringUUIDEv = 0x15a414
_ZN6Entity15isPushedByWaterEv = 0x15a420
_ZN6Entity12getViewScaleEv = 0x15a428
_ZN6Entity12setViewScaleEd = 0x15a438
_ZN6Entity14getNetworkNameEv = 0x15a448
_ZN6Entity14getDisplayNameEv = 0x15a454
_ZN6Entity13setCustomNameERKNSt7__cxx1112basic_stringIwSt11char_traitsIwESaIwEEES7_b = 0x15a460
_ZN6Entity13getCustomNameEv = 0x15a590
_ZN6Entity13hasCustomNameEv = 0x15a5e0
_ZN6Entity20setCustomNameVisibleEb = 0x15a6fc
_ZN6Entity19isCustomNameVisibleEv = 0x15a71c
_ZN6Entity10teleportToEddd = 0x15a730
_ZN6Entity14shouldShowNameEv = 0x15a7a8
_ZN6Entity19onSyncedDataUpdatedEPK23EntityDataAccessor_Base = 0x15a7b4
_ZN6Entity12getDirectionEv = 0x15a7b8
_ZN6Entity18getMotionDirectionEv = 0x15a7f4
_ZN6Entity17broadcastToPlayerESt10shared_ptrI12ServerPlayerE = 0x15a800
_ZN6Entity14getBoundingBoxEv = 0x15a808
_ZN6Entity24getBoundingBoxForCullingEv = 0x15a810
_ZN6Entity14setBoundingBoxEP4AABB = 0x15a81c
_ZN6Entity12getEyeHeightEv = 0x15a824
_ZN6Entity20isOutsideWorldBorderEv = 0x15a838
_ZN6Entity21setOutsideWorldBorderEb = 0x15a840
_ZN6Entity7setSlotEiRK12not_null_ptrI12ItemInstanceE = 0x15a84c
vtbl_71010534A0_func_2 = 0x15a854
vtbl_71010534A0_func_3 = 0x15a858
vtbl_71010534A0_func_5 = 0x15a860
vtbl_71010534A0_func_6 = 0x15a898
vtbl_71010534A0_func_7 = 0x15a8a4
vtbl_71010534A0_func_8 = 0x15a8ac
vtbl_71010534A0_func_9 = 0x15a8bc
vtbl_71010534A0_func_10 = 0x15a8c4
vtbl_71010534A0_func_11 = 0x15a97c
_ZN6Entity10interactAtERKSt10shared_ptrI6PlayerEP4Vec3N15InteractionHand16EInteractionHandE = 0x15a98c
_ZN6Entity15ignoreExplosionEv = 0x15a994
_ZN6Entity22doEnchantDamageEffectsESt10shared_ptrI12LivingEntityESt10shared_ptrI6EntityE = 0x15a99c
_ZN6Entity17startSeenByPlayerESt10shared_ptrI12ServerPlayerE = 0x15aa54
_ZN6Entity16stopSeenByPlayerESt10shared_ptrI12ServerPlayerE = 0x15aa58
_ZN6Entity6rotateEP8Rotation = 0x15aa5c
_ZN6Entity6mirrorEP6Mirror = 0x15aad4
_ZN6Entity23getControllingPassengerEv = 0x15ab30
_ZN6Entity15onlyOpCanSetNbtEv = 0x15ab78
_ZN6Entity27checkAndResetTeleportedFlagEv = 0x15ab80
_ZN6Entity13getPassengersEv = 0x15ab90
_ZN6Entity12hasPassengerESt10shared_ptrIS_E = 0x15ab98
_ZN6Entity12hasPassengerE11eINSTANCEOF = 0x15ac28
_ZN6Entity22fillIndirectPassengersE11eINSTANCEOFPSt3setISt10shared_ptrIS_ESt4lessIS3_ESaIS3_EE = 0x15acb8
_ZN6Entity21getIndirectPassengersE11eINSTANCEOF = 0x15ad64
_ZN6Entity21getIndirectPassengersEv = 0x15adbc
_ZN6Entity20hasIndirectPassengerESt10shared_ptrIS_E = 0x15ae10
_ZN6Entity20hasIndirectPassengerE11eINSTANCEOF = 0x15aee8
_ZN6Entity27isControlledByLocalInstanceEv = 0x15af78
_ZN6Entity10getVehicleEv = 0x15b00c
_ZN6Entity21getPistonPushReactionEv = 0x15b028
_ZN6Entity14getRootVehicleEv = 0x15b030
_ZN6Entity24isPassengerOfSameVehicleESt10shared_ptrIS_E = 0x15b0bc
_ZN6Entity14getSoundSourceEv = 0x15b128
_ZN6Entity10isCreativeEv = 0x15b130
_ZN6Entity18isDespawnProtectedEv = 0x15b144
_ZN6Entity19setDespawnProtectedEv = 0x15b14c
_ZN6Entity11couldWanderEv = 0x15b150
_ZN6Entity18canCreateParticlesEv = 0x15b158
_ZN6Entity15stopCurrentLerpEv = 0x15b160
_ZN6Entity18getFireImmuneTicksEv = 0x15b1e0
makeIdMap = 0x15c518
_ZN8EntityIO9bootStrapEv = 0x15ea28
_ZN13EquipmentSlot10staticCtorEv = 0x164340
_ZNK13EquipmentSlot8getIndexEv = 0x164634
_ZN16EvocationIllager14addDataWalkersEP14DataFixerUpper = 0x1656ec
_ZN9GameRules10getBooleanEi = 0x166888
_ZN4ItemC1Ev = 0x166b4c
_ZN12ItemInstance6shrinkEi = 0x166f20
_ZN6Random6randomEv = 0x1672a0
_ZN12ItemInstance9isDamagedEv = 0x167cf8
_ZN17ExtremeHillsBiomeC1EN5Biome9EBiomeIDsEN17ExtremeHillsBiome5ETypeEPN5Biome15BiomePropertiesE = 0x169910
_ZN16EyeOfEnderSignal8signalToERK8BlockPos = 0x169fac
_ZN10AnvilBlock7onPlaceEP5LevelRK8BlockPosPK10BlockState = 0x16a894
_ZN10AnvilBlock15neighborChangedEPK10BlockStateP5LevelRK8BlockPosP5BlockRK8BlockPos = 0x16a8f0
_ZN10AnvilBlock4tickEP5LevelRK8BlockPosPK10BlockStateP6Random = 0x16a950
_ZN10AnvilBlock12getTickDelayEP5Level = 0x16ac94
_ZN10AnvilBlock11animateTickEPK10BlockStateP5LevelRK8BlockPosP6Random = 0x16aca4
_ZN18FallingBlockEntity10staticCtorEv = 0x16ade8
_ZNK9HitResult11getBlockPosEv = 0x16b984
_ZN18FallingBlockEntity14addDataWalkersEP14DataFixerUpper = 0x16bc60
_ZN9FarmBlock8getShapeEPK10BlockStateP11LevelSourceRK8BlockPos = 0x16c4f4
_ZNK9FarmBlock13isSolidRenderEPK10BlockState = 0x16c504
_ZN9FarmBlock12isCubeShapedEPK10BlockState = 0x16c50c
_ZN9FarmBlock4tickEP5LevelRK8BlockPosPK10BlockStateP6Random = 0x16c514
_ZN9FarmBlock6fallOnEP5LevelRK8BlockPosSt10shared_ptrI6EntityEf = 0x16c6f8
_ZN9FarmBlock20getCloneItemInstanceEP5LevelRK8BlockPosPK10BlockState = 0x16c7f4
_ZN4Item7byBlockEP5Block = 0x16c878
_ZN9FarmBlock15neighborChangedEPK10BlockStateP5LevelRK8BlockPosP5BlockRK8BlockPos = 0x16ca8c
_ZN9FarmBlock7onPlaceEP5LevelRK8BlockPosPK10BlockState = 0x16cb10
_ZN9FarmBlock16shouldRenderFaceEPK10BlockStateP11LevelSourceRK8BlockPosPK9Direction = 0x16cb90
_ZN9FarmBlock11getResourceEPK10BlockStateP6Randomi = 0x16cca4
_ZN9FarmBlock13getBlockStateEi = 0x16cd1c
_ZN9FarmBlock29convertBlockStateToLegacyDataEPK10BlockState = 0x16cd4c
_ZN9FarmBlock26createBlockStateDefinitionEv = 0x16cd64
_ZN9FarmBlock17getBlockFaceShapeEP11LevelSourcePK10BlockStateRK8BlockPosPK9Direction = 0x16cdd4
_ZN9FarmBlock10getTextureEPK9DirectionPK10BlockState = 0x16cdf0
_ZN9FarmBlock13registerIconsEP12IconRegister = 0x16ce68
_ZN7FeatureC2Eb = 0x16cf28
_ZN7Feature4initEv = 0x16cf44
_ZN7Feature8setBlockEP5LevelRK8BlockPosPK10BlockState = 0x16cf48
_ZN10FenceBlock17addCollisionAABBsEPK10BlockStateP5LevelRK8BlockPosPK4AABBPSt6vectorIP4AABBSt9allocatorIP4AABBEESt10shared_ptrI6EntityEb = 0x16d068
_ZN10FenceBlock8getShapeEPK10BlockStateP11LevelSourceRK8BlockPos = 0x16d250
_ZNK10FenceBlock13isSolidRenderEPK10BlockState = 0x16d36c
_ZN10FenceBlock12isCubeShapedEPK10BlockState = 0x16d374
_ZN10FenceBlock14isPathfindableEP11LevelSourceRK8BlockPos = 0x16d37c
_ZN10FenceBlock16shouldRenderFaceEPK10BlockStateP11LevelSourceRK8BlockPosPK9Direction = 0x16d4f0
_ZN10FenceBlock3useEP5LevelRK8BlockPosPK10BlockStateSt10shared_ptrI6PlayerEN15InteractionHand16EInteractionHandEPK9Directionfffb = 0x16d4f8
_ZN10FenceBlock29convertBlockStateToLegacyDataEPK10BlockState = 0x16d590
_ZN10FenceBlock31fillVirtualBlockStatePropertiesEPK10BlockStateP11LevelSourceRK8BlockPos = 0x16d598
_ZN10FenceBlock6rotateEPK10BlockStateP8Rotation = 0x16d724
_ZN10FenceBlock6mirrorEPK10BlockStateP6Mirror = 0x16d894
_ZN10FenceBlock26createBlockStateDefinitionEv = 0x16d95c
_ZN10FenceBlock17getBlockFaceShapeEP11LevelSourcePK10BlockStateRK8BlockPosPK9Direction = 0x16da44
_ZN10FenceBlock13registerIconsEP12IconRegister = 0x16da70
_ZN10FenceBlock14getRenderShapeEPK10BlockState = 0x16daa8
_ZN10FenceBlock18GetInteractTooltipERK22BlockTooltipDataHolder = 0x16dab0
_ZN14FenceGateBlock8getShapeEPK10BlockStateP11LevelSourceRK8BlockPos = 0x16dc38
_ZN14FenceGateBlock31fillVirtualBlockStatePropertiesEPK10BlockStateP11LevelSourceRK8BlockPos = 0x16dcd0
_ZN14FenceGateBlock6rotateEPK10BlockStateP8Rotation = 0x16de7c
_ZN14FenceGateBlock6mirrorEPK10BlockStateP6Mirror = 0x16ded4
_ZN14FenceGateBlock8mayPlaceEP5LevelRK8BlockPos = 0x16df3c
_ZN14FenceGateBlock11getClipAABBEPK10BlockStateP11LevelSourceRK8BlockPos = 0x16dfd0
_ZNK14FenceGateBlock13isSolidRenderEPK10BlockState = 0x16e050
_ZN14FenceGateBlock12isCubeShapedEPK10BlockState = 0x16e058
_ZN14FenceGateBlock14isPathfindableEP11LevelSourceRK8BlockPos = 0x16e060
_ZN14FenceGateBlock20getStateForPlacementEP5LevelRK8BlockPosPK9DirectionfffiSt10shared_ptrI12LivingEntityE = 0x16e090
_ZN14FenceGateBlock3useEP5LevelRK8BlockPosPK10BlockStateSt10shared_ptrI6PlayerEN15InteractionHand16EInteractionHandEPK9Directionfffb = 0x16e13c
_ZN14FenceGateBlock15neighborChangedEPK10BlockStateP5LevelRK8BlockPosP5BlockRK8BlockPos = 0x16e2e8
_ZN14FenceGateBlock16shouldRenderFaceEPK10BlockStateP11LevelSourceRK8BlockPosPK9Direction = 0x16e3ec
_ZN14FenceGateBlock13getBlockStateEi = 0x16e3f4
_ZN14FenceGateBlock29convertBlockStateToLegacyDataEPK10BlockState = 0x16e468
_ZN14FenceGateBlock18GetInteractTooltipERK22BlockTooltipDataHolder = 0x16e4e0
_ZN14FenceGateBlock26createBlockStateDefinitionEv = 0x16e508
_ZN14FenceGateBlock17getBlockFaceShapeEP11LevelSourcePK10BlockStateRK8BlockPosPK9Direction = 0x16e5a4
_ZN14FenceGateBlock13registerIconsEP12IconRegister = 0x16e69c
_ZN14FenceGateBlock14getRenderShapeEPK10BlockState = 0x16e6d4
_ZN4FileC1Ev = 0x16e6dc
_ZN4FileC1ERKS_RKNSt3__112basic_stringIwNS2_11char_traitsIwEENS2_9allocatorIwEEEE = 0x16e6f0
_ZNSt3__1plIwNS_11char_traitsIwEENS_9allocatorIwEEEENS_12basic_stringIT_T0_T1_EERKS9_S6_ = 0x16e7f8
_ZNK4File7getPathEv = 0x16e850
_ZN4FileC1ERKNSt3__112basic_stringIwNS0_11char_traitsIwEENS0_9allocatorIwEEEE = 0x16e860
_ZN4File7_deleteEv = 0x16e940
_ZNK4File5mkdirEv = 0x16e998
_ZNK4File6existsEv = 0x16e9e8
_Z11isDirectoryRKNSt3__112basic_stringIwNS_11char_traitsIwEENS_9allocatorIwEEEE = 0x16ea34
_ZN4File8renameToE4File = 0x16ea94
_ZNK4File9listFilesEv = 0x16eb60
_ZN4File6lengthEv = 0x16ec84
_ZNK4File7getNameEv = 0x16ed14
_ZNK4File3extEv = 0x16ed7c
__ct__10FileHeaderFv = 0x16efd8
Reset__10FileHeaderFv = 0x16f06c
AddFile__10FileHeaderFRCQ2_3std78basic_string__tm__58_wQ2_3std20char_traits__tm__2_wQ2_3std18allocator__tm__2_wUi = 0x16f130
_ZN10FileHeader18GetStartOfNextDataEv = 0x16f2b4
_ZN9FileEntryC1EPwjj = 0x16f330
RemoveFile__10FileHeaderFP9FileEntry = 0x16f414
AdjustStartOffsets__10FileHeaderFP9FileEntryUib = 0x16f4e4
WriteHeader__10FileHeaderFPv = 0x16f5a8
ReadHeader__10FileHeaderFPv13ESavePlatform = 0x16f63c
_ZN10FileHeader11GetFileSizeEv = 0x16f9a4
fileExists__10FileHeaderFRCQ2_3std78basic_string__tm__58_wQ2_3std20char_traits__tm__2_wQ2_3std18allocator__tm__2_w = 0x16f9d8
getEndian__10FileHeaderSF13ESavePlatform = 0x170650
_ZN15FileInputStreamC1ERK4File = 0x170718
_ZN15FileInputStreamD2Ev = 0x1707fc
_ZN15FileInputStream4readE15arrayWithLengthIhE = 0x1708dc
_ZN15FileInputStream8filesizeEv = 0x170a28
_ZN16FileOutputStreamC1ERK4File = 0x170a44
_ZN16FileOutputStreamD2Ev = 0x170ae4
vtbl_7101057EB0_func_1 = 0x170b24
vtbl_7101057EB0_func_2 = 0x170b48
vtbl_7101057EB0_func_3 = 0x170b7c
vtbl_7101057EB0_func_4 = 0x170ba4
_ZN16FileOutputStream5closeEv = 0x170bf4
_ZN21FireAspectEnchantmentC1EPK6Rarity15arrayWithLengthIPK13EquipmentSlotE = 0x17155c
_ZN21FireAspectEnchantment10getMinCostEi = 0x1715b4
_ZN21FireAspectEnchantment10getMaxCostEi = 0x1715c4
_ZN21FireAspectEnchantment11getMaxLevelEv = 0x1715dc
_ZN9FireBlock31fillVirtualBlockStatePropertiesEPK10BlockStateP11LevelSourceRK8BlockPos = 0x172454
_ZN9FireBlock7canBurnEP11LevelSourceRK8BlockPos = 0x172640
_ZN9FireBlockC1Ev = 0x172690
_ZN9FireBlock10staticCtorEv = 0x17279c
_ZN9FireBlock12setFlammableEP5Blockii = 0x172bd8
_ZN9FireBlock11getClipAABBEPK10BlockStateP11LevelSourceRK8BlockPos = 0x172c28
_ZNK9FireBlock13isSolidRenderEPK10BlockState = 0x172c38
_ZN9FireBlock12isCubeShapedEPK10BlockState = 0x172c40
_ZN9FireBlock16getResourceCountEP6Random = 0x172c48
_ZN9FireBlock12getTickDelayEP5Level = 0x172c50
_ZN9FireBlock4tickEP5LevelRK8BlockPosPK10BlockStateP6Random = 0x172c58
_ZN9FireBlock10isNearRainEP5LevelRK8BlockPos = 0x173360
_ZN9FireBlock19isValidFireLocationEP5LevelRK8BlockPos = 0x173438
_ZN9FireBlock12checkBurnOutEP5LevelRK8BlockPosiP6Randomi = 0x1734c8
_ZN9FireBlock11getFireOddsEP5LevelRK8BlockPos = 0x173698
_ZN9FireBlock16canInstantlyTickEv = 0x17376c
_ZN9FireBlock10getBurnOddEP5Block = 0x173774
_ZN9FireBlock12getFlameOddsEP5Block = 0x1737a4
_ZN9FireBlock7mayPickEv = 0x1737d4
_ZN9FireBlock8mayPlaceEP5LevelRK8BlockPos = 0x1737dc
_ZN9FireBlock15neighborChangedEPK10BlockStateP5LevelRK8BlockPosP5BlockS7_ = 0x173860
_ZN9FireBlock7onPlaceEP5LevelRK8BlockPosPK10BlockState = 0x1738f0
_ZN9FireBlock11animateTickEPK10BlockStateP5LevelRK8BlockPosP6Random = 0x173a3c
_ZN9FireBlock11getMapColorEPK10BlockStateP11LevelSourceRK8BlockPos = 0x174370
_ZN9FireBlock14getRenderLayerEv = 0x174380
_ZN9FireBlock13getBlockStateEi = 0x174388
_ZN9FireBlock29convertBlockStateToLegacyDataEPK10BlockState = 0x1743b8
_ZN9FireBlock26createBlockStateDefinitionEv = 0x1743d0
_ZN9FireBlock17getBlockFaceShapeEP11LevelSourcePK10BlockStateRK8BlockPosPK9Direction = 0x174488
_ZN9FireBlock13registerIconsEP12IconRegister = 0x174490
_ZN9FireBlock14getRenderShapeEPK10BlockState = 0x1744e8
_ZN9FireBlock15getTextureLayerEi = 0x1744f0
_ZN9FireBlock10getTextureEPK9DirectionPK10BlockState = 0x1744fc
_ZN4Item7getIconEi = 0x174778
_ZN4Item13registerIconsEP12IconRegister = 0x1747fc
_ZN12ItemInstance6hasTagEv = 0x1748bc
_ZN12ItemInstance6getTagEv = 0x1748dc
_ZN4Item12getLayerIconEiiRKNSt3__110shared_ptrI12ItemInstanceEE = 0x1751b0
_ZN12ItemInstance8getCountEv = 0x176a18
_ZN15FireworksRecipe22CreateNewThreadStorageEv = 0x176cac
_ZN12ItemInstance6setTagEP11CompoundTag = 0x1777c4
_ZN12ItemInstance8setCountEi = 0x177804
_ZN21FireworksRocketEntity10staticCtorEv = 0x177988
_ZN21FireworksRocketEntity14addDataWalkersEP14DataFixerUpper = 0x179210
_ZN12ItemInstance4saveEP11CompoundTag = 0x1793d4
_ZN11FishingHook10staticCtorEv = 0x179e38
_ZN4Item12setMaxDamageEi = 0x17bd40
_ZN4Item11addPropertyE16ResourceLocationPK20ItemPropertyFunction = 0x17be34
_ZN12ItemInstance12hurtAndBreakEiNSt3__110shared_ptrI12LivingEntityEE = 0x17c25c
_ZN23FishingSpeedEnchantmentD0Ev = 0x17c704
_ZN23FishingSpeedEnchantment10getMinCostEi = 0x17c728
_ZN23FishingSpeedEnchantment10getMaxCostEi = 0x17c734
_ZN23FishingSpeedEnchantment11getMaxLevelEv = 0x17c74c
_ZNK13FlatLayerInfo8getStartEv = 0x17e818
_ZN17FlatGeneratorInfoC1EP15SuperflatConfig = 0x17ed14
_ZN17FlatGeneratorInfoD2Ev = 0x17edf4
FlatGeneratorInfo__getLayers = 0x17f470
_ZNK13FlatLayerInfo13getBlockStateEv = 0x17f540
_ZNK13FlatLayerInfo9getHeightEv = 0x17f734
_ZN17FlatGeneratorInfo10hasVillageEv = 0x17f93c
_ZN17FlatGeneratorInfo10getVillageEi = 0x17f994
_ZN17FlatGeneratorInfo8getCavesEv = 0x17fa0c
_ZN17FlatGeneratorInfo10getCanyonsEv = 0x17fa9c
_ZN17FlatGeneratorInfo12hasMineshaftEv = 0x17fb1c
_ZN17FlatGeneratorInfo12getMineshaftEv = 0x17fb54
_ZN17FlatGeneratorInfo13hasStrongholdEv = 0x17fba4
_ZN17FlatGeneratorInfo13getStrongholdEv = 0x17fbfc
_ZN17FlatGeneratorInfo16hasBiomeSpecificEv = 0x17fc54
_ZN17FlatGeneratorInfo16getBiomeSpecificEv = 0x17fc8c
_ZN17FlatGeneratorInfo16hasOceanMonumentEv = 0x17fcdc
_ZN17FlatGeneratorInfo16getOceanMonumentEv = 0x17fd34
_ZN17FlatGeneratorInfo18hasWoodlandMansionEv = 0x17fd84
_ZN17FlatGeneratorInfo14hasDecorationsEv = 0x17fddc
_ZN17FlatGeneratorInfo11hasDungeonsEv = 0x17fdf4
_ZN17FlatGeneratorInfo8getLakesEv = 0x17fe24
_ZN17FlatGeneratorInfo12getLavaLakesEv = 0x17fe84
_ZN15FlatLevelSourceC1EP5LevelxbP15SuperflatConfig = 0x180c94
_ZN15FlatLevelSourceD1Ev = 0x18155c
_ZN15FlatLevelSourceD0Ev = 0x181630
_ZN15FlatLevelSource11createChunkEii = 0x1816b0
_ZN15FlatLevelSource11postProcessEii = 0x1818b8
_ZN15FlatLevelSource22postProcessLoadedChunkEP10LevelChunkii = 0x181cb4
_ZN15FlatLevelSource9getMobsAtEP11MobCategoryRK8BlockPos = 0x181cbc
_ZN15FlatLevelSource21findNearestMapFeatureEP5LevelRKNSt3__112basic_stringIwNS2_11char_traitsIwEENS2_9allocatorIwEEEERK8BlockPosb = 0x181d48
_ZN15FlatLevelSource14isPosInFeatureEP5LevelRKNSt3__112basic_stringIwNS2_11char_traitsIwEENS2_9allocatorIwEEEERK8BlockPos = 0x18215c
_ZN15FlatLevelSource31recreateLogicStructuresForChunkEP10LevelChunkii = 0x1821a4
_ZN14FlexiblePacket4readEP15DataInputStream = 0x1825cc
_ZN14FlexiblePacket5writeEP16DataOutputStream = 0x18284c
_ZN14FlexiblePacket16getEstimatedSizeEv = 0x1829ec
_ZN8FloatTagC2Ev = 0x1833d8
_ZN8FloatTagC2Ef = 0x18340c
_ZN8FloatTag5writeEP10DataOutput = 0x18344c
_ZN8FloatTag4loadEP9DataInputi = 0x183460
_ZN8FloatTag5getIdEv = 0x183490
_ZN8FloatTag8toStringEv = 0x183498
_ZN8FloatTag4copyEv = 0x1834f4
_ZN8FloatTag6equalsEP3Tag = 0x183528
_ZN8FloatTag9getAsLongEv = 0x183568
_ZN8FloatTag8getAsIntEv = 0x183574
_ZN8FloatTag10getAsShortEv = 0x18357c
_ZN8FloatTag9getAsByteEv = 0x183594
_ZN8FloatTag11getAsDoubleEv = 0x1835ac
_ZN8FloatTag10getAsFloatEv = 0x1835b8
_ZN17YellowFlowerBlock11DerivedInitEv = 0x183650
_ZN17YellowFlowerBlock8getShapeEPK10BlockStateP11LevelSourceRK8BlockPos = 0x183784
_ZN17YellowFlowerBlock25getSpawnResourcesAuxValueEPK10BlockState = 0x1837d8
_ZN17YellowFlowerBlock13getBlockStateEi = 0x18383c
_ZN17YellowFlowerBlock29convertBlockStateToLegacyDataEPK10BlockState = 0x183c18
_ZN17YellowFlowerBlock26createBlockStateDefinitionEv = 0x183c4c
_ZN11FlowerBlock6FlowerC1EPNS_14FlowerCategoryEiRKNSt3__112basic_stringIwNS3_11char_traitsIwEENS3_9allocatorIwEEEEiiSB_NS0_7EFlowerE = 0x183cc8
_ZN17YellowFlowerBlock13getOffsetTypeEv = 0x183e48
_ZN17YellowFlowerBlock10getTextureEPK9DirectionPK10BlockState = 0x183e50
_ZN17YellowFlowerBlock13registerIconsEP12IconRegister = 0x183e6c
_ZN17YellowFlowerBlock18GetInteractTooltipERK22BlockTooltipDataHolder = 0x1842ec
_ZN13FlowerFeatureC1EP11FlowerBlockPNS0_6FlowerE = 0x18435c
_ZN13FlowerFeature5placeEP5LevelR6RandomRK8BlockPos = 0x18440c
_ZN14FlowerPotBlock15blockStaticCtorEv = 0x1845d0
_ZN14FlowerPotBlock7getNameEv = 0x1849e4
_ZN14FlowerPotBlock8getShapeEPK10BlockStateP11LevelSourceRK8BlockPos = 0x184a28
_ZNK14FlowerPotBlock13isSolidRenderEPK10BlockState = 0x184a38
_ZN14FlowerPotBlock12isCubeShapedEPK10BlockState = 0x184a40
_ZN14FlowerPotBlock8getColorEP11LevelSourceRK8BlockPosi = 0x184a48
_ZN14FlowerPotBlock3useEP5LevelRK8BlockPosPK10BlockStateSt10shared_ptrI6PlayerEN15InteractionHand16EInteractionHandEPK9Directionfffb = 0x184b48
_ZN14FlowerPotBlock20getCloneItemInstanceEP5LevelRK8BlockPosPK10BlockState = 0x184f58
_ZN14FlowerPotBlock15neighborChangedEPK10BlockStateP5LevelRK8BlockPosP5BlockRK8BlockPos = 0x184fd8
_ZN14FlowerPotBlock8onRemoveEP5LevelRK8BlockPosPK10BlockState = 0x1850cc
_ZN14FlowerPotBlock17playerWillDestroyEP5LevelRK8BlockPosPK10BlockStateSt10shared_ptrI6PlayerE = 0x1851ac
_ZN14FlowerPotBlock11getResourceEPK10BlockStateP6Randomi = 0x185260
_ZN14FlowerPotBlock26createBlockStateDefinitionEv = 0x185528
_ZN14FlowerPotBlock29convertBlockStateToLegacyDataEPK10BlockState = 0x1855a8
_ZN14FlowerPotBlock31fillVirtualBlockStatePropertiesEPK10BlockStateP11LevelSourceRK8BlockPos = 0x1855c0
_ZN14FlowerPotBlock14getRenderLayerEv = 0x18598c
_ZN14FlowerPotBlock17getBlockFaceShapeEP11LevelSourcePK10BlockStateRK8BlockPosPK9Direction = 0x185994
_ZN14FlowerPotBlock14getRenderShapeEPK10BlockState = 0x18599c
_ZN14FlowerPotBlock18GetInteractTooltipERK22BlockTooltipDataHolder = 0x1859a4
_ZN14FlowerPotBlock8mayPlaceEP5LevelRK8BlockPos = 0x185b64
_ZN20FlowerPotBlockEntity14addDataWalkersEP14DataFixerUpper = 0x185c54
_ZN4Item8byStringERKNSt3__112basic_stringIwNS0_11char_traitsIwEENS0_9allocatorIwEEEE = 0x185ed0
_ZN12FoliageColor4initE15arrayWithLengthIiE = 0x188638
_ZN12FoliageColor3getEdd = 0x18865c
_ZN12FoliageColor3setEddj = 0x1886a8
_ZN11ForestBiomeC1EN5Biome9EBiomeIDsEN11ForestBiome5ETypeEPN5Biome15BiomePropertiesE = 0x18b91c
_ZN10FrameTimerC1Ev = 0x18c324
_ZN15FrostedIceBlock29convertBlockStateToLegacyDataEPK10BlockState = 0x18c4d8
_ZN15FrostedIceBlock13getBlockStateEi = 0x18c4f0
_ZN15FrostedIceBlock4tickEP5LevelRK8BlockPosPK10BlockStateP6Random = 0x18c544
_ZN15FrostedIceBlock15shouldBlockTickEP5LevelRK8BlockPosPK10BlockState = 0x18c890
_ZN15FrostedIceBlock15neighborChangedEPK10BlockStateP5LevelRK8BlockPosP5BlockRK8BlockPos = 0x18c898
_ZN15FrostedIceBlock26createBlockStateDefinitionEv = 0x18c9c4
_ZN15FrostedIceBlock10getTextureEPK9DirectionPK10BlockState = 0x18ca38
_ZN15FrostedIceBlock13registerIconsEP12IconRegister = 0x18caa8
_ZN15FrostedIceBlock20getCloneItemInstanceEP5LevelRK8BlockPosPK10BlockState = 0x18cbf8
_ZN22FrostWalkerEnchantmentC1EPK6Rarity15arrayWithLengthIPK13EquipmentSlotE = 0x18cc08
_ZN22FrostWalkerEnchantment10getMinCostEi = 0x18cc60
_ZN22FrostWalkerEnchantment10getMaxCostEi = 0x18cc6c
_ZN22FrostWalkerEnchantment14isTreasureOnlyEv = 0x18cc8c
_ZN22FrostWalkerEnchantment11getMaxLevelEv = 0x18cc94
_ZN22FrostWalkerEnchantment18checkCompatibilityEPK11Enchantment = 0x18d054
_ZN18FullStoneSlabBlock17getBlockFaceShapeEP11LevelSourcePK10BlockStateRK8BlockPosPK9Direction = 0x18d104
_ZN12FurnaceBlock15blockStaticCtorEv = 0x18d148
_ZN12FurnaceBlock11getResourceEPK10BlockStateP6Randomi = 0x18d1cc
_ZN12FurnaceBlock7onPlaceEP5LevelRK8BlockPosPK10BlockState = 0x18d1dc
_ZN12FurnaceBlock11animateTickEPK10BlockStateP5LevelRK8BlockPosP6Random = 0x18d470
_ZN12FurnaceBlock7TestUseEv = 0x18d7e8
_ZN12FurnaceBlock3useEP5LevelRK8BlockPosPK10BlockStateSt10shared_ptrI6PlayerEN15InteractionHand16EInteractionHandEPK9Directionfffb = 0x18d7f0
_ZN12FurnaceBlock11setPlacedByEP5LevelRK8BlockPosPK10BlockStateSt10shared_ptrI12LivingEntityE12not_null_ptrI12ItemInstanceE = 0x18dcb8
_ZN12FurnaceBlock8onRemoveEP5LevelRK8BlockPosPK10BlockState = 0x18e2c0
_ZN12FurnaceBlock21hasAnalogOutputSignalEPK10BlockState = 0x18e414
_ZN12FurnaceBlock21getAnalogOutputSignalEPK10BlockStateP5LevelRK8BlockPos = 0x18e41c
_ZN12FurnaceBlock20getCloneItemInstanceEP5LevelRK8BlockPosPK10BlockState = 0x18e46c
_ZN12FurnaceBlock14getRenderShapeEPK10BlockState = 0x18e4b8
_ZN12FurnaceBlock23getInventoryRenderStateEPK10BlockState = 0x18e4c0
_ZN12FurnaceBlock13getBlockStateEi = 0x18e4ec
_ZN12FurnaceBlock29convertBlockStateToLegacyDataEPK10BlockState = 0x18e550
_ZN12FurnaceBlock18GetInteractTooltipERK22BlockTooltipDataHolder = 0x18e578
_ZN12FurnaceBlock6rotateEPK10BlockStateP8Rotation = 0x18e5a0
_ZN12FurnaceBlock6mirrorEPK10BlockStateP6Mirror = 0x18e5f8
_ZN12FurnaceBlock26createBlockStateDefinitionEv = 0x18e660
_ZN12FurnaceBlock10getTextureEPK9DirectionPK10BlockState = 0x18e6d4
_ZN12FurnaceBlock13registerIconsEP12IconRegister = 0x18e750
_ZN18FurnaceBlockEntity14addDataWalkersEP14DataFixerUpper = 0x18ef5c
_ZN14FurnaceRecipes10staticCtorEv = 0x191640
_ZN14FuzzyZoomLayerC1ExNSt3__110shared_ptrI5LayerEE = 0x193eb4
_ZN14FuzzyZoomLayer12modeOrRandomEiiii = 0x193f64
_ZN17GameCommandPacketC1Ev = 0x193fac
_ZN17GameCommandPacketD2Ev = 0x194050
_ZN17GameCommandPacketD0Ev = 0x194094
_ZN17GameCommandPacket4readEP15DataInputStream = 0x1940b8
_ZN17GameCommandPacket5writeEP16DataOutputStream = 0x194168
_ZN17GameCommandPacket6handleEP14PacketListener = 0x1941d4
_ZN17GameCommandPacket16getEstimatedSizeEv = 0x194224
_ZN8GameType4byIdEi = 0x1945b4
_ZN14GameModePacketC1Ev = 0x19468c
_ZN14GameModePacket4readEP15DataInputStream = 0x1946fc
_ZN14GameModePacket5writeEP16DataOutputStream = 0x19473c
_ZN14GameModePacket6handleEP14PacketListener = 0x194778
_ZN14GameModePacket16getEstimatedSizeEv = 0x1947d8
_ZN8GameType10staticCtorEv = 0x19642c
_ZN8GameTypeC1EiRKNSt3__112basic_stringIwNS0_11char_traitsIwEENS0_9allocatorIwEEEES8_ii = 0x1967e0
_ZNK8GameType5getIdEv = 0x196848
_ZNK8GameType8getLabelEv = 0x196850
_ZNK8GameType14getSliderLabelEv = 0x196858
_ZNK8GameType21updatePlayerAbilitiesEP9Abilities = 0x196860
_ZNK8GameType24isBlockPlacingRestrictedEv = 0x196910
_ZNK8GameType10isCreativeEv = 0x196954
_ZNK8GameType10isSurvivalEv = 0x196984
_ZN8GameType4byIdEiPKS_ = 0x1969b4
_ZN13GetInfoPacket4readEP15DataInputStream = 0x1983dc
_ZN13GetInfoPacket5writeEP16DataOutputStream = 0x1983e0
_ZN13GetInfoPacket6handleEP14PacketListener = 0x1983e4
_ZNSt3__110shared_ptrI13GetInfoPacketED2Ev = 0x198434
_ZN13GetInfoPacket16getEstimatedSizeEv = 0x198444
_ZN5Ghast10staticCtorEv = 0x19844c
_ZN5Ghast14addDataWalkersEP14DataFixerUpper = 0x1989dc
_ZN5Giant14addDataWalkersEP14DataFixerUpper = 0x199684
_ZN10GlassBlockC1EP8Materialb = 0x199c44
_ZN20HalfTransparentBlockC1ERKNSt3__112basic_stringIwNS0_11char_traitsIwEENS0_9allocatorIwEEEEP8Materialb = 0x199cd4
_ZN10GlassBlock16getResourceCountEP6Random = 0x199d40
_ZN10GlassBlock14getRenderLayerEv = 0x199d48
_ZN10GlassBlock12isCubeShapedEPK10BlockState = 0x199d50
_ZN10GlassBlock15isSilkTouchableEv = 0x199d58
_ZN21GlazedTerracottaBlock26createBlockStateDefinitionEv = 0x199de8
_ZN21GlazedTerracottaBlock6rotateEPK10BlockStateP8Rotation = 0x199e5c
_ZN21GlazedTerracottaBlock6mirrorEPK10BlockStateP6Mirror = 0x199eb4
_ZN21GlazedTerracottaBlock20getStateForPlacementEP5LevelRK8BlockPosPK9DirectionfffiSt10shared_ptrI12LivingEntityE = 0x199f14
_ZN21GlazedTerracottaBlock29convertBlockStateToLegacyDataEPK10BlockState = 0x199f6c
_ZN21GlazedTerracottaBlock13getBlockStateEi = 0x199f94
_ZN21GlazedTerracottaBlock21getPistonPushReactionEPK10BlockState = 0x199fe0
_ZN21GlazedTerracottaBlock14getRenderShapeEPK10BlockState = 0x199fe8
_ZN14GlowstoneblockC1EP8Material = 0x19a53c
_ZN14Glowstoneblock28getResourceCountForLootBonusEiP6Random = 0x19a570
_ZN14Glowstoneblock16getResourceCountEP6Random = 0x19a5c4
_ZN14Glowstoneblock11getResourceEPK10BlockStateP6Randomi = 0x19a5e8
_ZN14Glowstoneblock11getMapColorEPK10BlockStateP11LevelSourceRK8BlockPos = 0x19a5f8
_ZN4Item6isFoilE12not_null_ptrI12ItemInstanceE = 0x19ae40
_ZNK10GrassBlock8getColorEv = 0x19b1c0
_ZN10GrassBlock8getColorEPK10BlockState = 0x19b1dc
_ZN10GrassBlock8getColorEP11LevelSourceRK8BlockPosi = 0x19b1e8
_ZN10GrassBlock8getColorEP11LevelSourceRK8BlockPosPK10BlockState = 0x19b248
_ZN10GrassBlock4tickEP5LevelRK8BlockPosPK10BlockStateP6Random = 0x19b254
_ZN10GrassBlock11getResourceEPK10BlockStateP6Randomi = 0x19b584
_ZN10GrassBlock14getRenderLayerEv = 0x19b918
_ZN10GrassBlock29convertBlockStateToLegacyDataEPK10BlockState = 0x19b920
_ZN10GrassBlock18GetInteractTooltipERK22BlockTooltipDataHolder = 0x19b928
_ZN10GrassBlock26createBlockStateDefinitionEv = 0x19b9e8
_ZN10GrassBlock15shouldBlockTickEP5LevelRK8BlockPosPK10BlockState = 0x19ba5c
_ZN10GrassBlock10getTextureEPK9DirectionPK10BlockState = 0x19bb1c
_ZN10GrassBlock10getTextureEP11LevelSourceRK8BlockPosPK9DirectionPK10BlockState = 0x19bb6c
_ZN10GrassBlock13registerIconsEP12IconRegister = 0x19bc5c
_ZN10GrassColor4initE15arrayWithLengthIiE = 0x19bdc0
_ZN10GrassColor3getEdd = 0x19bde4
_ZN10GrassColor3setEddj = 0x19be4c
_ZN14GrassPathBlock16shouldRenderFaceEPK10BlockStateP11LevelSourceRK8BlockPosPK9Direction = 0x19bf0c
_ZN14GrassPathBlock7onPlaceEP5LevelRK8BlockPosPK10BlockState = 0x19c020
_ZN14GrassPathBlock15isSilkTouchableEv = 0x19c0e4
_ZN14GrassPathBlock8getShapeEPK10BlockStateP11LevelSourceRK8BlockPos = 0x19c0ec
_ZNK14GrassPathBlock13isSolidRenderEPK10BlockState = 0x19c0fc
_ZN14GrassPathBlock12isCubeShapedEPK10BlockState = 0x19c104
_ZN14GrassPathBlock11getResourceEPK10BlockStateP6Randomi = 0x19c10c
_ZN14GrassPathBlock20getCloneItemInstanceEP5LevelRK8BlockPosPK10BlockState = 0x19c184
_ZN14GrassPathBlock15neighborChangedEPK10BlockStateP5LevelRK8BlockPosP5BlockRK8BlockPos = 0x19c1c8
_ZN14GrassPathBlock17getBlockFaceShapeEP11LevelSourcePK10BlockStateRK8BlockPosPK9Direction = 0x19c1f4
_ZN14GrassPathBlock18GetInteractTooltipERK22BlockTooltipDataHolder = 0x19c210
_ZN14GrassPathBlock10getTextureEPK9DirectionPK10BlockState = 0x19c274
_ZN14GrassPathBlock10getTextureEP11LevelSourceRK8BlockPosPK9DirectionPK10BlockState = 0x19c2c4
_ZN14GrassPathBlock13registerIconsEP12IconRegister = 0x19c318
_ZN11GravelBlock11getResourceEPK10BlockStateP6Randomi = 0x19c40c
_ZN11GravelBlock11getMapColorEPK10BlockStateP11LevelSourceRK8BlockPos = 0x19c484
_ZN23GrowMushroomIslandLayerC1ExNSt3__110shared_ptrI5LayerEE = 0x19d508
_ZN23GrowMushroomIslandLayer7getAreaEiiii = 0x19d588
_ZN8Guardian10staticCtorEv = 0x19d700
_ZN8Guardian14addDataWalkersEP14DataFixerUpper = 0x19db84
_ZN13HalfSlabBlock15blockStaticCtorEv = 0x19f65c
_ZN13HalfSlabBlock11DerivedInitEv = 0x19f970
_ZN13WoodSlabBlock15isSilkTouchableEv = 0x19fa38
_ZN13WoodSlabBlock8getShapeEPK10BlockStateP11LevelSourceRK8BlockPos = 0x19fa40
_ZN13WoodSlabBlock17getBlockFaceShapeEP11LevelSourcePK10BlockStateRK8BlockPosPK9Direction = 0x19fb48
_ZNK13WoodSlabBlock13isSolidRenderEPK10BlockState = 0x19fc14
_ZN13WoodSlabBlock20getStateForPlacementEP5LevelRK8BlockPosPK9DirectionfffiSt10shared_ptrI12LivingEntityE = 0x19fc20
_ZN13WoodSlabBlock16getResourceCountEP6Random = 0x19fd50
_ZN13WoodSlabBlock12isCubeShapedEPK10BlockState = 0x19fd78
_ZN13WoodSlabBlock16shouldRenderFaceEPK10BlockStateP11LevelSourceRK8BlockPosPK9Direction = 0x19fd84
_ZN13WoodSlabBlock14isPathfindableEP11LevelSourceRK8BlockPos = 0x19ffb4
_ZN20HalfTransparentBlockC1ERKNSt3__112basic_stringIwNS0_11char_traitsIwEENS0_9allocatorIwEEEEP8MaterialbPK13MaterialColor = 0x1a0140
_ZNK20HalfTransparentBlock13isSolidRenderEPK10BlockState = 0x1a019c
_ZN20HalfTransparentBlock16shouldRenderFaceEPK10BlockStateP11LevelSourceRK8BlockPosPK9Direction = 0x1a01a4
_ZN20HalfTransparentBlock13registerIconsEP12IconRegister = 0x1a0290
_ZN4Item15appendHoverTextERKNSt3__110shared_ptrI12ItemInstanceEERKNS1_I6PlayerEEPvb = 0x1a17ec
_ZN17HardenedClayBlock11getMapColorEPK10BlockStateP11LevelSourceRK8BlockPos = 0x1a1830
_ZN8HayBlock6fallOnEP5LevelRK8BlockPosSt10shared_ptrI6EntityEf = 0x1a1fb8
_ZN8HayBlock13registerIconsEP12IconRegister = 0x1a1fd8
_ZN8HayBlock14getRenderShapeEPK10BlockState = 0x1a20dc
_ZN9HellBiomeC1EN5Biome9EBiomeIDsEPN5Biome15BiomePropertiesE = 0x1a21c4
_ZN15HellFireFeature5placeEP5LevelR6RandomRK8BlockPos = 0x1a256c
_ZN17HellSpringFeatureC1EP5Blockb = 0x1a2904
_ZN17HellSpringFeature5placeEP5LevelR6RandomRK8BlockPos = 0x1a2950
_ZN4Item28getDefaultAttributeModifiersEPK14EquipementSlot = 0x1a3590
_ZN11HopperBlock15blockStaticCtorEv = 0x1a35b8
_ZN11HopperBlock8getShapeEPK10BlockStateP11LevelSourceRK8BlockPos = 0x1a3714
_ZN11HopperBlock17addCollisionAABBsEPK10BlockStateP5LevelRK8BlockPosPK4AABBPSt6vectorIP4AABBSt9allocatorIP4AABBEESt10shared_ptrI6EntityEb = 0x1a3724
_ZN11HopperBlock20getStateForPlacementEP5LevelRK8BlockPosPK9DirectionfffiSt10shared_ptrI12LivingEntityE = 0x1a3814
_ZN11HopperBlock11setPlacedByEP5LevelRK8BlockPosPK10BlockStateSt10shared_ptrI12LivingEntityE12not_null_ptrI12ItemInstanceE = 0x1a3a8c
_ZN11HopperBlock7onPlaceEP5LevelRK8BlockPosPK10BlockState = 0x1a3c0c
_ZN11HopperBlock3useEP5LevelRK8BlockPosPK10BlockStateSt10shared_ptrI6PlayerEN15InteractionHand16EInteractionHandEPK9Directionfffb = 0x1a3cb8
_ZN11HopperBlock15neighborChangedEPK10BlockStateP5LevelRK8BlockPosP5BlockRK8BlockPos = 0x1a3dcc
_ZN11HopperBlock8onRemoveEP5LevelRK8BlockPosPK10BlockState = 0x1a3de0
_ZN11HopperBlock14getRenderShapeEPK10BlockState = 0x1a3f24
_ZN11HopperBlock12isCubeShapedEPK10BlockState = 0x1a3f2c
_ZNK11HopperBlock13isSolidRenderEPK10BlockState = 0x1a3f34
_ZN11HopperBlock16shouldRenderFaceEPK10BlockStateP11LevelSourceRK8BlockPosPK9Direction = 0x1a3f3c
_ZN11HopperBlock21hasAnalogOutputSignalEPK10BlockState = 0x1a3f58
_ZN11HopperBlock21getAnalogOutputSignalEPK10BlockStateP5LevelRK8BlockPos = 0x1a3f60
_ZN11HopperBlock14getRenderLayerEv = 0x1a3fb0
_ZN11HopperBlock13getBlockStateEi = 0x1a3fb8
_ZN11HopperBlock29convertBlockStateToLegacyDataEPK10BlockState = 0x1a402c
_ZN11HopperBlock18GetInteractTooltipERK22BlockTooltipDataHolder = 0x1a4084
_ZN11HopperBlock6rotateEPK10BlockStateP8Rotation = 0x1a40ac
_ZN11HopperBlock6mirrorEPK10BlockStateP6Mirror = 0x1a4104
_ZN11HopperBlock26createBlockStateDefinitionEv = 0x1a416c
_ZN11HopperBlock17getBlockFaceShapeEP11LevelSourcePK10BlockStateRK8BlockPosPK9Direction = 0x1a41ec
_ZN11HopperBlock10getTextureEPK9DirectionPK10BlockState = 0x1a4208
_ZN11HopperBlock13registerIconsEP12IconRegister = 0x1a422c
_ZN11HopperBlock19getTileItemIconNameEv = 0x1a43fc
_ZN17HopperBlockEntity14addDataWalkersEP14DataFixerUpper = 0x1a4578
_ZN26HorizontalDirectionalBlock15blockStaticCtorEv = 0x1a6c58
_ZN5Horse10staticCtorEv = 0x1a6ca4
_ZN5Horse14addDataWalkersEP14DataFixerUpper = 0x1a6f24
_ZNSt3__1plIwNS_11char_traitsIwEENS_9allocatorIwEEEENS_12basic_stringIT_T0_T1_EEPKS6_RKS9_ = 0x1a76dc
_ZNSt3__1lsIwNS_11char_traitsIwEEEERNS_13basic_ostreamIT_T0_EES7_PKS4_ = 0x1aa054
_ZNSt3__1lsIwNS_11char_traitsIwEEEERNS_13basic_ostreamIT_T0_EES7_PKc = 0x1aa088
_ZNSt3__1lsIwNS_11char_traitsIwEENS_9allocatorIwEEEERNS_13basic_ostreamIT_T0_EES9_RKNS_12basic_stringIS6_S7_T1_EE = 0x1aa250
_ZNSt3__118basic_stringstreamIwNS_11char_traitsIwEENS_9allocatorIwEEED1Ev = 0x1aa270
_ZN17HugeMushroomBlock15blockStaticCtorEv = 0x1aa528
_ZN17HugeMushroomBlock16getResourceCountEP6Random = 0x1aa924
_ZN17HugeMushroomBlock11getMapColorEPK10BlockStateP11LevelSourceRK8BlockPos = 0x1aa94c
_ZN17HugeMushroomBlock11getResourceEPK10BlockStateP6Randomi = 0x1aaa10
_ZN17HugeMushroomBlock20getCloneItemInstanceEP5LevelRK8BlockPosPK10BlockState = 0x1aaa18
_ZN17HugeMushroomBlock24getSilkTouchItemInstanceEPK10BlockState = 0x1aaa90
_ZN17HugeMushroomBlock20getStateForPlacementEP5LevelRK8BlockPosPK9DirectionfffiSt10shared_ptrI12LivingEntityE = 0x1aaafc
_ZN17HugeMushroomBlock13getBlockStateEi = 0x1aab0c
_ZN17HugeMushroomBlock29convertBlockStateToLegacyDataEPK10BlockState = 0x1aac94
_ZN17HugeMushroomBlock6rotateEPK10BlockStateP8Rotation = 0x1aacbc
_ZN17HugeMushroomBlock6mirrorEPK10BlockStateP6Mirror = 0x1aae34
_ZN17HugeMushroomBlock26createBlockStateDefinitionEv = 0x1aaf8c
_ZN17HugeMushroomBlock10getTextureEPK9DirectionPK10BlockState = 0x1ab06c
_ZN17HugeMushroomBlock13registerIconsEP12IconRegister = 0x1ab1bc
_ZN19HugeMushroomFeatureC1Ev = 0x1ab51c
_ZN4Husk14addDataWalkersEP14DataFixerUpper = 0x1ac37c
_ZN8IceBiomeC1EN5Biome9EBiomeIDsEbPN5Biome15BiomePropertiesE = 0x1ac604
_ZN15FrostedIceBlock14getRenderLayerEv = 0x1acbb0
_ZN15FrostedIceBlock13playerDestroyEP5LevelSt10shared_ptrI6PlayerERK8BlockPosPK10BlockStateSt10shared_ptrI11BlockEntityE12not_null_ptrI12ItemInstanceE = 0x1acbb8
_ZN15FrostedIceBlock16getResourceCountEP6Random = 0x1acdac
_ZN15FrostedIceBlock21getPistonPushReactionEPK10BlockState = 0x1ace38
_ZN13ImprovedNoise4initEP6Random = 0x1ae9f8
_ZN13ImprovedNoiseC1EP6Random = 0x1aeb0c
_ZN13ImprovedNoiseD2Ev = 0x1aeb48
_ZN13ImprovedNoiseD0Ev = 0x1aeb84
_ZN13ImprovedNoise8getValueEdd = 0x1aef18
_ZN13ImprovedNoise3addE15arrayWithLengthIdEdddiiidddd = 0x1aef20
_ZN11IntArrayTagC2Ev = 0x1affac
_ZN11IntArrayTagC2E15arrayWithLengthIiE = 0x1b0004
_ZN11IntArrayTagD1Ev = 0x1b0054
_ZN11IntArrayTagD0Ev = 0x1b0090
_ZN11IntArrayTag5writeEP10DataOutput = 0x1b00b4
_ZN11IntArrayTag4loadEP9DataInputi = 0x1b0138
_ZN11IntArrayTag5getIdEv = 0x1b01ec
_ZN11IntArrayTag8toStringEv = 0x1b01f4
_ZN11IntArrayTag6equalsEP3Tag = 0x1b024c
_ZN11IntArrayTag4copyEv = 0x1b02b4
_ZN9IntBufferC1EjPi = 0x1b0374
_ZN9IntBufferD2Ev = 0x1b03b4
_ZN9IntBufferD0Ev = 0x1b03f8
_ZN9IntBuffer4flipEv = 0x1b041c
_ZN8IntCache22CreateNewThreadStorageEv = 0x1b0434
_ZN8IntCache5ResetEv = 0x1b098c
_ZN6IntTagC1Ev = 0x1b11e4
_ZN6IntTagC1Ei = 0x1b1214
_ZN6IntTag5writeEP10DataOutput = 0x1b124c
_ZN6IntTag4loadEP9DataInputi = 0x1b1264
_ZN6IntTag5getIdEv = 0x1b1294
_ZN6IntTag8toStringEv = 0x1b129c
_ZN6IntTag4copyEv = 0x1b12f4
_ZN6IntTag6equalsEP3Tag = 0x1b1328
_ZN6IntTag9getAsLongEv = 0x1b1368
_ZN6IntTag8getAsIntEv = 0x1b1370
_ZN6IntTag10getAsShortEv = 0x1b1378
_ZN6IntTag9getAsByteEv = 0x1b1380
_ZN6IntTag11getAsDoubleEv = 0x1b1388
_ZN6IntTag10getAsFloatEv = 0x1b1398
_ZN12ItemInstance11isEnchantedEv = 0x1b1f20
_ZN9Inventory9swapPaintEi = 0x1b1ffc
_ZN13InventoryMenu10staticCtorEv = 0x1b4e1c
_ZN11IslandLayerC1Ex = 0x1b637c
_ZN11IslandLayer7getAreaEiiii = 0x1b63ac
_ZN14MappedRegistryI16ResourceLocationP4ItemNSt3__14hashIS0_EENS3_8equal_toIS0_EENS4_IS2_EENS6_IS2_EEEC2Ev = 0x1b6540
_ZN4Item18getDefaultInstanceERKNSt3__110shared_ptrI12ItemInstanceEE = 0x1b6798
_ZN4Item18verifyTagAfterLoadEP11CompoundTag = 0x1b67dc
_ZN4Item10staticCtorEv = 0x1b67e4
_ZN4Item13registerBlockEP5Block = 0x1c12b0
_ZN4Item13registerBlockEP5BlockP4Item = 0x1c12e8
_ZN4Item22StoneBlockNameResolverE12not_null_ptrI12ItemInstanceE = 0x1c1370
_ZN4Item22StoneBlockDescResolverE12not_null_ptrI12ItemInstanceE = 0x1c138c
_ZN4Item26setBaseItemTypeAndMaterialEii = 0x1c18bc
_ZN4Item12registerItemEiRKNSt3__112basic_stringIwNS0_11char_traitsIwEENS0_9allocatorIwEEEEPS_ = 0x1c1938
_ZN4Item11setIconNameERKNSt3__112basic_stringIwNS0_11char_traitsIwEENS0_9allocatorIwEEEE = 0x1c1980
_ZN4Item16setDescriptionIdEii = 0x1c19a8
_ZN4Item24setCraftingRemainingItemEP4Item = 0x1c19ec
_ZN5Items10staticCtorEv = 0x1c1ab4
_ZN13ItemPotionFix10staticCtorEv = 0x1c5298
_ZN14SimpleRegistryI16ResourceLocationPK20ItemPropertyFunctionNSt3__14hashIS0_EENS4_8equal_toIS0_EEEC2Ev = 0x1c537c
_ZN4Item15getBaseItemTypeEv = 0x1c53c8
_ZN4Item5useOnERKNSt3__110shared_ptrI6PlayerEEP5LevelRK8BlockPosN15InteractionHand16EInteractionHandEPK9Directionfffb = 0x1c53d0
_ZN4Item15getDestroySpeedERKNSt3__110shared_ptrI12ItemInstanceEEP10BlockState = 0x1c53d8
_ZN4Item7TestUseEP5LevelRKNSt3__110shared_ptrI6PlayerEEN15InteractionHand16EInteractionHandE = 0x1c53e0
_ZN4Item3useEP5LevelRKNSt3__110shared_ptrI6PlayerEEN15InteractionHand16EInteractionHandE = 0x1c53e8
_ZN4Item15finishUsingItemE12not_null_ptrI12ItemInstanceEP5LevelRKNSt3__110shared_ptrI12LivingEntityEE = 0x1c543c
_ZN4Item15getMaxStackSizeEv = 0x1c5444
_ZN4Item23getLevelDataForAuxValueEi = 0x1c544c
_ZN4Item12getMaxDamageEv = 0x1c545c
_ZN4Item13canBeDepletedEv = 0x1c5464
_ZN4Item9hurtEnemyERKNSt3__110shared_ptrI12ItemInstanceEERKNS1_I12LivingEntityEES9_ = 0x1c5498
_ZN4Item9mineBlockERKNSt3__110shared_ptrI12ItemInstanceEEP5LevelPK10BlockStateRK8BlockPosRNS1_I12LivingEntityEE = 0x1c54a0
_ZN4Item15getAttackDamageERKNSt3__110shared_ptrI6EntityEE = 0x1c54a8
_ZN4Item17canDestroySpecialEPK10BlockState = 0x1c54b0
_ZN4Item13interactEnemyERKNSt3__110shared_ptrI12ItemInstanceEERKNS1_I6PlayerEERKNS1_I12LivingEntityEEN15InteractionHand16EInteractionHandE = 0x1c54b8
_ZN4Item14isHandEquippedEv = 0x1c54c0
_ZN4Item13isMirroredArtEv = 0x1c54c8
_ZN4Item16getDescriptionIdEi = 0x1c554c
_ZN4Item16getDescriptionIdERKNSt3__110shared_ptrI12ItemInstanceEE = 0x1c5554
_ZN4Item19getUseDescriptionIdEv = 0x1c555c
_ZN4Item19getUseDescriptionIdERKNSt3__110shared_ptrI12ItemInstanceEE = 0x1c5564
_ZN4Item28shouldOverrideMultiplayerNBTEv = 0x1c556c
_ZN4Item8getColorERKNSt3__110shared_ptrI12ItemInstanceEEi = 0x1c5574
_ZN4Item13inventoryTickERNSt3__110shared_ptrI12ItemInstanceEEP5LevelRNS1_I6EntityEEib = 0x1c557c
_ZN4Item11onCraftedByERKNSt3__110shared_ptrI12ItemInstanceEEP5LevelRKNS1_I6PlayerEE = 0x1c5580
_ZN4Item9isComplexEv = 0x1c5584
_ZN4Item15getUseAnimationERKNSt3__110shared_ptrI12ItemInstanceEE = 0x1c558c
_ZN4Item14getUseDurationERKNSt3__110shared_ptrI12ItemInstanceEE = 0x1c5594
_ZN4Item12releaseUsingERKNSt3__110shared_ptrI12ItemInstanceEEP5LevelRKNS1_I12LivingEntityEEi = 0x1c559c
_ZN4Item7getNameERKNSt3__110shared_ptrI12ItemInstanceEE = 0x1c55a0
_ZN4Item9getRarityERKNSt3__110shared_ptrI12ItemInstanceEE = 0x1c5618
_ZN4Item13isEnchantableERKNSt3__110shared_ptrI12ItemInstanceEE = 0x1c564c
_ZN4Item19getEnchantmentValueEv = 0x1c57a0
_ZN4Item26mayBePlacedInAdventureModeEv = 0x1c57a8
_ZN4Item17isValidRepairItemERKNSt3__110shared_ptrI12ItemInstanceEES5_ = 0x1c57b0
_ZN4Item23hasMultipleSpriteLayersEv = 0x1c57b8
_ZN4Item11getIconTypeEv = 0x1c57c0
_ZN4Item7getIconERKNSt3__110shared_ptrI12ItemInstanceEE = 0x1c57c8
_ZN4Item12registerItemEiRK16ResourceLocationP4Item = 0x1c5804
_ZN4Item12GetArmorTypeEv = 0x1c5b1c
_ZN4Item16GetOverrideCountEv = 0x1c5b48
_ZN4Item22GetOverrideCountColourEv = 0x1c5b50
_ZN4Item20GetOverrideCountIconERKNSt3__110shared_ptrI12ItemInstanceEE = 0x1c5b58
_ZN10ItemEntity10staticCtorEv = 0x1c6538
_ZN10ItemEntity14addDataWalkersEP14DataFixerUpper = 0x1c7364
_ZN9ItemFrame10staticCtorEv = 0x1c7ec8
_ZN9ItemFrame14addDataWalkersEP14DataFixerUpper = 0x1c8a2c
_ZN12ItemInstance4initEP4Itemii = 0x1c977c
_ZN12ItemInstance20updateEmptyCacheFlagEv = 0x1c9820
_ZN12ItemInstanceC1EP5Block = 0x1c9848
_ZN12ItemInstanceC1EP5Blocki = 0x1c9888
_ZN12ItemInstanceC1EP5Blockii = 0x1c9900
_ZN12ItemInstanceC1EP4Item = 0x1c9950
_ZN12ItemInstanceC1EP4Itemi = 0x1c9968
_ZN12ItemInstanceC1EP4Itemii = 0x1c997c
_ZN12ItemInstanceC1EP11CompoundTag = 0x1c998c
_ZN12ItemInstanceD1Ev = 0x1c9b8c
_ZN12ItemInstance14addDataWalkersEP14DataFixerUpper = 0x1c9be0
_ZN12ItemInstance15finishUsingItemEP5LevelRKNSt3__110shared_ptrI6PlayerEE = 0x1c9f20
_ZN12ItemInstance16isDamageableItemEv = 0x1ca01c
_ZN12ItemInstance14getUseDurationEv = 0x1ca834
_ZN5Items3getERKNSt3__112basic_stringIwNS0_11char_traitsIwEENS0_9allocatorIwEEEE = 0x1cd27c
_ZN12JukeboxBlock14addDataWalkersEP14DataFixerUpper = 0x1cddd0
_ZN12JukeboxBlock7TestUseEP5LevelRK8BlockPosPK10BlockStateSt10shared_ptrI6PlayerE = 0x1ce33c
_ZN12JukeboxBlock3useEP5LevelRK8BlockPosPK10BlockStateSt10shared_ptrI6PlayerEN15InteractionHand16EInteractionHandEPK9Directionfffb = 0x1ce350
_ZN12JukeboxBlock8onRemoveEP5LevelRK8BlockPosPK10BlockState = 0x1ce794
_ZN12JukeboxBlock14spawnResourcesEP5LevelRK8BlockPosPK10BlockStatefi = 0x1ce7d8
_ZN12JukeboxBlock21hasAnalogOutputSignalEPK10BlockState = 0x1ce868
_ZN12JukeboxBlock21getAnalogOutputSignalEPK10BlockStateP5LevelRK8BlockPos = 0x1ce870
_ZN12JukeboxBlock14getRenderShapeEPK10BlockState = 0x1ce948
_ZN12JukeboxBlock13getBlockStateEi = 0x1ce950
_ZN12JukeboxBlock29convertBlockStateToLegacyDataEPK10BlockState = 0x1ce984
_ZN12JukeboxBlock18GetInteractTooltipERK22BlockTooltipDataHolder = 0x1ce9b0
_ZN12JukeboxBlock26createBlockStateDefinitionEv = 0x1cea58
_ZN12JukeboxBlock10getTextureEPK9DirectionPK10BlockState = 0x1ceacc
_ZN12JukeboxBlock13registerIconsEP12IconRegister = 0x1ceaf0
_ZN11JumpControlC1Ev = 0x1cebf4
_ZN11JungleBiome10staticCtorEv = 0x1cec40
_ZN11JungleBiomeC1EN5Biome9EBiomeIDsEbPN5Biome15BiomePropertiesE = 0x1ced10
_ZN16KickPlayerPacketC1Ev = 0x1cf184
_ZN16KickPlayerPacket6handleEP14PacketListener = 0x1cf1f8
_ZN16KickPlayerPacket4readEP15DataInputStream = 0x1cf258
_ZN16KickPlayerPacket5writeEP16DataOutputStream = 0x1cf288
_ZN16KickPlayerPacket16getEstimatedSizeEv = 0x1cf2a0
_ZN20KnockbackEnchantmentC1EPK6Rarity15arrayWithLengthIPK13EquipmentSlotE = 0x1cf390
_ZN20KnockbackEnchantment10getMinCostEi = 0x1cf3e8
_ZN20KnockbackEnchantment10getMaxCostEi = 0x1cf3f8
_ZN20KnockbackEnchantment11getMaxLevelEv = 0x1cf410
_ZN4ItemD0Ev = 0x1cf418
_ZN13GetInfoPacketD2Ev = 0x1cf4ec
_ZN13GetInfoPacketD0Ev = 0x1cf514
_ZN13GetInfoPacket11getPacketIdEv = 0x1cf538
_ZN7FeatureD0Ev = 0x1cffa0
_ZN6EntityD2Ev = 0x1cffcc
_ZN12FallingBlockD0Ev = 0x1d00bc
_ZN9FarmBlockD0Ev = 0x1d00ec
_ZN10FenceBlockD2Ev = 0x1d0110
_ZN10FenceBlockD0Ev = 0x1d0144
_ZN14FenceGateBlockD2Ev = 0x1d0168
_ZN14FenceGateBlockD0Ev = 0x1d019c
vtbl_7101057EB0_func_6 = 0x1d01c0
_ZN21FireAspectEnchantmentD0Ev = 0x1d021c
_ZN9FireBlockD1Ev = 0x1d026c
_ZN9FireBlockD0Ev = 0x1d02b0
_ZN14FlexiblePacketD0Ev = 0x1d0598
_ZN8FloatTagD0Ev = 0x1d0668
_ZN11FlowerBlockD0Ev = 0x1d06bc
_ZN13FlowerFeatureD0Ev = 0x1d06e0
_ZN14FlowerPotBlockD0Ev = 0x1d0704
_ZN20HalfTransparentBlockD0Ev = 0x1d0a88
_ZN8IceBlockD0Ev = 0x1d0aac
_ZN20HalfTransparentBlockD2Ev = 0x1d0ad0
_ZN15FrostedIceBlockD0Ev = 0x1d0b04
_ZN15FrostedIceBlock15isSilkTouchableEv = 0x1d0b28
_ZN22FrostWalkerEnchantmentD0Ev = 0x1d0b30
_ZN13HalfSlabBlockD0Ev = 0x1d0b54
_ZN21FullNewStoneSlabBlockD0Ev = 0x1d0b78
_ZN18FullStoneSlabBlockD0Ev = 0x1d0b9c
_ZN17FullWoodSlabBlockD0Ev = 0x1d0bc0
_ZN12FurnaceBlockD0Ev = 0x1d0c3c
_ZN14FuzzyZoomLayerD0Ev = 0x1d0ce8
_ZN17GameCommandPacket11getPacketIdEv = 0x1d0d0c
_ZN14GameModePacketD2Ev = 0x1d0d5c
_ZN14GameModePacketD0Ev = 0x1d0d84
_ZN14GameModePacket11getPacketIdEv = 0x1d0da8
_ZN10GlassBlockD0Ev = 0x1d1288
_ZN21GlazedTerracottaBlockD0Ev = 0x1d12ac
_ZN14GlowstoneblockD0Ev = 0x1d12d0
_ZN10GrassBlockD0Ev = 0x1d133c
_ZN14GrassPathBlockD0Ev = 0x1d1360
_ZN11GravelBlockD0Ev = 0x1d1384
_ZN23GrowMushroomIslandLayerD0Ev = 0x1d142c
_ZN21HalfNewStoneSlabBlockD0Ev = 0x1d1508
_ZN18HalfStoneSlabBlockD0Ev = 0x1d152c
_ZN17HalfWoodSlabBlockD0Ev = 0x1d1550
_ZN17HardenedClayBlockD0Ev = 0x1d15e8
_ZN8HayBlockD0Ev = 0x1d1670
_ZN15HellFireFeatureD0Ev = 0x1d1708
_ZN17HellSpringFeatureD0Ev = 0x1d1750
_ZN11HopperBlockD0Ev = 0x1d1798
_ZN17HugeMushroomBlockD0Ev = 0x1d1978
_ZN6IntTagD0Ev = 0x1d1cd4
_ZN11IslandLayerD0Ev = 0x1d1d84
_ZN12JukeboxBlockD0Ev = 0x1d1f18
_ZN16KickPlayerPacketD2Ev = 0x1d1f78
_ZN16KickPlayerPacketD0Ev = 0x1d1fa0
_ZN16KickPlayerPacket11getPacketIdEv = 0x1d1fc4
_ZN20KnockbackEnchantmentD0Ev = 0x1d1ff0
_ZN26HorizontalDirectionalBlockD0Ev = 0x1d21c4
_ZThn16_NSt3__118basic_stringstreamIwNS_11char_traitsIwEENS_9allocatorIwEEED1Ev = 0x1d3f40
_ZTv0_n24_NSt3__118basic_stringstreamIwNS_11char_traitsIwEENS_9allocatorIwEEED1Ev = 0x1d3f48
_ZNSt3__114basic_iostreamIwNS_11char_traitsIwEEED1Ev = 0x1d3f58
_ZNSt3__114basic_iostreamIwNS_11char_traitsIwEEED0Ev = 0x1d3f84
_ZThn16_NSt3__114basic_iostreamIwNS_11char_traitsIwEEED1Ev = 0x1d3fa8
_ZThn16_NSt3__114basic_iostreamIwNS_11char_traitsIwEEED0Ev = 0x1d3fb0
_ZTv0_n24_NSt3__114basic_iostreamIwNS_11char_traitsIwEEED1Ev = 0x1d3fb8
_ZTv0_n24_NSt3__114basic_iostreamIwNS_11char_traitsIwEEED0Ev = 0x1d3fc8
_ZNSt3__118basic_stringstreamIwNS_11char_traitsIwEENS_9allocatorIwEEED0Ev = 0x1d3fd8
_ZThn16_NSt3__118basic_stringstreamIwNS_11char_traitsIwEENS_9allocatorIwEEED0Ev = 0x1d3ffc
_ZTv0_n24_NSt3__118basic_stringstreamIwNS_11char_traitsIwEENS_9allocatorIwEEED0Ev = 0x1d4004
_ZN14SimpleRegistryI16ResourceLocationP4ItemNSt3__14hashIS0_EENS3_8equal_toIS0_EEE3getES0_ = 0x1d4528
_ZNSt3__113unordered_mapI16ResourceLocationP4ItemNS_4hashIS1_EENS_8equal_toIS1_EENS_9allocatorINS_4pairIKS1_S3_EEEEE2atERSA_ = 0x1d467c
_ZNSt3__112__hash_tableINS_17__hash_value_typeI16ResourceLocationP4ItemEENS_22__unordered_map_hasherIS2_S5_NS_4hashIS2_EELb1EEENS_21__unordered_map_equalIS2_S5_NS_8equal_toIS2_EELb1EEENS_9allocatorIS5_EEE4findIS2_EENS_15__hash_iteratorIPNS_11__hash_nodeIS5_PvEEEERKT_ = 0x1d4694
_ZN8RegistryI16ResourceLocationPK20ItemPropertyFunctionNSt3__14hashIS0_EENS4_8equal_toIS0_EEEC2Ev = 0x1d5794
_ZN14SimpleRegistryI16ResourceLocationPK20ItemPropertyFunctionNSt3__14hashIS0_EENS4_8equal_toIS0_EEE3getES0_ = 0x1d57a8
_ZN14SimpleRegistryI16ResourceLocationPK20ItemPropertyFunctionNSt3__14hashIS0_EENS4_8equal_toIS0_EEE11registerKeyES0_S3_ = 0x1d57c4
_ZN14SimpleRegistryI16ResourceLocationPK20ItemPropertyFunctionNSt3__14hashIS0_EENS4_8equal_toIS0_EEE6keySetEv = 0x1d580c
_ZN14SimpleRegistryI16ResourceLocationPK20ItemPropertyFunctionNSt3__14hashIS0_EENS4_8equal_toIS0_EEE9getRandomEP6Random = 0x1d5814
_ZN14SimpleRegistryI16ResourceLocationPK20ItemPropertyFunctionNSt3__14hashIS0_EENS4_8equal_toIS0_EEE11containsKeyES0_ = 0x1d58b8
_ZNSt3__113unordered_mapI16ResourceLocationPK20ItemPropertyFunctionNS_4hashIS1_EENS_8equal_toIS1_EENS_9allocatorINS_4pairIKS1_S4_EEEEE2atERSB_ = 0x1d58ec
_ZNSt3__112__hash_tableINS_17__hash_value_typeI16ResourceLocationPK20ItemPropertyFunctionEENS_22__unordered_map_hasherIS2_S6_NS_4hashIS2_EELb1EEENS_21__unordered_map_equalIS2_S6_NS_8equal_toIS2_EELb1EEENS_9allocatorIS6_EEE4findIS2_EENS_15__hash_iteratorIPNS_11__hash_nodeIS6_PvEEEERKT_ = 0x1d5904
_ZNSt3__113unordered_mapI16ResourceLocationPK20ItemPropertyFunctionNS_4hashIS1_EENS_8equal_toIS1_EENS_9allocatorINS_4pairIKS1_S4_EEEEEixERSB_ = 0x1d5a30
_ZNSt3__16__treeIPK20ItemPropertyFunctionNS_4lessIS3_EENS_9allocatorIS3_EEE25__emplace_unique_key_argsIS3_JRKS3_EEENS_4pairINS_15__tree_iteratorIS3_PNS_11__tree_nodeIS3_PvEElEEbEERKT_DpOT0_ = 0x1d609c
_ZNSt3__16__treeIPK20ItemPropertyFunctionNS_4lessIS3_EENS_9allocatorIS3_EEE12__find_equalIS3_EERPNS_16__tree_node_baseIPvEERPNS_15__tree_end_nodeISD_EERKT_ = 0x1d611c
_ZNSt3__16__treeIPK20ItemPropertyFunctionNS_4lessIS3_EENS_9allocatorIS3_EEE16__construct_nodeIJRKS3_EEENS_10unique_ptrINS_11__tree_nodeIS3_PvEENS_22__tree_node_destructorINS6_ISF_EEEEEEDpOT_ = 0x1d61ac
_ZNSt3__16__treeIPK20ItemPropertyFunctionNS_4lessIS3_EENS_9allocatorIS3_EEE16__insert_node_atEPNS_15__tree_end_nodeIPNS_16__tree_node_baseIPvEEEERSD_SD_ = 0x1d61f8
_ZNKSt3__16__treeIPK20ItemPropertyFunctionNS_4lessIS3_EENS_9allocatorIS3_EEE10__root_ptrEv = 0x1d6250
_ZNSt3__18weak_ptrI13GetInfoPacketED2Ev = 0x1d62c4
_ZNSt3__113unordered_mapIP5BlockiNS_4hashIS2_EENS_8equal_toIS2_EENS_9allocatorINS_4pairIKS2_iEEEEED2Ev = 0x1d62e4
_ZNSt3__112__hash_tableINS_17__hash_value_typeIP5BlockiEENS_22__unordered_map_hasherIS3_S4_NS_4hashIS3_EELb1EEENS_21__unordered_map_equalIS3_S4_NS_8equal_toIS3_EELb1EEENS_9allocatorIS4_EEE17__deallocate_nodeEPNS_16__hash_node_baseIPNS_11__hash_nodeIS4_PvEEEE = 0x1d6324
_ZN15arrayWithLengthIdE16createDataBufferEj = 0x1d63d0
_ZNSt3__110shared_ptrI13GetInfoPacketEC2IS1_EERKNS_8weak_ptrIT_EENS_9enable_ifIXsr14is_convertibleIPS5_PS1_EE5valueENS2_5__natEE4typeE = 0x1e6180
_ZNSt3__124__put_character_sequenceIwNS_11char_traitsIwEEEERNS_13basic_ostreamIT_T0_EES7_PKS4_m = 0x1e8200
_ZNSt3__116__pad_and_outputIwNS_11char_traitsIwEEEENS_19ostreambuf_iteratorIT_T0_EES6_PKS4_S8_S8_RNS_8ios_baseES4_ = 0x1e831c
_ZN14SimpleRegistryI16ResourceLocationP4ItemNSt3__14hashIS0_EENS3_8equal_toIS0_EEEC2Ev = 0x1ea67c
_ZN11LadderBlock15blockStaticCtorEv = 0x1f0f34
_ZN11LadderBlock8getShapeEPK10BlockStateP11LevelSourceRK8BlockPos = 0x1f0f90
_ZNK11LadderBlock13isSolidRenderEPK10BlockState = 0x1f0fe4
_ZN11LadderBlock12isCubeShapedEPK10BlockState = 0x1f0fec
_ZN11LadderBlock8mayPlaceEP5LevelRK8BlockPosPK9Direction = 0x1f0ff4
_ZN11LadderBlock20getStateForPlacementEP5LevelRK8BlockPosPK9DirectionfffiSt10shared_ptrI12LivingEntityE = 0x1f1170
_ZN11LadderBlock15neighborChangedEPK10BlockStateP5LevelRK8BlockPosP5BlockRK8BlockPos = 0x1f12a0
_ZN11LadderBlock14getRenderLayerEv = 0x1f1384
_ZN11LadderBlock13getBlockStateEi = 0x1f138c
_ZN11LadderBlock29convertBlockStateToLegacyDataEPK10BlockState = 0x1f13f0
_ZN11LadderBlock6rotateEPK10BlockStateP8Rotation = 0x1f1418
_ZN11LadderBlock6mirrorEPK10BlockStateP6Mirror = 0x1f1470
_ZN11LadderBlock26createBlockStateDefinitionEv = 0x1f155c
_ZN11LadderBlock17getBlockFaceShapeEP11LevelSourcePK10BlockStateRK8BlockPosPK9Direction = 0x1f15d0
_ZN11LadderBlock14getRenderShapeEPK10BlockState = 0x1f15d8
_ZN11LakeFeatureC1EP5Block = 0x1f15e0
_ZN11LakeFeature5placeEP5LevelR6RandomRK8BlockPos = 0x1f161c
_ZN8Language11getInstanceEv = 0x1f24f8
_ZN8Language10getElementERKNSt3__112basic_stringIwNS0_11char_traitsIwEENS0_9allocatorIwEEEEz = 0x1f2508
_ZN16LargeCaveFeature7addRoomExiiP11ChunkPrimerddd = 0x1f256c
_ZN16LargeCaveFeature9addTunnelExiiP11ChunkPrimerdddfffiid = 0x1f2610
_ZN3Mth3sinEf = 0x1f3028
_ZN3Mth3cosEf = 0x1f307c
_ZN3Mth5floorEd = 0x1f30dc
_ZN16LargeCaveFeature10addFeatureEP5LeveliiiiP11ChunkPrimer = 0x1f31a8
_ZN12LargeFeatureC1Ev = 0x1f3438
_ZN12LargeFeatureD0Ev = 0x1f349c
_ZN12LargeFeature5applyEP5LeveliiP11ChunkPrimer = 0x1f34a0
_ZN5Level7getSeedEv = 0x1f3624
_ZN5Level12getGameRulesEv = 0x1f38b4
_ZN13LargeFireball14addDataWalkersEP14DataFixerUpper = 0x1f38c4
_ZN5Layer16getDefaultLayersExP9LevelTypeP15SuperflatConfigP9LevelDataPN11BiomeSource21LayerOverrideSettingsE = 0x1f4638
_ZN15arrayWithLengthINSt3__110shared_ptrI5LayerEEEC2Ejb = 0x1f605c
_ZN5Layer12modeOrRandomEiiii = 0x1f6300
_ZN5LayerC1Ex = 0x1f63ec
_ZN5Layer4initEx = 0x1f6488
_ZN5Layer10initRandomExx = 0x1f6508
_ZN9LeafBlockD0Ev = 0x1f6c38
_ZN9LeafBlock11DerivedInitEv = 0x1f6c5c
_ZNK9LeafBlock8getColorEv = 0x1f6cdc
_ZN9LeafBlock8getColorEPK10BlockState = 0x1f6ce8
_ZN9LeafBlock8getColorEP11LevelSourceRK8BlockPosi = 0x1f6cec
_ZN9LeafBlock8getColorEP11LevelSourceRK8BlockPosPK10BlockState = 0x1f6d4c
_ZN9LeafBlock8onRemoveEP5LevelRK8BlockPosPK10BlockState = 0x1f6d58
_ZN9LeafBlock4tickEP5LevelRK8BlockPosPK10BlockStateP6Random = 0x1f6fe0
_ZN9LeafBlock11animateTickEPK10BlockStateP5LevelRK8BlockPosP6Random = 0x1f73bc
_ZN5Level11isRainingAtERK8BlockPos = 0x1f74f4
_ZN5Level11addParticleEPK12ParticleTypedddddd15arrayWithLengthIiE = 0x1f75b0
_ZN9LeafBlock16getResourceCountEP6Random = 0x1f7658
_ZN9LeafBlock11getResourceEPK10BlockStateP6Randomi = 0x1f7680
_ZN9LeafBlock14spawnResourcesEP5LevelRK8BlockPosPK10BlockStatefi = 0x1f7690
_ZN9LeafBlock13isSolidRenderEPK10BlockState = 0x1f77e4
_ZN9LeafBlock8setFancyEb = 0x1f77f4
_ZN9LeafBlock14getRenderLayerEv = 0x1f7834
_ZN9LeafBlock14isViewBlockingEPK10BlockState = 0x1f783c
_ZN9LeafBlock16shouldRenderFaceEPK10BlockStateP11LevelSourceRK8BlockPosPK9Direction = 0x1f7844
_ZN9LeafBlock15shouldBlockTickEP5LevelRK8BlockPosPK10BlockState = 0x1f78f0
_ZN9LeafBlock8isLeavesEP5Block = 0x1f7944
_ZN9LeafBlock16getDescriptionIdEi = 0x1f7974
_ZN9LeafBlock10getTextureEPK9DirectionPK10BlockState = 0x1f79d4
_ZN9LeafBlock13registerIconsEP12IconRegister = 0x1f7a28
_ZN5Level13getDifficultyEv = 0x1f7e58
_ZN5Level22clampWithinLevelBoundsERdRdd = 0x1f86f0
_ZN5Level12getLevelDataEv = 0x1f8824
_ZN3Mth5clampEddd = 0x1f882c
_ZN5Level19isWithinLevelBoundsEii = 0x1f8840
_ZN5Level19enableLightingCacheEv = 0x1f8984
_ZN5Level14setBlocksDirtyERK8BlockPosRK8BlockPos = 0x1f8f7c
_ZN5Level12setInstaTickEb = 0x1f9088
_ZN5Level4initEv = 0x1f90b0
_ZN5LevelC1ESt10shared_ptrI12LevelStorageEP9LevelDataP9Dimensionb = 0x1f9204
_ZN11LevelSourceC1Ev = 0x1f9358
_ZN5LevelD2Ev = 0x1f936c
_ZN5LevelD0Ev = 0x1f9578
_ZN5Level13postConstructEv = 0x1f959c
_ZN5Level8getBiomeERK8BlockPos = 0x1f95a0
_ZN5Level10hasChunkAtERK8BlockPos = 0x1f9624
_ZN5Level10getChunkAtERK8BlockPos = 0x1f962c
_ZN5Level14getBiomeSourceEv = 0x1f9674
_ZN5Level15initializeLevelEP13LevelSettings = 0x1f967c
_ZN5Level9getServerEv = 0x1f9690
_ZN5Level13validateSpawnEv = 0x1f9698
_ZN5Level11setSpawnPosERK8BlockPos = 0x1f96dc
_ZN5Level16getTopBlockStateERK8BlockPos = 0x1f96ec
_ZN5Level11getSeaLevelEv = 0x1f97e4
_ZN5Level15isInWorldBoundsERK8BlockPos = 0x1f97ec
_ZN5Level15isInWorldBoundsEiii = 0x1f980c
_ZN5Level20isOutsideBuildHeightERK8BlockPos = 0x1f9818
_ZN5Level12isEmptyBlockERK8BlockPos = 0x1f9858
_ZN5Level8getChunkEii = 0x1f9be0
_ZN5Level18isChunkGeneratedAtEii = 0x1f9c14
_ZN5Level8setBlockERK8BlockPosPK10BlockStateib = 0x1f9c7c
_ZN5Level10checkLightERK8BlockPosbb = 0x1f9ec4
_ZN10LevelChunk7isReadyEv = 0x1f9f74
_ZN5Level12blockUpdatedERK8BlockPosP5Blockb = 0x1f9fa4
_ZN5Level23updateObservingBlocksAtERK8BlockPosP5Block = 0x1f9fac
_ZN5Level7setDataERK8BlockPosiib = 0x1fa0b8
_ZN5Level7setDataEiiiiib = 0x1fa148
_ZN10LevelChunk10getBlockIdEiii = 0x1fa52c
_ZN5Level11removeBlockERK8BlockPos = 0x1fa57c
_ZN5Level12destroyBlockERK8BlockPosb = 0x1fa5d8
_ZN5Level10levelEventEiRK8BlockPosi = 0x1fa6dc
_ZN5Level17setBlockAndUpdateERK8BlockPosPK10BlockState = 0x1fa720
_ZN5Level16sendBlockUpdatedERK8BlockPosPK10BlockStatePK10BlockStateib = 0x1fa734
_ZN5Level17updateNeighborsAtERK8BlockPosP5Blockb = 0x1fa7b8
_ZN5Level18lightColumnChangedEiiii = 0x1fa8dc
_ZN5Level10checkLightEN10LightLayer7varietyERK8BlockPosbb = 0x1faa2c
_ZN5Level23observedNeighborChangedERK8BlockPosP5BlockRK8BlockPos = 0x1fb70c
_ZN5Level15neighborChangedERK8BlockPosP5BlockRK8BlockPos = 0x1fb7a8
_ZN5Level33updateNeighborsAtExceptFromFacingERK8BlockPosP5BlockPK9Direction = 0x1fb81c
_ZN5Level19isBlockToBeTickedAtERK8BlockPosP5Block = 0x1fba3c
_ZN5Level9canSeeSkyERK8BlockPos = 0x1fba44
_ZN5Level23canSeeSkyFromBelowWaterERK8BlockPos = 0x1fba70
_ZN5Level16getRawBrightnessERK8BlockPos = 0x1fbc38
_ZN5Level16getRawBrightnessERK8BlockPosb = 0x1fbc40
_ZN5Level15getHeightmapPosERK8BlockPos = 0x1fbe34
_ZN5Level18getHeightmapHeightEii = 0x1fbebc
_ZN5Level12getHeightmapEii = 0x1fbf68
_ZN5Level22getBrightnessPropagateEN10LightLayer7varietyERK8BlockPos = 0x1fc00c
_ZN5Level13getBrightnessEN10LightLayer7varietyERK8BlockPos = 0x1fc228
_ZN5Level24getNeighbourBrightnessesEPiN10LightLayer7varietyEiii = 0x1fc368
_ZN5Level13getLightColorERK8BlockPosii = 0x1fc5d0
_ZN5Level13getBrightnessERK8BlockPosi = 0x1fc62c
_ZN5Level13getBrightnessERK8BlockPos = 0x1fc664
_ZN5Level13getBlockStateERK8BlockPos = 0x1fc6a8
_ZN5Level10getBlockIdEiii = 0x1fc700
_ZN5Level8getBlockERK8BlockPos = 0x1fc768
_ZN5Level12getBlockDataEiii = 0x1fc7d4
_ZN5Level9playSoundESt10shared_ptrI6PlayerERK8BlockPosPK10SoundEventN11SoundSource12ESoundSourceEfff = 0x1fcff4
_ZN5Level9playSoundESt10shared_ptrI6PlayerEdddPK10SoundEventN11SoundSource12ESoundSourceEfff = 0x1fd0d8
_ZN5Level14playLocalSoundEdddPK10SoundEventN11SoundSource12ESoundSourceEffbf = 0x1fd1bc
_ZN5Level15addGlobalEntityESt10shared_ptrI6EntityE = 0x1fd468
_ZN5Level9addEntityESt10shared_ptrI6EntityE = 0x1fd4c4
_ZN5Level11entityAddedESt10shared_ptrI6EntityE = 0x1fd744
_ZN5Level13entityRemovedESt10shared_ptrI6EntityE = 0x1fd7c8
_ZN5Level13playerRemovedESt10shared_ptrI6EntityE = 0x1fd84c
_ZN5Level12removeEntityESt10shared_ptrI6EntityE = 0x1fd8d0
_ZN5Level25internalGetCollisionAABBsESt10shared_ptrI6EntityEPK4AABBbPSt6vectorIP4AABBSt9allocatorIP4AABBEEbbb = 0x1fde18
getTimeOfDay__5LevelFf = 0x1feb78
_ZN3Mth5clampEfff = 0x1febd4
getRainLevel__5LevelFf = 0x1febe8
getThunderLevel__5LevelFf = 0x1fec00
_ZN5Level12getSkyDarkenEf = 0x1fec34
getSkyColor__5LevelFQ2_5boost25shared_ptr__tm__8_6Entityf = 0x1fecfc
getMoonPhase__5LevelFv = 0x1fef44
_ZN5Level17getMoonBrightnessEv = 0x1fef88
getFogColor__5LevelFQ2_5boost25shared_ptr__tm__8_6Entityf = 0x1ff1dc
_ZN5Level18getTopRainBlockPosEPK8BlockPos = 0x1ff278
_ZN5Level19getTopSolidBlockPosEPK8BlockPos = 0x1ff5a4
getStarBrightness__5LevelFf = 0x1ff700
_ZN5Level15hasTickNextTickERK8BlockPosP5Block = 0x1ff74c
_ZN5Level17addToTickNextTickERK8BlockPosP5Blocki = 0x1ff754
_ZN5Level17addToTickNextTickERK8BlockPosP5Blockii = 0x1ff758
_ZN5Level17forceAddBlockTickERK8BlockPosP5Blockii = 0x1ff75c
_ZN5Level12tickEntitiesEv = 0x1ff760
_ZN5Level17tickServerPlayersEv = 0x2005b8
_ZN5Level4tickESt10shared_ptrI6EntityEb = 0x200824
_ZN5Level10levelEventESt10shared_ptrI6PlayerEiRK8BlockPosi = 0x201a08
_ZN5Level14getBlockEntityERK8BlockPos = 0x201aac
_ZN5Level23getPendingBlockEntityAtERK8BlockPos = 0x201bec
_ZN5Level4tickEv = 0x202490
_ZN5Level11tickWeatherEb = 0x202520
_ZN5Level27buildAndPrepareChunksToPollEv = 0x202838
_ZN5Level20tickClientSideBlocksEiiP10LevelChunk = 0x202a60
_ZN5Level10tickBlocksEv = 0x202a64
_ZN5Level9instaTickERK8BlockPosPK10BlockStateR6Random = 0x202a70
_ZN5Level16tickPendingTicksEb = 0x2036b4
_ZN5Level17fetchTicksInChunkEP10LevelChunkb = 0x2036bc
_ZN5Level16fetchTicksInAreaEP11BoundingBoxb = 0x2036c4
_ZN5Level9getEntityEi = 0x203e7c
blockEntityChanged__5LevelFRC8BlockPosQ2_5boost32shared_ptr__tm__14_11BlockEntity = 0x203f10
_ZN5Level11addEntitiesEPSt6vectorISt10shared_ptrI6EntityESt9allocatorISt10shared_ptrI6EntityEEE = 0x204074
_ZN5Level14removeEntitiesEPSt6vectorISt10shared_ptrI6EntityESt9allocatorISt10shared_ptrI6EntityEEE = 0x204340
_ZN5Level11setSeaLevelEi = 0x2044c0
_ZN5Level15getDirectSignalERK8BlockPosPK9Direction = 0x2044c8
_ZN5Level16getGeneratorTypeEv = 0x204514
_ZN5Level10disconnectEb = 0x205c18
_ZN5Level12checkSessionEv = 0x205c1c
_ZN5Level11getGameTimeEv = 0x205c3c
_ZN5Level10getDayTimeEv = 0x205c4c
_ZN5Level17getSharedSpawnPosEv = 0x205d6c
_ZN5Level14getWorldBorderEv = 0x205e5c
_ZN5Level11mayInteractESt10shared_ptrI6PlayerERK8BlockPosP5Block = 0x20610c
_ZN5Level20broadcastEntityEventESt10shared_ptrI6EntityEji = 0x206114
_ZN5Level10blockEventERK8BlockPosP5Blockii = 0x206120
_ZN5Level24updateSleepingPlayerListEv = 0x20617c
_ZN5Level9isRainingEv = 0x2061c0
_ZN5Level9isHumidAtERK8BlockPos = 0x206220
_ZN5Level17getMaxBuildHeightEv = 0x20645c
_ZN5Level9getHeightEv = 0x206464
_ZN5Level10isAllEmptyEv = 0x206500
_ZN5Level15createFireworksEddddddP11CompoundTag = 0x20656c
_ZN5Level30updateNeighbourForOutputSignalERK8BlockPosP5Block = 0x206570
_ZN10LevelChunk16getInhabitedTimeEv = 0x20676c
_ZN5Level14getFogDistanceEv = 0x206784
_ZN5Level15getSkyFlashTimeEv = 0x2067a4
_ZN5Level18sendPacketToServerESt10shared_ptrI6PacketE = 0x2069f8
_ZN5Level21findNearestMapFeatureERKSt12basic_stringIwSt11char_traitsIwESt9allocatorIwEERK8BlockPosb = 0x206a04
IsInvalid__10LevelChunkFv = 0x206b04
_ZN5Level13canCreateMoreE11eINSTANCEOFN5Level11ESPAWN_TYPEE = 0x206cfc
_ZN5Level21AllPlayersAreSleepingEv = 0x207108
_ZN10LevelChunk10staticCtorEv = 0x207498
_ZN10LevelChunk4initEP5Levelii = 0x2074c8
_ZN10LevelChunkC1EP5LevelP11ChunkPrimerii = 0x207870
_ZN10LevelChunk14reSyncLightingEv = 0x207c3c
_ZN10LevelChunk20reSyncLightingNearbyEv = 0x207e00
_ZN10LevelChunk12dropLightingEv = 0x207f68
_ZN10LevelChunkD1Ev = 0x208078
_ZN10LevelChunkD0Ev = 0x208234
_ZN10LevelChunk4isAtEii = 0x20836c
_ZN10LevelChunk12getHeightmapEii = 0x2083e8
_ZN10LevelChunk17recalcBlockLightsEv = 0x208420
_ZN10LevelChunk19recalcHeightmapOnlyEv = 0x208424
_ZN10LevelChunk15recalcHeightmapEv = 0x2085a8
_ZN10LevelChunk9lightLavaEv = 0x2088a4
_ZN10LevelChunk18getBlockLightBlockERK8BlockPos = 0x209580
_ZN10LevelChunk8getBlockERK8BlockPos = 0x2095b0
_ZN10LevelChunk13getBlockStateERK8BlockPos = 0x209608
_ZN10LevelChunk7setDataEiiiiiPb = 0x209750
_ZN10LevelChunk7getDataERK8BlockPos = 0x2098e0
_ZN10LevelChunk8setBlockERK8BlockPosPK10BlockState = 0x209938
_ZN10LevelChunk15setBlockAndDataEiiiiib = 0x209e8c
_ZN10LevelChunk13getBrightnessEN10LightLayer7varietyERK8BlockPos = 0x20a2fc
_ZN10LevelChunk24getNeighbourBrightnessesEPiN10LightLayer7varietyEiii = 0x20a3e0
_ZN10LevelChunk13setBrightnessEN10LightLayer7varietyERK8BlockPosi = 0x20a55c
_ZN10LevelChunk16getRawBrightnessERK8BlockPosi = 0x20a640
_ZN10LevelChunk9addEntityENSt3__110shared_ptrI6EntityEE = 0x20a730
_ZN10LevelChunk12removeEntityENSt3__110shared_ptrI6EntityEE = 0x20a860
_ZN10LevelChunk12removeEntityENSt3__110shared_ptrI6EntityEEi = 0x20a8cc
_ZN10LevelChunk8isSkyLitERK8BlockPos = 0x20aa44
_ZN10LevelChunk14getBlockEntityERK8BlockPosNS_18EntityCreationTypeE = 0x20ab84
_ZN10LevelChunk14addBlockEntityENSt3__110shared_ptrI11BlockEntityEE = 0x20ad80
_ZN10LevelChunk14setBlockEntityERK8BlockPosNSt3__110shared_ptrI11BlockEntityEE = 0x20ae50
_ZN10LevelChunk17removeBlockEntityERK8BlockPos = 0x20b1ac
_ZN10LevelChunk4loadEb = 0x20b25c
_ZN10LevelChunk6unloadEbb = 0x20b9c0
_ZNSt3__113__vector_baseIP16TickNextTickDataNS_9allocatorIS2_EEED2Ev = 0x20c0b0
_ZN10LevelChunk14containsPlayerEv = 0x20c0f8
_ZN10LevelChunk11markUnsavedEv = 0x20c1bc
_ZN10LevelChunk11getEntitiesENSt3__110shared_ptrI6EntityEEPK4AABBRNS0_6vectorIS3_NS0_9allocatorIS3_EEEEPK9PredicateIS3_E = 0x20c1c4
_ZN3Mth5clampEiii = 0x20c520
_ZN10LevelChunk18getEntitiesOfClassERKSt9type_infoPK4AABBRNSt3__16vectorINS6_10shared_ptrI6EntityEENS6_9allocatorISA_EEEEPK9PredicateISA_Eb = 0x20c534
_ZN10LevelChunk13countEntitiesEv = 0x20c994
_ZN10LevelChunk10shouldSaveEb = 0x20ca3c
_ZN10LevelChunk16getBlocksAndDataEP15arrayWithLengthIhEiiiiiiib = 0x20cac4
_ZN10LevelChunk20testSetBlocksAndDataE15arrayWithLengthIhEiiiiiii = 0x20cd24
_ZN10LevelChunk16setBlocksAndDataE15arrayWithLengthIhEiiiiiiib = 0x20cf2c
_ZN10LevelChunk9getRandomEx = 0x20d320
_ZN10LevelChunk7isEmptyEv = 0x20d3b0
_ZN10LevelChunk6getPosEv = 0x20dd34
_ZN10LevelChunk8getBiomeERK8BlockPosP11BiomeSource = 0x20dd68
_ZN10LevelChunk16setCheckAllLightEv = 0x20df58
_ZN10LevelChunk11getDataDataE15arrayWithLengthIhE = 0x20e118
_ZN10LevelChunk16getDataDataRangeE15arrayWithLengthIhEii = 0x20e188
_ZN10LevelChunk11setDataDataE15arrayWithLengthIhE = 0x20e224
_ZN10LevelChunk15getSkyLightDataE15arrayWithLengthIhE = 0x20e2d4
_ZN10LevelChunk17getBlockLightDataE15arrayWithLengthIhE = 0x20e334
_ZN10LevelChunk15setSkyLightDataE15arrayWithLengthIhE = 0x20e394
_ZN10LevelChunk17setBlockLightDataE15arrayWithLengthIhE = 0x20e444
_ZN10LevelChunk16compressLightingEv = 0x20e51c
_ZN10LevelChunk14compressBlocksEv = 0x20e554
_ZN10LevelChunk24writeCompressedBlockDataEP16DataOutputStream = 0x20e5f0
_ZN10LevelChunk23writeCompressedDataDataEP16DataOutputStream = 0x20e620
_ZN10LevelChunk27writeCompressedSkyLightDataEP16DataOutputStream = 0x20e650
_ZN10LevelChunk29writeCompressedBlockLightDataEP16DataOutputStream = 0x20e680
_ZN10LevelChunk12compressDataEv = 0x20e864
isRenderChunkEmpty__10LevelChunkFi = 0x20e8f8
_ZN10LevelChunk12setBlockDataE15arrayWithLengthIhE = 0x20e96c
_ZN10LevelChunk12getBlockDataE15arrayWithLengthIhE = 0x20e9cc
_ZN10LevelChunk17getBlockDataRangeE15arrayWithLengthIhEii = 0x20ea3c
_ZN10LevelChunk25getReorderedBlocksAndDataEiiiiRii = 0x20eb18
_ZN9LevelDataC1Ev = 0x20f0b4
_ZN9LevelDataC1EP11CompoundTag = 0x20f198
_ZN9LevelDataC1EP13LevelSettingsRKNSt3__112basic_stringIwNS2_11char_traitsIwEENS2_9allocatorIwEEEE = 0x210904
_ZN9LevelDataC1EPS_ = 0x210c2c
_ZN9LevelDataD1Ev = 0x210df8
_ZN9LevelDataD0Ev = 0x210e6c
_ZN9LevelData10addWalkersEP14DataFixerUpper = 0x210e90
_ZN9LevelData9createTagEv = 0x210f1c
_ZN9LevelData9createTagEPNSt3__16vectorINS0_10shared_ptrI6PlayerEENS0_9allocatorIS4_EEEE = 0x210f60
_ZN9LevelData10setTagDataEP11CompoundTag = 0x210f6c
_ZN9LevelData7getSeedEv = 0x211bec
_ZN9LevelData9getXSpawnEv = 0x211bf4
_ZN9LevelData9getYSpawnEv = 0x211bfc
_ZN9LevelData9getZSpawnEv = 0x211c04
_ZN9LevelData14getXStrongholdEv = 0x211c0c
_ZN9LevelData14getZStrongholdEv = 0x211c14
_ZN9LevelData23getXStrongholdEndPortalEv = 0x211c1c
_ZN9LevelData23getZStrongholdEndPortalEv = 0x211c24
_ZN9LevelData11getGameTimeEv = 0x211c2c
_ZN9LevelData10getDayTimeEv = 0x211c34
_ZN9LevelData13getSizeOnDiskEv = 0x211c3c
_ZN9LevelData18getLoadedPlayerTagEv = 0x211c44
_ZN9LevelData7setSeedEx = 0x211c4c
_ZN9LevelData9setXSpawnEi = 0x211c54
_ZN9LevelData9setYSpawnEi = 0x211c5c
_ZN9LevelData9setZSpawnEi = 0x211c64
_ZN9LevelData16setHasStrongholdEv = 0x211c6c
_ZN9LevelData16getHasStrongholdEv = 0x211c78
_ZN9LevelData14setXStrongholdEi = 0x211c80
_ZN9LevelData14setZStrongholdEi = 0x211c88
_ZN9LevelData25setHasStrongholdEndPortalEv = 0x211c90
_ZN9LevelData25getHasStrongholdEndPortalEv = 0x211c9c
_ZN9LevelData23setXStrongholdEndPortalEi = 0x211ca4
_ZN9LevelData23setZStrongholdEndPortalEi = 0x211cac
_ZN9LevelData11setGameTimeEx = 0x211cb4
_ZN9LevelData10setDayTimeEx = 0x211cbc
_ZN9LevelData13setSizeOnDiskEx = 0x211cc4
_ZN9LevelData18setLoadedPlayerTagEP11CompoundTag = 0x211ccc
_ZN9LevelData8setSpawnERK8BlockPos = 0x211cd0
_ZN9LevelData12getLevelNameEv = 0x211d14
_ZN9LevelData12setLevelNameERKNSt3__112basic_stringIwNS0_11char_traitsIwEENS0_9allocatorIwEEEE = 0x211d20
_ZN9LevelData10getVersionEv = 0x211d28
_ZN9LevelData10setVersionEi = 0x211d30
_ZN9LevelData13getLastPlayedEv = 0x211d38
_ZN9LevelData19getClearWeatherTimeEv = 0x211d40
_ZN9LevelData19setClearWeatherTimeEi = 0x211d48
_ZN9LevelData12isThunderingEv = 0x211d50
_ZN9LevelData13setThunderingEb = 0x211d58
_ZN9LevelData14getThunderTimeEv = 0x211d64
_ZN9LevelData14setThunderTimeEi = 0x211d6c
_ZN9LevelData9isRainingEv = 0x211d74
_ZN9LevelData10setRainingEb = 0x211d7c
_ZN9LevelData11getRainTimeEv = 0x211d88
_ZN9LevelData11setRainTimeEi = 0x211d90
_ZN9LevelData11getGameTypeEv = 0x211d98
_ZN9LevelData21isGenerateMapFeaturesEv = 0x211da0
_ZN9LevelData22setGenerateMapFeaturesEb = 0x211da8
_ZN9LevelData18getSpawnBonusChestEv = 0x211db4
_ZN9LevelData11setGameTypeEPK8GameType = 0x211dbc
_ZN9LevelData14useNewSeaLevelEv = 0x211e1c
_ZN9LevelData20getHasBeenInCreativeEv = 0x211e24
_ZN9LevelData20setHasBeenInCreativeEb = 0x211e2c
_ZN9LevelData16getGeneratorTypeEv = 0x211e38
_ZN9LevelData16setGeneratorTypeEP9LevelType = 0x211e40
_ZN9LevelData19getGeneratorOptionsEv = 0x211e68
_ZN9LevelData19setGeneratorOptionsEP15SuperflatConfig = 0x211e70
_ZN9LevelData10isHardcoreEv = 0x211e78
_ZN9LevelData11setHardcoreEb = 0x211e80
_ZN9LevelData16getAllowCommandsEv = 0x211e8c
_ZN9LevelData16setAllowCommandsEb = 0x211e94
_ZN9LevelData13isInitializedEv = 0x211ea0
_ZN9LevelData14setInitializedEb = 0x211ea8
_ZN9LevelData12getGameRulesEv = 0x211eb4
_ZN9LevelData9getXZSizeEv = 0x211ebc
_ZN9LevelData13getDifficultyEv = 0x211ec4
_ZN9LevelData13setDifficultyEPK10Difficulty = 0x211ecc
_ZN9LevelData14getCloudHeightEv = 0x211ef8
_ZN9LevelData14setCloudHeightEi = 0x211f00
_ZN9LevelData18isDifficultyLockedEv = 0x211f08
_ZN9LevelData19setDifficultyLockedEb = 0x211f10
_ZN9LevelData16getDimensionDataEPK13DimensionType = 0x211f1c
_ZN9LevelData16setDimensionDataEPK13DimensionTypeP11CompoundTag = 0x211f64
_ZN9LevelData16getCurrentXZSizeEv = 0x212214
_ZN9LevelData15func_710021221CEv = 0x21221c
_ZN9LevelData15func_7100212238Ev = 0x212238
_ZN9LevelData12getHellScaleEv = 0x21229c
_ZN9LevelData12setModernEndEv = 0x2122a4
_ZN9LevelData12getModernEndEv = 0x2122b0
_ZN9LevelData13getBiomeScaleEv = 0x2122b8
_ZN9LevelData20getBiomeCentreXChunkEv = 0x2122c0
_ZN9LevelData20getBiomeCentreZChunkEv = 0x2122c8
_ZN9LevelType10staticCtorEv = 0x212564
_ZN10LeverBlock15blockStaticCtorEv = 0x212884
_ZN10LeverBlock11getClipAABBEPK10BlockStateP11LevelSourceRK8BlockPos = 0x21305c
_ZNK10LeverBlock13isSolidRenderEPK10BlockState = 0x21306c
_ZN10LeverBlock12isCubeShapedEPK10BlockState = 0x213074
_ZN10LeverBlock8mayPlaceEP5LevelRK8BlockPosPK9Direction = 0x21307c
_ZN10LeverBlock8mayPlaceEP5LevelRK8BlockPos = 0x213090
_ZN10LeverBlock20getStateForPlacementEP5LevelRK8BlockPosPK9DirectionfffiSt10shared_ptrI12LivingEntityE = 0x2130f8
_ZN10LeverBlock15neighborChangedEPK10BlockStateP5LevelRK8BlockPosP5BlockRK8BlockPos = 0x2133cc
_ZN10LeverBlock25getSpawnResourcesAuxValueEPK10BlockState = 0x213578
_ZN10LeverBlock8getShapeEPK10BlockStateP11LevelSourceRK8BlockPos = 0x213588
_ZN10LeverBlock7TestUseEv = 0x2135e0
_ZN10LeverBlock3useEP5LevelRK8BlockPosPK10BlockStateSt10shared_ptrI6PlayerEN15InteractionHand16EInteractionHandEPK9Directionfffb = 0x2135e8
_ZN10LeverBlock8onRemoveEP5LevelRK8BlockPosPK10BlockState = 0x213820
_ZN10LeverBlock9getSignalEPK10BlockStateP11LevelSourceRK8BlockPosPK9Direction = 0x2138dc
_ZN10LeverBlock15getDirectSignalEPK10BlockStateP11LevelSourceRK8BlockPosPK9Direction = 0x213920
_ZN10LeverBlock14isSignalSourceEPK10BlockState = 0x213994
_ZN10LeverBlock13getBlockStateEi = 0x21399c
_ZN10LeverBlock29convertBlockStateToLegacyDataEPK10BlockState = 0x213a18
_ZN10LeverBlock18GetInteractTooltipERK22BlockTooltipDataHolder = 0x213a70
_ZN10LeverBlock6rotateEPK10BlockStateP8Rotation = 0x213a98
_ZN10LeverBlock6mirrorEPK10BlockStateP6Mirror = 0x213c10
_ZN10LeverBlock26createBlockStateDefinitionEv = 0x213c7c
_ZN10LeverBlock17getBlockFaceShapeEP11LevelSourcePK10BlockStateRK8BlockPosPK9Direction = 0x213cfc
_ZN10LeverBlock14getRenderShapeEPK10BlockState = 0x213d04
_ZN15LightGemFeature5placeEP5LevelR6RandomRK8BlockPos = 0x213d84
_ZN17StaticLiquidBlock11DerivedInitEv = 0x214ad4
_ZN17StaticLiquidBlock8getShapeEPK10BlockStateP11LevelSourceRK8BlockPos = 0x214b58
_ZN17StaticLiquidBlock11getClipAABBEPK10BlockStateP11LevelSourceRK8BlockPos = 0x214b68
_ZN17StaticLiquidBlock14isPathfindableEP11LevelSourceRK8BlockPos = 0x214b78
_ZN17StaticLiquidBlock8getColorEP11LevelSourceRK8BlockPosi = 0x214b94
_ZN17StaticLiquidBlock8getColorEP11LevelSourceRK8BlockPosPK10BlockState = 0x214ba4
_ZN17StaticLiquidBlock12isCubeShapedEPK10BlockState = 0x214c50
_ZNK17StaticLiquidBlock13isSolidRenderEPK10BlockState = 0x214c58
_ZN17StaticLiquidBlock7mayPickEPK10BlockStateb = 0x214c60
_ZN17StaticLiquidBlock11isSolidFaceEP11LevelSourceRK8BlockPosPK9Direction = 0x214c9c
_ZN17StaticLiquidBlock16shouldRenderFaceEPK10BlockStateP11LevelSourceRK8BlockPosPK9Direction = 0x214db4
_ZN17StaticLiquidBlock14getRenderShapeEPK10BlockState = 0x214ff4
_ZN17StaticLiquidBlock11getResourceEPK10BlockStateP6Randomi = 0x214ffc
_ZN17StaticLiquidBlock16getResourceCountEP6Random = 0x21500c
_ZN17StaticLiquidBlock18handleEntityInsideEP5LevelRK8BlockPosSt10shared_ptrI6EntityEP4Vec3 = 0x2152e0
_ZN17StaticLiquidBlock12getTickDelayEP5Level = 0x215350
_ZN17StaticLiquidBlock13getLightColorEPK10BlockStateP11LevelSourceRK8BlockPosi = 0x2153b4
_ZN17StaticLiquidBlock14getRenderLayerEv = 0x215460
_ZN17StaticLiquidBlock11animateTickEPK10BlockStateP5LevelRK8BlockPosP6Random = 0x215480
_ZN17StaticLiquidBlock7onPlaceEP5LevelRK8BlockPosPK10BlockState = 0x215c14
_ZN11LiquidBlock15neighborChangedEPK10BlockStateP5LevelRK8BlockPosP5BlockRK8BlockPos = 0x215c20
_ZN17StaticLiquidBlock13getBlockStateEi = 0x215fa8
_ZN17StaticLiquidBlock29convertBlockStateToLegacyDataEPK10BlockState = 0x215fd8
_ZN17StaticLiquidBlock26createBlockStateDefinitionEv = 0x215ff0
_ZN17StaticLiquidBlock13registerIconsEP12IconRegister = 0x2160ac
_ZN17StaticLiquidBlock10getTextureEPK9DirectionPK10BlockState = 0x216144
_ZN17StaticLiquidBlock17getBlockFaceShapeEP11LevelSourcePK10BlockStateRK8BlockPosPK9Direction = 0x216278
_ZN7ListTagC1Ei = 0x216280
_ZN7ListTagD1Ev = 0x2162bc
deleteElements__tm__5_3Tag__FRCQ2_3std49vector__tm__35_PZ1ZQ2_3std21allocator__tm__5_PZ1Z_v = 0x216300
_ZN7ListTagD0Ev = 0x21637c
_ZN7ListTag5writeEP10DataOutput = 0x2163a0
_ZN7ListTag4loadEP9DataInputi = 0x216448
_ZN7ListTag5getIdEv = 0x216544
_ZN7ListTag8toStringEv = 0x21654c
_ZN7ListTag5printERKNSt3__112basic_stringIwNS0_11char_traitsIwEENS0_9allocatorIwEEEEPcRNS0_13basic_ostreamIwS3_EE = 0x2165c4
_ZN7ListTag18stripEmptyChildrenEv = 0x2168f0
_ZNK7ListTag7isEmptyEv = 0x2169a8
_ZNK7ListTag9getDoubleEi = 0x216a54
_ZNK7ListTag8getFloatEi = 0x216ac8
_ZN7ListTag4copyEv = 0x216be4
_ZN7ListTag6equalsEP3Tag = 0x216c8c
_ZN12LivingEntity10staticCtorEv = 0x216d50
_ZN12LivingEntity4killEv = 0x216e14
_ZN12LivingEntity4initEv = 0x216e38
_ZN12LivingEntityC1EP5Level = 0x21706c
_ZN12LivingEntity18fjDerivedCtorCallsEv = 0x21719c
_ZN12LivingEntity17defineSynchedDataEv = 0x217308
_ZN12LivingEntity18registerAttributesEv = 0x217398
_ZN12LivingEntity15checkFallDamageEdbP5BlockRK8BlockPos = 0x217474
_ZN12LivingEntity10isWaterMobEv = 0x217608
_ZN12LivingEntity8baseTickEv = 0x217610
_ZN12LivingEntity14onChangedBlockERK8BlockPos = 0x217c54
_ZN12LivingEntity6isBabyEv = 0x217d20
_ZN12LivingEntity9tickDeathEv = 0x217d28
_ZN12LivingEntity20shouldDropExperienceEv = 0x217fac
_ZN12LivingEntity17decreaseAirSupplyEi = 0x217fd0
_ZN12LivingEntity19getExperienceRewardESt10shared_ptrI6PlayerE = 0x21806c
_ZN12LivingEntity25isAlwaysExperienceDropperEv = 0x218074
_ZN12LivingEntity9getRandomEv = 0x21807c
_ZN12LivingEntity16getLastHurtByMobEv = 0x218084
_ZN12LivingEntity25getLastHurtByMobTimestampEv = 0x21808c
_ZN12LivingEntity16setLastHurtByMobESt10shared_ptrI12LivingEntityE = 0x218094
_ZN12LivingEntity14getLastHurtMobEv = 0x218104
_ZN12LivingEntity23getLastHurtMobTimestampEv = 0x21810c
_ZN12LivingEntity14setLastHurtMobESt10shared_ptrI6EntityE = 0x218114
_ZN12LivingEntity15getNoActionTimeEv = 0x2181d4
_ZN12LivingEntity20addAdditonalSaveDataEP11CompoundTag = 0x2182e8
_ZN12LivingEntity22readAdditionalSaveDataEP11CompoundTag = 0x218820
_ZN12LivingEntity11tickEffectsEv = 0x21910c
_ZN12LivingEntity24updateInvisibilityStatusEv = 0x2194c0
_ZN12LivingEntity21removeEffectParticlesEv = 0x2196b8
_ZN12LivingEntity16removeAllEffectsEv = 0x219708
_ZN12LivingEntity16getActiveEffectsEv = 0x21977c
_ZN12LivingEntity9hasEffectE9MobEffect = 0x219804
_ZN12LivingEntity9getEffectE9MobEffect = 0x219834
_ZN12LivingEntity9addEffectEP17MobEffectInstanceRKSt10shared_ptrI6EntityE = 0x219864
_ZN12LivingEntity17addEffectNoUpdateEP17MobEffectInstance = 0x219be0
_ZN12LivingEntity13canBeAffectedEP17MobEffectInstance = 0x219c90
_ZN12LivingEntity21isInvertedHealAndHarmEv = 0x219cfc
_ZN12LivingEntity20removeEffectNoUpdateE9MobEffect = 0x219d20
_ZN12LivingEntity12removeEffectE9MobEffect = 0x219d78
_ZN12LivingEntity13onEffectAddedEP17MobEffectInstance = 0x219df0
_ZN12LivingEntity15onEffectUpdatedEP17MobEffectInstanceb = 0x219eb0
_ZN12LivingEntity15onEffectRemovedEP17MobEffectInstance = 0x219fe0
_ZN12LivingEntity4healEf = 0x21a098
_ZN12LivingEntity9getHealthEv = 0x21a0f4
_ZN12LivingEntity9setHealthEf = 0x21a108
_ZN12LivingEntity4hurtEP12DamageSourcef = 0x21a164
_ZN12LivingEntity16blockUsingShieldERKSt10shared_ptrI12LivingEntityE = 0x21aa74
_ZN12LivingEntity25checkTotemDeathProtectionEP12DamageSource = 0x21aaf4
_ZN12LivingEntity19getLastDamageSourceEv = 0x21ad80
_ZN12LivingEntity13playHurtSoundEP12DamageSource = 0x21add0
_ZN12LivingEntity21isDamageSourceBlockedEP12DamageSource = 0x21ae58
_ZN12LivingEntity9breakItemE12not_null_ptrI12ItemInstanceE = 0x21aea0
_ZN12LivingEntity3dieEP12DamageSource = 0x21b120
_ZN12LivingEntity16dropAllDeathLootEbiP12DamageSource = 0x21b4c4
_ZN12LivingEntity13dropEquipmentEbi = 0x21b518
_ZN12LivingEntity9knockbackESt10shared_ptrI6EntityEfdd = 0x21b51c
_ZN12LivingEntity12getHurtSoundEP12DamageSource = 0x21b670
_ZN12LivingEntity13getDeathSoundEv = 0x21b680
_ZN12LivingEntity18getFallDamageSoundEi = 0x21b690
_ZN12LivingEntity13dropDeathLootEbi = 0x21b6b0
_ZN12LivingEntity8onLadderEv = 0x21b6b4
_ZN12LivingEntity11isShootableEv = 0x21b8c8
_ZN12LivingEntity7isAliveEv = 0x21b8d0
_ZN12LivingEntity15causeFallDamageEff = 0x21b904
_ZN12LivingEntity11animateHurtEv = 0x21bb10
_ZN12LivingEntity13getArmorValueEv = 0x21bb28
_ZN12LivingEntity9hurtArmorEf = 0x21bb5c
_ZN12LivingEntity23hurtCurrentlyUsedShieldEf = 0x21bb60
_ZN12LivingEntity25getDamageAfterArmorAbsorbE12DamageSourcef = 0x21bb64
_ZN12LivingEntity25getDamageAfterMagicAbsorbE12DamageSourcef = 0x21bc08
_ZN12LivingEntity12actuallyHurtE12DamageSourcef = 0x21bd3c
_ZN12LivingEntity17spawnEatParticlesERK12ItemInstancei = 0x21be80
_ZN12LivingEntity16getCombatTrackerEv = 0x21c074
_ZN12LivingEntity13getKillCreditEv = 0x21c07c
_ZN12LivingEntity12getMaxHealthEv = 0x21c12c
_ZN12LivingEntity13getArrowCountEv = 0x21c164
_ZN12LivingEntity13setArrowCountEi = 0x21c178
_ZN12LivingEntity5swingEN15InteractionHand16EInteractionHandE = 0x21c23c
_ZN12LivingEntity17handleEntityEventEhi = 0x21c488
_ZN12LivingEntity10outOfWorldEv = 0x21c7c0
_ZN12LivingEntity15updateSwingTimeEv = 0x21c7dc
_ZN12LivingEntity12getAttributeEP9Attribute = 0x21c83c
_ZN12LivingEntity13getAttributesEv = 0x21c870
_ZN12LivingEntity10getMobTypeEv = 0x21c8fc
_ZN12LivingEntity15getMainHandItemEv = 0x21c904
_ZN12LivingEntity14getOffhandItemEv = 0x21c91c
_ZN12LivingEntity13getItemInHandEN15InteractionHand16EInteractionHandE = 0x21c934
_ZN12LivingEntity13setItemInHandEN15InteractionHand16EInteractionHandE12not_null_ptrI12ItemInstanceE = 0x21c980
_ZN12LivingEntity13hasItemInSlotEPK13EquipmentSlot = 0x21ca28
_ZN12LivingEntity12setSprintingEb = 0x21ca70
_ZN12LivingEntity17getItemInHandIconE12not_null_ptrI12ItemInstanceEi = 0x21cb30
_ZN12LivingEntity14getSoundVolumeEv = 0x21cb88
_ZN12LivingEntity13getVoicePitchEv = 0x21cb90
_ZN12LivingEntity10isImmobileEv = 0x21cbfc
_ZN12LivingEntity19findStandUpPositionESt10shared_ptrI6EntityE = 0x21cc20
_ZN12LivingEntity14shouldShowNameEv = 0x21d1ec
_ZN12LivingEntity12getJumpPowerEv = 0x21d1f8
_ZN12LivingEntity14jumpFromGroundEv = 0x21d204
_ZN12LivingEntity11jumpInWaterEv = 0x21d304
_ZN12LivingEntity10jumpInLavaEv = 0x21d31c
_ZN12LivingEntity16getWaterSlowDownEv = 0x21d334
_ZN12LivingEntity6travelEfff = 0x21d340
_ZN12LivingEntity20updateModelAnimationEv = 0x21e8b8
_ZN19MultiPlayerGameMode10isCutSceneEv = 0x21eae4
_ZN12LivingEntity13getLightColorEv = 0x21eda8
_ZN12LivingEntity14setBoundingBoxEP4AABB = 0x21f200
_ZN12LivingEntity8getSpeedEv = 0x21f2f0
_ZN12LivingEntity8setSpeedEf = 0x21f2f8
_ZN12LivingEntity12doHurtTargetESt10shared_ptrI6EntityE = 0x21f300
_ZN12LivingEntity10isSleepingEv = 0x21f35c
_ZN12LivingEntity4tickEv = 0x21f364
_ZN3Mth11wrapDegreesEf = 0x21fb10
_ZN12LivingEntity12tickHeadTurnEff = 0x21fb68
_ZN12LivingEntity6aiStepEv = 0x21fc28
_ZN12LivingEntity12serverAiStepEv = 0x22033c
_ZN12LivingEntity12pushEntitiesEv = 0x220340
_ZN12LivingEntity6doPushESt10shared_ptrI6EntityE = 0x220548
_ZN12LivingEntity10stopRidingEv = 0x220598
_ZN12LivingEntity8rideTickEv = 0x220684
_ZN12LivingEntity6lerpToEdddffib = 0x2206b4
_ZN12LivingEntity10setJumpingEb = 0x2206d8
_ZN12LivingEntity4takeESt10shared_ptrI6EntityEi = 0x2206e4
_ZN12LivingEntity6canSeeESt10shared_ptrI6EntityE = 0x2208e8
_ZN12LivingEntity13getViewVectorEf = 0x2209a0
_ZN12LivingEntity13getAttackAnimEf = 0x2209e4
_ZN12LivingEntity14getSweptVolumeEv = 0x220a0c
_ZN12LivingEntity13isEffectiveAiEv = 0x220a50
_ZN12LivingEntity10isPickableEv = 0x220a64
_ZN12LivingEntity10isPushableEv = 0x220a74
_ZN12LivingEntity8markHurtEv = 0x220ac0
_ZN12LivingEntity11getYHeadRotEv = 0x220b24
_ZN12LivingEntity11setYHeadRotEf = 0x220b2c
_ZN12LivingEntity11setYBodyRotEf = 0x220b34
_ZN12LivingEntity19getAbsorptionAmountEv = 0x220b3c
_ZN12LivingEntity19setAbsorptionAmountEf = 0x220b44
_ZN12LivingEntity13onEnterCombatEv = 0x220b54
_ZN12LivingEntity13onLeaveCombatEv = 0x220b58
_ZN12LivingEntity22updateEffectVisibilityEv = 0x220b5c
_ZN12LivingEntity11isUsingItemEv = 0x220b68
_ZN12LivingEntity15getUsedItemHandEv = 0x220b90
_ZN12LivingEntity17updatingUsingItemEv = 0x220bb8
_ZN12LivingEntity24getUseItemRemainingTicksEv = 0x220cb0
_ZN12LivingEntity14startUsingItemEN15InteractionHand16EInteractionHandE = 0x220cb8
_ZN12LivingEntity19onSyncedDataUpdatedEPK23EntityDataAccessor_Base = 0x220d60
_ZN12LivingEntity21spawnItemUseParticlesE12not_null_ptrI12ItemInstanceEi = 0x220e64
_ZN12LivingEntity17completeUsingItemEv = 0x2211bc
_ZN12LivingEntity17getTicksUsingItemEv = 0x221304
_ZN12LivingEntity16releaseUsingItemEv = 0x22135c
_ZN12LivingEntity16releaseUsingItemEi = 0x221398
_ZN12LivingEntity13stopUsingItemEv = 0x22144c
_ZN12LivingEntity10isBlockingEv = 0x2214a4
_ZN12LivingEntity12isFallFlyingEv = 0x221558
_ZN12LivingEntity18getFallFlyingTicksEv = 0x221568
_ZN12LivingEntity19isAffectedByPotionsEv = 0x221920
_ZN12LivingEntity10attackableEv = 0x221928
_ZN12LivingEntity22setRecordPlayingNearbyERK8BlockPosb = 0x221930
_ZN12LivingEntity7getTeamEv = 0x221934
_ZN12LivingEntity15stopCurrentLerpEv = 0x221a18
_ZN12LivingEntity16IsCreativeFlyingEv = 0x221ac8
_ZN5Llama10staticCtorEv = 0x221b6c
_ZN8LogBlock15blockStaticCtorEv = 0x225c34
_ZN11OldLogBlock8onRemoveEP5LevelRK8BlockPosPK10BlockState = 0x225fa8
_ZN11OldLogBlock20getStateForPlacementEP5LevelRK8BlockPosPK9DirectionfffiSt10shared_ptrI12LivingEntityE = 0x22614c
_ZN11OldLogBlock6rotateEPK10BlockStateP8Rotation = 0x2261e0
_ZN11OldLogBlock16getDescriptionIdEi = 0x2262d4
_ZN11OldLogBlock13registerIconsEP12IconRegister = 0x226394
_ZN7LongTagC1Ev = 0x226680
_ZN7LongTagC1El = 0x2266b0
_ZN7LongTag5writeEP10DataOutput = 0x2266e4
_ZN7LongTag4loadEP9DataInputi = 0x2266fc
_ZN7LongTag5getIdEv = 0x22672c
_ZN7LongTag8toStringEv = 0x226734
_ZN7LongTag4copyEv = 0x22678c
_ZN7LongTag6equalsEP3Tag = 0x2267c0
_ZN7LongTag9getAsLongEv = 0x226800
_ZN7LongTag8getAsIntEv = 0x226808
_ZN7LongTag10getAsShortEv = 0x226810
_ZN7LongTag9getAsByteEv = 0x226818
_ZN7LongTag11getAsDoubleEv = 0x226820
_ZN7LongTag10getAsFloatEv = 0x22682c
_ZN11LookControl9setLookAtEdddff = 0x226f4c
_ZN11LookControlC1EP3Mob = 0x227094
_ZN11LookControl9setLookAtENSt3__110shared_ptrI6EntityEEff = 0x2270a8
_ZN11LookControl4tickEv = 0x2271a0
_ZN11LookControl7rotlerpEfff = 0x22735c
_ZN14PathNavigation6isDoneEv = 0x2273c4
_ZN11LookControl11isHasWantedEv = 0x2273d8
_ZN11LookControl10getWantedXEv = 0x2273e0
_ZN11LookControl10getWantedYEv = 0x2273e8
_ZN11LookControl10getWantedZEv = 0x2273f0
_ZN20LootBonusEnchantmentC1EPK6RarityPK19EnchantmentCategory15arrayWithLengthIPK13EquipmentSlotE = 0x2273f8
_ZN20LootBonusEnchantment10getMinCostEi = 0x227478
_ZN20LootBonusEnchantment10getMaxCostEi = 0x227484
_ZN20LootBonusEnchantment11getMaxLevelEv = 0x22749c
_ZN20LootBonusEnchantment18checkCompatibilityEPKS_ = 0x2274a4
_ZN3Mth5floorEf = 0x228200
_ZN10MagmaBlock11getMapColorEPK10BlockStateP11LevelSourceRK8BlockPos = 0x228ff4
_ZN10MagmaBlock6stepOnEP5LevelRK8BlockPosSt10shared_ptrI6EntityE = 0x229004
_ZN10MagmaBlock13getLightColorEPK10BlockStateP11LevelSourceRK8BlockPosi = 0x2290e4
_ZN10MagmaBlock4tickEP5LevelRK8BlockPosPK10BlockStateP6Random = 0x2290ec
_ZN10MagmaBlock12isValidSpawnEPK10BlockStateSt10shared_ptrI6EntityE = 0x2292c4
_ZN9MagmaCube14addDataWalkersEP14DataFixerUpper = 0x22930c
_ZN3Mob18registerAttributesEv = 0x22947c
_ZN18MapExtendingRecipe10StaticCtorEv = 0x22a91c
_ZN19MapSelectInfoPacketC1Ev = 0x22f148
_ZN6PacketC2Ev = 0x22f18c
_ZN19MapSelectInfoPacketD2Ev = 0x22f22c
_ZN19MapSelectInfoPacketD0Ev = 0x22f278
_ZN19MapSelectInfoPacket4readEP15DataInputStream = 0x22f29c
_ZN19MapSelectInfoPacket5writeEP16DataOutputStream = 0x22f338
_ZN19MapSelectInfoPacket6handleEP14PacketListener = 0x22f390
_ZN19MapSelectInfoPacket16getEstimatedSizeEv = 0x22f3f0
_ZN8Material10staticCtorEv = 0x22f3fc
_ZN11GasMaterialC1EPK13MaterialColor = 0x22fae8
_ZN8Material11notPushableEv = 0x22fb1c
_ZN14LiquidMaterialC1EPK13MaterialColor = 0x22fb28
_ZN8Material13destroyOnPushEv = 0x22fb60
_ZN18DecorationMaterialC1EPK13MaterialColor = 0x22fb6c
_ZN8Material19makeDestroyedByHandEv = 0x22fba0
_ZN14PortalMaterialC1EPK13MaterialColor = 0x22fbac
_ZN11WebMaterialC1EPK13MaterialColor = 0x22fbdc
_ZN8MaterialC2EPK13MaterialColor = 0x22fc0c
_ZN8Material8isLiquidEv = 0x22fc3c
_ZN8Material16letsWaterThroughEv = 0x22fc44
_ZN8Material7isSolidEv = 0x22fc90
_ZN8Material11blocksLightEv = 0x22fc98
_ZN8Material12blocksMotionEv = 0x22fca0
_ZN8Material14neverBuildableEv = 0x22fca8
_ZN8Material20notAlwaysDestroyableEv = 0x22fcb4
_ZN8Material9flammableEv = 0x22fcbc
_ZN8Material11isFlammableEv = 0x22fcc8
_ZN8Material11replaceableEv = 0x22fcd0
_ZN8Material13isReplaceableEv = 0x22fcdc
_ZN8Material15isSolidBlockingEv = 0x22fce4
_ZN8Material19isAlwaysDestroyableEv = 0x22fd00
_ZN8Material15getPushReactionEv = 0x22fd08
_ZN8Material17isDestroyedByHandEv = 0x22fd10
_ZNK8Material8getColorEv = 0x22fd18
_ZN13MaterialColor10staticCtorEv = 0x22fd20
_ZN13MaterialColor23staticCtorAfterDyeColorEv = 0x23049c
_ZN13MaterialColorC1Ei16eMinecraftColour = 0x230710
_ZNK13MaterialColor17calculateRGBColorEi = 0x230728
_ZN13MaterialColor14getDyeMaterialEPK8DyeColor = 0x2307b4
_ZN20McRegionChunkStorageC1EP15ConsoleSaveFileRKNSt3__112basic_stringIwNS2_11char_traitsIwEENS2_9allocatorIwEEEEP14DataFixerUpper = 0x230828
_ZN5NbtIo4readEP9DataInput = 0x230f20
_ZN20McRegionChunkStorageD1Ev = 0x2311a8
_ZN20McRegionChunkStorageD0Ev = 0x231214
_ZN20McRegionChunkStorage4loadEP5LeveliiP10LevelChunk = 0x231238
_ZN20McRegionChunkStorage4saveEP5LevelP10LevelChunk = 0x232250
_ZN15RegionFileCache24getChunkDataOutputStreamEP15ConsoleSaveFileRKNSt3__112basic_stringIwNS2_11char_traitsIwEENS2_9allocatorIwEEEEiib = 0x2324d8
_ZN15OldChunkStorage4saveEP10LevelChunkP5LevelP16DataOutputStream = 0x232508
_ZNSt3__15dequeIP16DataOutputStreamNS_9allocatorIS2_EEE9push_backERKS2_ = 0x232a3c
_ZN15OldChunkStorage4saveEP10LevelChunkP5LevelP11CompoundTag = 0x232aa4
_ZN20McRegionChunkStorage12saveEntitiesEP5LevelP10LevelChunk = 0x233298
_ZN20McRegionChunkStorage12loadEntitiesEP5LevelP10LevelChunk = 0x23356c
_ZN20McRegionChunkStorage4tickEv = 0x233860
_ZN20McRegionChunkStorage5flushEv = 0x233870
_ZN20McRegionChunkStorage10addWalkersEP14DataFixerUpper = 0x2339e4
_ZN20McRegionChunkStorage10staticCtorEv = 0x233aa4
_ZN20McRegionChunkStorage10WaitForAllEv = 0x233dd8
_ZN20McRegionChunkStorage25WaitIfTooManyQueuedChunksEv = 0x233eac
_ZN26McRegionLevelStorageSourceC1E4FileP14DataFixerUpper = 0x23436c
_ZN19MegaPineTreeFeature10staticCtorEv = 0x234e04
_ZN10MelonBlock11getResourceEPK10BlockStateP6Randomi = 0x23677c
_ZN10MelonBlock16getResourceCountEP6Random = 0x23678c
_ZN10MelonBlock28getResourceCountForLootBonusEiP6Random = 0x2367b0
_ZN10MelonBlock10getTextureEPK9DirectionPK10BlockState = 0x236808
_ZN10MelonBlock13registerIconsEP12IconRegister = 0x23683c
_ZN18MendingEnchantment10getMinCostEi = 0x236b58
_ZN18MendingEnchantment10getMaxCostEi = 0x236b64
_ZN18MendingEnchantment14isTreasureOnlyEv = 0x236b84
_ZN18MendingEnchantment11getMaxLevelEv = 0x236b8c
_ZN9MesaBiome10staticCtorEv = 0x2396b8
_ZN9MesaBiomeC1EN5Biome9EBiomeIDsEbbPN5Biome15BiomePropertiesE = 0x239938
_ZN8Minecart10staticCtorEv = 0x23a94c
_ZN13MinecartChest14addDataWalkersEP14DataFixerUpper = 0x23e428
_ZN20MinecartCommandBlock10staticCtorEv = 0x23e86c
_ZN20MinecartCommandBlock14addDataWalkersEP14DataFixerUpper = 0x23e8d4
_ZN15MinecartFurnace10staticCtorEv = 0x23f5d8
_ZN15MinecartFurnace14addDataWalkersEP14DataFixerUpper = 0x23f69c
_ZN14MinecartHopper14addDataWalkersEP14DataFixerUpper = 0x24032c
_ZN16MinecartRideable14addDataWalkersEP14DataFixerUpper = 0x241058
_ZN15MinecartSpawner14addDataWalkersEP14DataFixerUpper = 0x241420
_ZN11MinecartTNT14addDataWalkersEP14DataFixerUpper = 0x24162c
MinecraftWorld_RunStaticCtors = 0x241f58
_ZN6Packet10staticCtorEv = 0x242258
_ZN9MobEffect10staticCtorEv = 0x244c34
_ZN10MobEffects10staticCtorEv = 0x246450
_ZN11MobCategory10staticCtorEv = 0x246bd8
_ZN20OceanMonumentFeature10staticCtorEv = 0x246efc
_ZN19OceanMonumentPieces18OceanMonumentPiece10staticCtorEv = 0x24714c
_ZN3Mob10staticCtorEv = 0x24722c
_ZN6Ocelot10staticCtorEv = 0x247274
_ZN6Parrot10staticCtorEv = 0x2472e0
_ZN3Mob4initEv = 0x24c4bc
_ZN3MobC1Ev = 0x24c6b4
_ZN3Mob4tickEv = 0x24d18c
_ZN3Mob6aiStepEv = 0x24e948
_ZN17MobEffectInstanceC2EP9MobEffectii = 0x252504
_ZN15MobSpawnerBlock11getResourceEPK10BlockStateP6Randomi = 0x253454
_ZN15MobSpawnerBlock16getResourceCountEP6Random = 0x25345c
_ZN15MobSpawnerBlock14spawnResourcesEP5LevelRK8BlockPosPK10BlockStatefi = 0x253464
_ZNK15MobSpawnerBlock13isSolidRenderEPK10BlockState = 0x2534cc
_ZN15MobSpawnerBlock14getRenderShapeEPK10BlockState = 0x2534d4
_ZN15MobSpawnerBlock14getRenderLayerEv = 0x2534dc
_ZN15MobSpawnerBlock20getCloneItemInstanceEP5LevelRK8BlockPosPK10BlockState = 0x2534e4
_ZN21MobSpawnerBlockEntity14addDataWalkersEP14DataFixerUpper = 0x2536e4
_ZN7MonsterC1Ev = 0x255d44
_ZN7Monster14getSoundSourceEv = 0x255df8
_ZN7Monster6aiStepEv = 0x255e00
_ZN7Monster4tickEv = 0x255e54
_ZN15MonsterEggBlock15blockStaticCtorEv = 0x256558
_ZN15MonsterEggBlock16getResourceCountEP6Random = 0x2568c0
_ZN15MonsterEggBlock24getSilkTouchItemInstanceEPK10BlockState = 0x256954
_ZN15MonsterEggBlock14spawnResourcesEP5LevelRK8BlockPosPK10BlockStatefi = 0x256ab4
_ZN15MonsterEggBlock20getCloneItemInstanceEP5LevelRK8BlockPosPK10BlockState = 0x256cf8
_ZN15MonsterEggBlock13getBlockStateEi = 0x256d6c
_ZN15MonsterEggBlock29convertBlockStateToLegacyDataEPK10BlockState = 0x256dd4
_ZN15MonsterEggBlock26createBlockStateDefinitionEv = 0x256dfc
_ZN15MonsterEggBlock10getTextureEPK9DirectionPK10BlockState = 0x256e70
_ZN15MonsterEggBlock13registerIconsEP12IconRegister = 0x256ff4
_ZN18MonsterRoomFeature5placeEP5LevelR6RandomRK8BlockPos = 0x257248
_ZN11MoveControlC1Ev = 0x257b34
sqrt__3MthSFf = 0x2580fc
_ZN21MoveEntityPacketSmallC1Ev = 0x2581c4
_ZN21MoveEntityPacketSmall4readEP15DataInputStream = 0x258260
_ZN21MoveEntityPacketSmall5writeEP16DataOutputStream = 0x258294
_ZN21MoveEntityPacketSmall6handleEP14PacketListener = 0x2582d4
_ZN21MoveEntityPacketSmall16getEstimatedSizeEv = 0x258334
_ZN21MoveEntityPacketSmall16canBeInvalidatedEv = 0x25833c
_ZN21MoveEntityPacketSmall15isInvalidatedByESt10shared_ptrI6PacketE = 0x258344
_ZN21MoveEntityPacketSmall6PosRotC1Ev = 0x2583e4
_ZN21MoveEntityPacketSmall6PosRot4readEP15DataInputStream = 0x25849c
_ZN21MoveEntityPacketSmall6PosRot5writeEP16DataOutputStream = 0x25857c
_ZN21MoveEntityPacketSmall6PosRot16getEstimatedSizeEv = 0x25864c
_ZN21MoveEntityPacketSmall3PosC1Ev = 0x258654
_ZN21MoveEntityPacketSmall3Pos4readEP15DataInputStream = 0x2586e4
_ZN21MoveEntityPacketSmall3Pos5writeEP16DataOutputStream = 0x25877c
_ZN21MoveEntityPacketSmall3Pos16getEstimatedSizeEv = 0x258814
_ZN21MoveEntityPacketSmall3RotC1Ev = 0x25881c
_ZN21MoveEntityPacketSmall3Rot4readEP15DataInputStream = 0x2588ac
_ZN21MoveEntityPacketSmall3Rot5writeEP16DataOutputStream = 0x25892c
_ZN21MoveEntityPacketSmall3Rot16getEstimatedSizeEv = 0x2589ac
_ZN3Mth17cached_atan_indexEii = 0x25a290
_ZN3Mth4initEv = 0x25a34c
_ZN3Mth6lfloorEd = 0x25a568
_ZN3Mth11clampedLerpEddd = 0x25a5b0
_ZN3Mth4fracEd = 0x25a98c
_ZN3Mth8hsvToRgbEfff = 0x25aaf8
_ZN4Mule14addDataWalkersEP14DataFixerUpper = 0x25aca0
_ZN13MushroomBlock8getShapeEPK10BlockStateP11LevelSourceRK8BlockPos = 0x25b700
_ZN13MushroomBlock4tickEP5LevelRK8BlockPosPK10BlockStateP6Random = 0x25b710
_ZN13MushroomBlock8mayPlaceEP5LevelRK8BlockPos = 0x25b9c8
_ZN13MushroomBlock18GetInteractTooltipERK22BlockTooltipDataHolder = 0x25bd08
_ZN11MushroomCow14addDataWalkersEP14DataFixerUpper = 0x25bde4
_ZN19MushroomIslandBiomeC1EN5Biome9EBiomeIDsEPN5Biome15BiomePropertiesE = 0x25c620
_ZN18MutatedForestBiomeC1EN5Biome9EBiomeIDsEPN5Biome15BiomePropertiesE = 0x25cd10
_ZN19MutatedSavannaBiomeC1EN5Biome9EBiomeIDsEPN5Biome15BiomePropertiesE = 0x25cda4
_ZN13MyceliumBlock31fillVirtualBlockStatePropertiesEPK10BlockStateP11LevelSourceRK8BlockPos = 0x25cfd0
_ZN13MyceliumBlock4tickEP5LevelRK8BlockPosPK10BlockStateP6Random = 0x25d070
_ZN13MyceliumBlock11animateTickEPK10BlockStateP5LevelRK8BlockPosP6Random = 0x25d2d4
_ZN13MyceliumBlock11getResourceEPK10BlockStateP6Randomi = 0x25d3bc
_ZN13MyceliumBlock29convertBlockStateToLegacyDataEPK10BlockState = 0x25d434
_ZN13MyceliumBlock26createBlockStateDefinitionEv = 0x25d43c
_ZN13MyceliumBlock10getTextureEPK9DirectionPK10BlockState = 0x25d4b0
_ZN13MyceliumBlock10getTextureEP11LevelSourceRK8BlockPosPK9DirectionPK10BlockState = 0x25d500
_ZN13MyceliumBlock13registerIconsEP12IconRegister = 0x25d5f0
_ZN5NbtIo15writeCompressedEP11CompoundTagP12OutputStream = 0x25f778
decompress__5NbtIoSF25arrayWithLength__tm__3_Uc = 0x25f7dc
_ZN16NetherBrickBlock11getMapColorEPK10BlockStateP11LevelSourceRK8BlockPos = 0x260090
_ZN19NetherBridgeFeatureC1Ev = 0x2600a0
_ZN15NetherDimension15updateLightRampEv = 0x26a3d0
_ZN15NetherDimension11getFogColorEff = 0x26a418
_ZN15NetherDimension4initEv = 0x26a430
_ZNK15NetherDimension26createRandomLevelGeneratorEv = 0x26a48c
_ZN15NetherDimension18isNaturalDimensionEv = 0x26a558
_ZNK15NetherDimension12isValidSpawnEii = 0x26a560
m_ZNK15NetherDimension12getTimeOfDayExf = 0x26a568
_ZNK15NetherDimension10mayRespawnEv = 0x26a570
_ZN15NetherDimension9isFoggyAtEii = 0x26a578
_ZN15NetherDimension17createWorldBorderEP5Level = 0x26a580
_ZNK15NetherDimension7getTypeEv = 0x26a5b4
_ZN15NetherDimension9getXZSizeEv = 0x26a62c
_ZN15NetherDimension20getPlayerConstraintsERK8BlockPos = 0x26a68c
_ZN15NetherDimension19getBlockLightColourEv = 0x26a6ac
_ZN21NetherFlatLevelSourceC1EP5Levelbx = 0x26a6c8
_ZN21NetherFlatLevelSourceD1Ev = 0x26a790
_ZN21NetherFlatLevelSourceD0Ev = 0x26a7d8
_ZN21NetherFlatLevelSource14prepareHeightsEiiP11ChunkPrimer = 0x26a7fc
_ZN21NetherFlatLevelSource13buildSurfacesEiiP11ChunkPrimer = 0x26a8a4
_ZN21NetherFlatLevelSource11createChunkEii = 0x26ab1c
_ZN21NetherFlatLevelSource10lightChunkEP10LevelChunk = 0x26ac60
_ZN21NetherFlatLevelSource11postProcessEii = 0x26ac70
_ZN15HellFireFeatureC1Ev = 0x26aecc
_ZN15LightGemFeatureC1Ev = 0x26af00
_ZN21NetherFlatLevelSource9getMobsAtEP11MobCategoryRK8BlockPos = 0x26af34
_ZN21NetherFlatLevelSource22postProcessLoadedChunkEP10LevelChunkii = 0x26af78
_ZN21NetherFlatLevelSource21findNearestMapFeatureEP5LevelRKNSt3__112basic_stringIwNS2_11char_traitsIwEENS2_9allocatorIwEEEERK8BlockPosb = 0x26af80
_ZN21NetherFlatLevelSource14isPosInFeatureEP5LevelRKNSt3__112basic_stringIwNS2_11char_traitsIwEENS2_9allocatorIwEEEERK8BlockPos = 0x26af88
_ZN21NetherFlatLevelSource31recreateLogicStructuresForChunkEP10LevelChunkii = 0x26af90
_ZN17NetherLevelSourceC1EP5Levelbx = 0x26af98
_ZN17HellPortalFeatureC2Ev = 0x26b2d0
_ZN20LargeHellCaveFeatureC1Ev = 0x26b304
_ZN17NetherLevelSourceD1Ev = 0x26b334
_ZN17NetherLevelSourceD0Ev = 0x26b4cc
_ZN17NetherLevelSource14prepareHeightsEiiP11ChunkPrimer = 0x26b4f0
_ZN17NetherLevelSource13buildSurfacesEiiP11ChunkPrimer = 0x26b9e8
_ZN17NetherLevelSource11createChunkEii = 0x26c170
_ZN17NetherLevelSource10lightChunkEP10LevelChunk = 0x26c310
_ZN17NetherLevelSource11postProcessEii = 0x26c7a8
_ZN17NetherLevelSource22postProcessLoadedChunkEP10LevelChunkii = 0x26cf58
_ZN17NetherLevelSource9getMobsAtEP11MobCategoryRK8BlockPos = 0x26cf60
_ZN17NetherLevelSource21findNearestMapFeatureEP5LevelRKNSt3__112basic_stringIwNS2_11char_traitsIwEENS2_9allocatorIwEEEERK8BlockPosb = 0x26d070
_ZN17NetherLevelSource14isPosInFeatureEP5LevelRKNSt3__112basic_stringIwNS2_11char_traitsIwEENS2_9allocatorIwEEEERK8BlockPos = 0x26d138
_ZN17NetherLevelSource31recreateLogicStructuresForChunkEP10LevelChunkii = 0x26d1f8
_ZN15NetherrackBlock11getMapColorEPK10BlockStateP11LevelSourceRK8BlockPos = 0x26d254
_ZN15NetherWartBlock8getShapeEPK10BlockStateP11LevelSourceRK8BlockPos = 0x26d2ec
_ZN15NetherWartBlock4tickEP5LevelRK8BlockPosPK10BlockStateP6Random = 0x26d3c0
_ZN15NetherWartBlock14spawnResourcesEP5LevelRK8BlockPosPK10BlockStatefi = 0x26d47c
_ZN15NetherWartBlock11getResourceEPK10BlockStateP6Randomi = 0x26d55c
_ZN15NetherWartBlock16getResourceCountEP6Random = 0x26d56c
_ZN15NetherWartBlock20getCloneItemInstanceEP5LevelRK8BlockPosPK10BlockState = 0x26d574
_ZN15NetherWartBlock13getBlockStateEi = 0x26d5b4
_ZN15NetherWartBlock29convertBlockStateToLegacyDataEPK10BlockState = 0x26d5e4
_ZN15NetherWartBlock26createBlockStateDefinitionEv = 0x26d5fc
_ZN15NetherWartBlock10getTextureEPK9DirectionPK10BlockState = 0x26d670
_ZN15NetherWartBlock13registerIconsEP12IconRegister = 0x26d6d8
_ZN15NetherWartBlock14getRenderShapeEPK10BlockState = 0x26d974
_ZN12NewLeafBlock15blockStaticCtorEv = 0x26d97c
_ZN12NewLeafBlock25getSpawnResourcesAuxValueEPK10BlockState = 0x26de24
_ZN12NewLeafBlock20getCloneItemInstanceEP5LevelRK8BlockPosPK10BlockState = 0x26de4c
_ZN12NewLeafBlock24getSilkTouchItemInstanceEPK10BlockState = 0x26dec0
_ZN12NewLeafBlock13getBlockStateEi = 0x26df38
_ZN12NewLeafBlock29convertBlockStateToLegacyDataEPK10BlockState = 0x26dfc0
_ZN12NewLeafBlock26createBlockStateDefinitionEv = 0x26e044
_ZN12NewLeafBlock13playerDestroyEP5LevelSt10shared_ptrI6PlayerERK8BlockPosPK10BlockStateSt10shared_ptrI11BlockEntityE12not_null_ptrI12ItemInstanceE = 0x26e0d4
_ZN11NewLogBlock15blockStaticCtorEv = 0x26e28c
_ZN11NewLogBlock11getMapColorEPK10BlockStateP11LevelSourceRK8BlockPos = 0x26e3a8
_ZN11NewLogBlock13getBlockStateEi = 0x26e438
_ZN11NewLogBlock29convertBlockStateToLegacyDataEPK10BlockState = 0x26e4d4
_ZN11NewLogBlock26createBlockStateDefinitionEv = 0x26e548
_ZN11NewLogBlock24getSilkTouchItemInstanceEPK10BlockState = 0x26e5c8
_ZN11NewLogBlock25getSpawnResourcesAuxValueEPK10BlockState = 0x26e640
_ZN17NewStoneSlabBlock15blockStaticCtorEv = 0x26e740
_ZN17NewStoneSlabBlock11DerivedInitEv = 0x26eac0
_ZN17NewStoneSlabBlock7getNameEv = 0x26ebfc
_ZN17NewStoneSlabBlock11getResourceEPK10BlockStateP6Randomi = 0x26ec40
_ZN17NewStoneSlabBlock20getCloneItemInstanceEP5LevelRK8BlockPosPK10BlockState = 0x26ec50
_ZN17NewStoneSlabBlock13getBlockStateEi = 0x26ed48
_ZN17NewStoneSlabBlock29convertBlockStateToLegacyDataEPK10BlockState = 0x26ee04
_ZN17NewStoneSlabBlock26createBlockStateDefinitionEv = 0x26eed4
_ZN17NewStoneSlabBlock11getMapColorEPK10BlockStateP11LevelSourceRK8BlockPos = 0x26efb4
_ZN17NewStoneSlabBlock25getSpawnResourcesAuxValueEPK10BlockState = 0x26efdc
_ZN17NewStoneSlabBlock10getTextureEPK9DirectionPK10BlockState = 0x26f004
_ZN17NewStoneSlabBlock13registerIconsEP12IconRegister = 0x26f038
_ZNK15NormalDimension7getTypeEv = 0x26f9e4
_ZN15NormalDimension14canUnloadChunkEii = 0x26f9f4
_ZN9NoteBlock15neighborChangedEPK10BlockStateP5LevelRK8BlockPosP5BlockRK8BlockPos = 0x26fa94
_ZN9NoteBlock7TestUseEv = 0x26fb70
_ZN9NoteBlock3useEP5LevelRK8BlockPosPK10BlockStateSt10shared_ptrI6PlayerEN15InteractionHand16EInteractionHandEPK9Directionfffb = 0x26fb78
_ZN9NoteBlock6attackEP5LevelRK8BlockPosSt10shared_ptrI6PlayerE = 0x26fc60
_ZN9NoteBlock18GetInteractTooltipERK22BlockTooltipDataHolder = 0x26fda0
_ZN9NoteBlock13GetHitTooltipERK22BlockTooltipDataHolder = 0x26fdc8
_ZN9NoteBlock12triggerEventEPK10BlockStateP5LevelRK8BlockPosii = 0x26fe68
_ZN9NoteBlock14getRenderShapeEPK10BlockState = 0x26ffa0
_ZN9NoteBlock15blockStaticCtorEv = 0x26ffa8
_ZN13ObserverBlock26createBlockStateDefinitionEv = 0x27017c
_ZN13ObserverBlock6rotateEPK10BlockStateP8Rotation = 0x2701fc
_ZN13ObserverBlock6mirrorEPK10BlockStateP6Mirror = 0x270254
_ZN13ObserverBlock4tickEP5LevelRK8BlockPosPK10BlockStateP6Random = 0x2702b4
_ZN13ObserverBlock15neighborChangedEPK10BlockStateP5LevelRK8BlockPosP5BlockRK8BlockPos = 0x270414
_ZN13ObserverBlock14isSignalSourceEPK10BlockState = 0x2704a4
_ZN13ObserverBlock15getDirectSignalEPK10BlockStateP11LevelSourceRK8BlockPosPK9Direction = 0x2704ac
_ZN13ObserverBlock9getSignalEPK10BlockStateP11LevelSourceRK8BlockPosPK9Direction = 0x2704c8
_ZN13ObserverBlock7onPlaceEP5LevelRK8BlockPosPK10BlockState = 0x270534
_ZN13ObserverBlock8onRemoveEP5LevelRK8BlockPosPK10BlockState = 0x2705c4
_ZN13ObserverBlock14getRenderShapeEPK10BlockState = 0x270664
_ZN13ObserverBlock20getStateForPlacementEP5LevelRK8BlockPosPK9DirectionfffiSt10shared_ptrI12LivingEntityE = 0x27066c
_ZN13ObserverBlock29convertBlockStateToLegacyDataEPK10BlockState = 0x2706c4
_ZN13ObserverBlock13getBlockStateEi = 0x27071c
_ZN13ObserverBlock10getTextureEPK9DirectionPK10BlockState = 0x27077c
_ZN13ObserverBlock13registerIconsEP12IconRegister = 0x27087c
_ZN13ObserverBlock7TestUseEv = 0x270a14
_ZN13ObsidianBlock11getResourceEPK10BlockStateP6Randomi = 0x270a5c
_ZN13ObsidianBlock11getMapColorEPK10BlockStateP11LevelSourceRK8BlockPos = 0x270a6c
_ZN10OceanBiomeC1EN5Biome9EBiomeIDsEPN5Biome15BiomePropertiesE = 0x270a7c
_ZN6Ocelot14addDataWalkersEP14DataFixerUpper = 0x2816ec
_ZN15OldChunkStorage22CreateNewThreadStorageEv = 0x283838
_ZN15OldChunkStorageC1E4Fileb = 0x2838b4
_ZN15OldChunkStorage7getFileEii = 0x283934
_ZN4FileaSERKS_ = 0x283b1c
_ZN15OldChunkStorage4loadEP5LeveliiP10LevelChunk = 0x283bcc
_ZN15OldChunkStorage4saveEP5LevelP10LevelChunk = 0x283ef0
_ZN15OldChunkStorage4tickEv = 0x284758
_ZN15OldChunkStorage5flushEv = 0x28475c
_ZN15OldChunkStorage12saveEntitiesEP5LevelP10LevelChunk = 0x284760
_ZN12OldLeafBlock15blockStaticCtorEv = 0x2848cc
_ZN12OldLeafBlock8getColorEPK10BlockState = 0x2849f4
_ZN12OldLeafBlock8getColorEP11LevelSourceRK8BlockPosi = 0x284a80
_ZN12OldLeafBlock24getSilkTouchItemInstanceEPK10BlockState = 0x284c38
_ZN12OldLeafBlock13getBlockStateEi = 0x284cb0
_ZN12OldLeafBlock29convertBlockStateToLegacyDataEPK10BlockState = 0x284d38
_ZN12OldLeafBlock26createBlockStateDefinitionEv = 0x284db8
_ZN12OldLeafBlock25getSpawnResourcesAuxValueEPK10BlockState = 0x284e48
_ZN12OldLeafBlock13playerDestroyEP5LevelSt10shared_ptrI6PlayerERK8BlockPosPK10BlockStateSt10shared_ptrI11BlockEntityE12not_null_ptrI12ItemInstanceE = 0x284e70
_ZN11OldLogBlock15blockStaticCtorEv = 0x285028
_ZN11OldLogBlock11getMapColorEPK10BlockStateP11LevelSourceRK8BlockPos = 0x285144
_ZN11OldLogBlock13getBlockStateEi = 0x2851ec
_ZN11OldLogBlock29convertBlockStateToLegacyDataEPK10BlockState = 0x285284
_ZN11OldLogBlock26createBlockStateDefinitionEv = 0x2852f8
_ZN11OldLogBlock24getSilkTouchItemInstanceEPK10BlockState = 0x285378
_ZN11OldLogBlock25getSpawnResourcesAuxValueEPK10BlockState = 0x2853f0
_ZN8OreBlock11getResourceEPK10BlockStateP6Randomi = 0x2855a0
_ZN8OreBlock16getResourceCountEP6Random = 0x285658
_ZN8OreBlock28getResourceCountForLootBonusEiP6Random = 0x285698
_ZN8OreBlock14spawnResourcesEP5LevelRK8BlockPosPK10BlockStatefi = 0x285770
_ZN8OreBlock20getCloneItemInstanceEP5LevelRK8BlockPosPK10BlockState = 0x2858a8
_ZN8OreBlock25getSpawnResourcesAuxValueEPK10BlockState = 0x2858ec
_ZN10OreFeatureC1EPK10BlockStatei = 0x2859a8
_ZN10OreFeatureC1EPK10BlockStateiPK9PredicateIRKN5Biome9BlockPairEE = 0x285a58
_ZN10OreFeature5placeEP5LevelR6RandomRK8BlockPos = 0x285ac0
_ZN20OverworldLevelSourceC1EP5LevelxbP15SuperflatConfig = 0x286c88
_ZN20OverworldLevelSourceD2Ev = 0x2870fc
_ZN20OverworldLevelSourceD0Ev = 0x2872a0
_ZN20OverworldLevelSource16getHeightFalloffEiiPi = 0x287454
_ZN20OverworldLevelSource14prepareHeightsEiiP11ChunkPrimer = 0x287578
_ZN20OverworldLevelSource10getHeightsEiiiR15arrayWithLengthIP5BiomeERS0_IdE = 0x287aa4
_ZThn8_N20OverworldLevelSource14prepareHeightsEiiP11ChunkPrimer = 0x288098
_ZN20OverworldLevelSource13buildSurfacesEiiP11ChunkPrimer15arrayWithLengthIP5BiomeE = 0x2880a0
_ZN20OverworldLevelSource11createChunkEii = 0x28825c
_ZN20OverworldLevelSource10lightChunkEP10LevelChunk = 0x288678
_ZN20OverworldLevelSource11postProcessEii = 0x288688
_ZN20OverworldLevelSource22postProcessLoadedChunkEP10LevelChunkii = 0x288d34
_ZN20OverworldLevelSource9getMobsAtEP11MobCategoryRK8BlockPos = 0x288d3c
_ZN20OverworldLevelSource14isPosInFeatureEP5LevelRKNSt3__112basic_stringIwNS2_11char_traitsIwEENS2_9allocatorIwEEEERK8BlockPos = 0x288e24
_ZN20OverworldLevelSource21findNearestMapFeatureEP5LevelRKNSt3__112basic_stringIwNS2_11char_traitsIwEENS2_9allocatorIwEEEERK8BlockPosb = 0x289118
_ZN20OverworldLevelSource31recreateLogicStructuresForChunkEP10LevelChunkii = 0x28941c
_ZN17OxygenEnchantmentC1EPK6Rarity15arrayWithLengthIPK13EquipmentSlotE = 0x289bd0
_ZN17OxygenEnchantment10getMinCostEi = 0x289c28
_ZN17OxygenEnchantment10getMaxCostEi = 0x289c34
_ZN17OxygenEnchantment11getMaxLevelEv = 0x289c54
_ZN14PackedIceBlock16getResourceCountEP6Random = 0x289cac
Packet__map = 0x289cb4
_ZN26ClientboundKeepAlivePacket6createEv = 0x28a4d0
_ZN22ClientboundLoginPacket6createEv = 0x28a508
_ZN21ClientboundChatPacket6createEv = 0x28a540
_ZN24ClientboundSetTimePacket6createEv = 0x28a578
_ZN32ClientboundSetEquippedItemPacket6createEv = 0x28a5b0
_ZN33ClientboundSetSpawnPositionPacket6createEv = 0x28a5e8
_ZN25ServerboundInteractPacket6createEv = 0x28a620
_ZN26ClientboundSetHealthPacket6createEv = 0x28a658
_ZN24ClientboundRespawnPacket6createEv = 0x28a690
_ZN27ServerboundMovePlayerPacket6createEv = 0x28a6c8
_ZN27ServerboundMovePlayerPacket3Pos6createEv = 0x28a700
_ZN27ServerboundMovePlayerPacket3Rot6createEv = 0x28a738
_ZN27ServerboundMovePlayerPacket6PosRot6createEv = 0x28a770
_ZN29ServerboundPlayerActionPacket6createEv = 0x28a7a8
_ZN24ServerboundUseItemPacket6createEv = 0x28a7e0
_ZN31ClientboundSetCarriedItemPacket6createEv = 0x28a818
_ZN28ClientboundPlayerSleepPacket6createEv = 0x28a850
_ZN24ClientboundAnimatePacket6createEv = 0x28a888
_ZN30ServerboundPlayerCommandPacket6createEv = 0x28a8c0
_ZN26ClientboundAddPlayerPacket6createEv = 0x28a8f8
_ZN31ClientboundTakeItemEntityPacket6createEv = 0x28a930
_ZN26ClientboundAddEntityPacket6createEv = 0x28a968
_ZN23ClientboundAddMobPacket6createEv = 0x28a9a0
_ZN28ClientboundAddPaintingPacket6createEv = 0x28a9d8
_ZN33ClientboundAddExperienceOrbPacket6createEv = 0x28aa10
_ZN28ServerboundPlayerInputPacket6createEv = 0x28aa48
_ZN32ClientboundSetEntityMotionPacket6createEv = 0x28aa80
_ZN31ClientboundRemoveEntitiesPacket6createEv = 0x28aab8
_ZN27ClientboundMoveEntityPacket6createEv = 0x28aaf0
_ZN27ClientboundMoveEntityPacket3Pos6createEv = 0x28ab28
_ZN27ClientboundMoveEntityPacket3Rot6createEv = 0x28ab60
_ZN27ClientboundMoveEntityPacket6PosRot6createEv = 0x28ab98
_ZN31ClientboundTeleportEntityPacket6createEv = 0x28abd0
_ZN27ClientboundRotateHeadPacket6createEv = 0x28ac08
_ZN28ClientboundEntityEventPacket6createEv = 0x28ac40
_ZN30ClientboundSetEntityLinkPacket6createEv = 0x28ac78
_ZN30ClientboundSetEntityDataPacket6createEv = 0x28acb0
_ZN32ClientboundUpdateMobEffectPacket6createEv = 0x28ace8
_ZN32ClientboundRemoveMobEffectPacket6createEv = 0x28ad20
_ZN30ClientboundSetExperiencePacket6createEv = 0x28ad58
_ZN33ClientboundUpdateAttributesPacket6createEv = 0x28ad90
_ZN21ChunkVisibilityPacket6createEv = 0x28adc8
_ZN23BlockRegionUpdatePacket6createEv = 0x28ae00
_ZN34ClientboundChunkBlocksUpdatePacket6createEv = 0x28ae38
_ZN28ClientboundBlockUpdatePacket6createEv = 0x28ae70
_ZN27ClientboundBlockEventPacket6createEv = 0x28aea8
_ZN33ClientboundBlockDestructionPacket6createEv = 0x28aee0
_ZN24ClientboundExplodePacket6createEv = 0x28af18
_ZN27ClientboundLevelEventPacket6createEv = 0x28af50
_ZN22ClientboundSoundPacket6createEv = 0x28af88
_ZN31ClientboundLevelParticlesPacket6createEv = 0x28afc0
_ZN26ClientboundGameEventPacket6createEv = 0x28aff8
_ZN32ClientboundAddGlobalEntityPacket6createEv = 0x28b030
_ZN30ClientboundContainerOpenPacket6createEv = 0x28b068
_ZN31ClientboundContainerClosePacket6createEv = 0x28b0a0
_ZN31ServerboundContainerClickPacket6createEv = 0x28b0d8
_ZN33ClientboundContainerSetSlotPacket6createEv = 0x28b110
_ZN36ClientboundContainerSetContentPacket6createEv = 0x28b148
_ZN33ClientboundContainerSetDataPacket6createEv = 0x28b180
_ZN29ClientboundContainerAckPacket6createEv = 0x28b1b8
_ZN36ServerboundSetCreativeModeSlotPacket6createEv = 0x28b1f0
_ZN37ServerboundContainerButtonClickPacket6createEv = 0x28b228
_ZN32ClientboundBlockEntityDataPacket6createEv = 0x28b260
_ZN28ClientboundMoveVehiclePacket6createEv = 0x28b298
_ZN30ClientboundSetPassengersPacket6createEv = 0x28b2d0
_ZN36ServerboundAcceptTeleportationPacket6createEv = 0x28b308
_ZN28ServerboundMoveVehiclePacket6createEv = 0x28b340
_ZN26ServerboundUseItemOnPacket6createEv = 0x28b378
_ZN27ServerboundPaddleBoatPacket6createEv = 0x28b3b0
_ZN26ClientboundBossEventPacket6createEv = 0x28b3e8
_ZN15CraftItemPacket6createEv = 0x28b420
_ZN15TradeItemPacket6createEv = 0x28b458
_ZN18DebugOptionsPacket6createEv = 0x28b490
_ZN27ServerSettingsChangedPacket6createEv = 0x28b4c8
_ZN13TexturePacket6createEv = 0x28b500
_ZN25ChunkVisibilityAreaPacket6createEv = 0x28b538
_ZN20UpdateProgressPacket6createEv = 0x28b570
_ZN19TextureChangePacket6createEv = 0x28b5a8
_ZN28UpdateGameRuleProgressPacket6createEv = 0x28b5e0
_ZN16KickPlayerPacket6createEv = 0x28b618
_ZN24TextureAndGeometryPacket6createEv = 0x28b650
_ZN30TextureAndGeometryChangePacket6createEv = 0x28b688
_ZN21MoveEntityPacketSmall6createEv = 0x28b6c0
_ZN21MoveEntityPacketSmall3Pos6createEv = 0x28b6f8
_ZN21MoveEntityPacketSmall3Rot6createEv = 0x28b730
_ZN21MoveEntityPacketSmall6PosRot6createEv = 0x28b768
_ZN8XZPacket6createEv = 0x28b7a0
_ZN17GameCommandPacket6createEv = 0x28b7d8
_ZN19MapSelectInfoPacket6createEv = 0x28b810
_ZN10VotePacket6createEv = 0x28b848
_ZN17PlayerReadyPacket6createEv = 0x28b880
_ZN24ClientboundPowerupPacket6createEv = 0x28b8b8
_ZN26ClientboundAwardStatPacket6createEv = 0x28b8f0
_ZN16PlayerInfoPacket6createEv = 0x28b928
_ZN32ClientboundPlayerAbilitiesPacket6createEv = 0x28b960
_ZN30ServerboundClientCommandPacket6createEv = 0x28b998
_ZN16ScoreboardPacket6createEv = 0x28b9d0
_ZN30ClientboundSetPlayerTeamPacket6createEv = 0x28ba08
_ZN14GameModePacket6createEv = 0x28ba40
_ZN28ClientboundMapItemDataPacket6createEv = 0x28ba78
_ZN31ClientboundOpenSignEditorPacket6createEv = 0x28bab0
_ZN29ClientboundPlayerCombatPacket6createEv = 0x28bae8
_ZN31ClientboundPlayerPositionPacket6createEv = 0x28bb20
_ZN29ClientboundResourcePackPacket6createEv = 0x28bb58
_ZN26ClientboundSetBorderPacket6createEv = 0x28bb90
_ZN26ClientboundSetCameraPacket6createEv = 0x28bbc8
_ZN26ClientboundSetTitlesPacket6createEv = 0x28bc00
_ZN24ClientboundTabListPacket6createEv = 0x28bc38
_ZN33ServerboundChatAutoCompletePacket6createEv = 0x28bc70
_ZN21ServerboundChatPacket6createEv = 0x28bca8
_ZN29ServerboundContainerAckPacket6createEv = 0x28bce0
_ZN31ServerboundContainerClosePacket6createEv = 0x28bd18
_ZN30ServerboundCustomPayloadPacket6createEv = 0x28bd50
_ZN26ServerboundKeepAlivePacket6createEv = 0x28bd88
_ZN32ServerboundPlayerAbilitiesPacket6createEv = 0x28bdc0
_ZN29ServerboundResourcePackPacket6createEv = 0x28bdf8
_ZN31ServerboundSetCarriedItemPacket6createEv = 0x28be30
_ZN27ServerboundSignUpdatePacket6createEv = 0x28be68
_ZN33ServerboundTeleportToEntityPacket6createEv = 0x28bea0
_ZN25ServerboundPreLoginPacket6createEv = 0x28bed8
_ZN22ServerboundSwingPacket6createEv = 0x28bf10
_ZN32ClientboundDamageIndicatorPacket6createEv = 0x28bf48
_ZN43ClientboundBlockCollectionDestructionPacket6createEv = 0x28bf80
_ZN25ClientboundCooldownPacket6createEv = 0x28bfb8
_ZN39ClientboundMGPlayerSettingsUpdatePacket6createEv = 0x28bff0
_ZN30ClientboundCustomPayloadPacket6createEv = 0x28c028
_ZN33ClientboundChangeDifficultyPacket6createEv = 0x28c060
_ZN13GetInfoPacket6createEv = 0x28c098
_ZN16DisconnectPacket6createEv = 0x28c0dc
_ZN6Packet9getPacketEi = 0x28c11c
_ZN6Packet6handleEP14PacketListener = 0x28c384
_ZN6Packet10readPacketEP15DataInputStreambRjRb = 0x28c3cc
_ZN6Packet11writePacketENSt3__110shared_ptrI6PacketEEP16DataOutputStreambRj = 0x28c50c
_ZN6Packet8writeUtfERKNSt3__112basic_stringIwNS0_11char_traitsIwEENS0_9allocatorIwEEEEP16DataOutputStream = 0x28c57c
_ZN6Packet7readUtfEP15DataInputStreami = 0x28c5d0
_ZN6Packet16canBeInvalidatedEv = 0x28c76c
_ZN6Packet15isInvalidatedByENSt3__110shared_ptrIS_EE = 0x28c774
_ZN6Packet6isAyncEv = 0x28c77c
_ZN6Packet16getEstimatedSizeEv = 0x28c784
_ZN6Packet25tryReplaceDuplicatePacketEPNSt3__15dequeINS0_10shared_ptrIS_EENS0_9allocatorIS3_EEEE = 0x28c78c
_ZN14PacketListener23handleBlockRegionUpdateENSt3__110shared_ptrI23BlockRegionUpdatePacketEE = 0x28c794
_ZN14PacketListener17onUnhandledPacketESt10shared_ptrI6PacketE = 0x28c798
_ZN14PacketListener12onDisconnectEN16DisconnectPacket17eDisconnectReasonEPv = 0x28c79c
_ZN14PacketListener16handleDisconnectENSt3__110shared_ptrI16DisconnectPacketEE = 0x28c7a0
_ZN14PacketListener11handleLoginENSt3__110shared_ptrI22ClientboundLoginPacketEE = 0x28c7f8
_ZN14PacketListener16handleMovePlayerENSt3__110shared_ptrI27ServerboundMovePlayerPacketEE = 0x28c850
_ZN14PacketListener23handleChunkBlocksUpdateENSt3__110shared_ptrI34ClientboundChunkBlocksUpdatePacketEE = 0x28c8a8
_ZN14PacketListener18handlePlayerActionENSt3__110shared_ptrI29ServerboundPlayerActionPacketEE = 0x28c900
_ZN14PacketListener17handleBlockUpdateENSt3__110shared_ptrI28ClientboundBlockUpdatePacketEE = 0x28c958
_ZN14PacketListener21handleChunkVisibilityENSt3__110shared_ptrI21ChunkVisibilityPacketEE = 0x28c9b0
_ZN14PacketListener15handleAddPlayerENSt3__110shared_ptrI26ClientboundAddPlayerPacketEE = 0x28ca08
_ZN14PacketListener16handleMoveEntityENSt3__110shared_ptrI27ClientboundMoveEntityPacketEE = 0x28ca60
_ZN14PacketListener21handleMoveEntitySmallENSt3__110shared_ptrI21MoveEntityPacketSmallE = 0x28cab8
_ZN14PacketListener20handleTeleportEntityENSt3__110shared_ptrI31ClientboundTeleportEntityPacketEE = 0x28cb10
_ZN14PacketListener13handleUseItemENSt3__110shared_ptrI24ServerboundUseItemPacketEE = 0x28cb68
_ZN14PacketListener20handleSetCarriedItemENSt3__110shared_ptrI31ClientboundSetCarriedItemPacketEE = 0x28cbc0
_ZN14PacketListener18handleRemoveEntityENSt3__110shared_ptrI31ClientboundRemoveEntitiesPacketEE = 0x28cc18
_ZN14PacketListener20handleTakeItemEntityENSt3__110shared_ptrI31ClientboundTakeItemEntityPacketEE = 0x28cc70
_ZN14PacketListener10handleChatENSt3__110shared_ptrI21ClientboundChatPacketEE = 0x28ccc8
_ZN14PacketListener15handleAddEntityENSt3__110shared_ptrI26ClientboundAddEntityPacketEE = 0x28cd20
_ZN14PacketListener13handleAnimateENSt3__110shared_ptrI24ClientboundAnimatePacketEE = 0x28cd78
_ZN14PacketListener19handlePlayerCommandENSt3__110shared_ptrI30ServerboundPlayerCommandPacketEE = 0x28cdd0
_ZN14PacketListener14handlePreLoginENSt3__110shared_ptrI25ClientboundPreLoginPacketEE = 0x28ce28
_ZN14PacketListener12handleAddMobENSt3__110shared_ptrI23ClientboundAddMobPacketEE = 0x28ce80
_ZN14PacketListener13handleSetTimeENSt3__110shared_ptrI24ClientboundSetTimePacketEE = 0x28ced8
_ZN14PacketListener14handleSetSpawnENSt3__110shared_ptrI33ClientboundSetSpawnPositionPacketEE = 0x28cf30
_ZN14PacketListener21handleSetEntityMotionENSt3__110shared_ptrI32ClientboundSetEntityMotionPacketEE = 0x28cf88
_ZN14PacketListener19handleSetEntityDataENSt3__110shared_ptrI30ClientboundSetEntityDataPacketEE = 0x28cfe0
_ZN14PacketListener22handleEntityLinkPacketENSt3__110shared_ptrI30ClientboundSetEntityLinkPacketEE = 0x28d038
_ZN14PacketListener31handleSetEntityPassengersPacketENSt3__110shared_ptrI30ClientboundSetPassengersPacketEE = 0x28d090
_ZN14PacketListener14handleInteractENSt3__110shared_ptrI25ServerboundInteractPacketEE = 0x28d0e8
_ZN14PacketListener17handleEntityEventENSt3__110shared_ptrI28ClientboundEntityEventPacketEE = 0x28d140
_ZN14PacketListener15handleSetHealthENSt3__110shared_ptrI26ClientboundSetHealthPacketEE = 0x28d198
_ZN14PacketListener13handleRespawnENSt3__110shared_ptrI24ClientboundRespawnPacketEE = 0x28d1f0
_ZN14PacketListener13handleTextureENSt3__110shared_ptrI13TexturePacketEE = 0x28d248
_ZN14PacketListener24handleTextureAndGeometryENSt3__110shared_ptrI24TextureAndGeometryPacketEE = 0x28d2a0
_ZN14PacketListener15handleExplosionENSt3__110shared_ptrI24ClientboundExplodePacketEE = 0x28d2f8
_ZN14PacketListener19handleContainerOpenENSt3__110shared_ptrI30ClientboundContainerOpenPacketEE = 0x28d350
_ZN14PacketListener20handleContainerCloseENSt3__110shared_ptrI31ClientboundContainerClosePacketEE = 0x28d3a8
_ZN14PacketListener20handleContainerClickENSt3__110shared_ptrI31ServerboundContainerClickPacketEE = 0x28d400
_ZN14PacketListener22handleContainerSetSlotENSt3__110shared_ptrI33ClientboundContainerSetSlotPacketEE = 0x28d458
_ZN14PacketListener22handleContainerContentENSt3__110shared_ptrI36ClientboundContainerSetContentPacketEE = 0x28d4b0
_ZN14PacketListener22handleContainerSetDataENSt3__110shared_ptrI33ClientboundContainerSetDataPacketEE = 0x28d508
_ZN14PacketListener21handleSetEquippedItemENSt3__110shared_ptrI32ClientboundSetEquippedItemPacketEE = 0x28d560
_ZN14PacketListener18handleContainerAckENSt3__110shared_ptrI29ClientboundContainerAckPacketEE = 0x28d5b8
_ZN14PacketListener17handleAddPaintingENSt3__110shared_ptrI28ClientboundAddPaintingPacketEE = 0x28d610
_ZN14PacketListener16handleBlockEventENSt3__110shared_ptrI27ClientboundBlockEventPacketEE = 0x28d668
_ZN14PacketListener15handleAwardStatENSt3__110shared_ptrI26ClientboundAwardStatPacketEE = 0x28d6c0
_ZN14PacketListener28handleEntityActionAtPositionENSt3__110shared_ptrI28ClientboundPlayerSleepPacketEE = 0x28d718
_ZN14PacketListener17handlePlayerInputENSt3__110shared_ptrI28ServerboundPlayerInputPacketEE = 0x28d770
_ZN14PacketListener15handleGameEventENSt3__110shared_ptrI26ClientboundGameEventPacketEE = 0x28d7c8
_ZN14PacketListener21handleAddGlobalEntityENSt3__110shared_ptrI32ClientboundAddGlobalEntityPacketEE = 0x28d820
_ZN14PacketListener17handleMapItemDataENSt3__110shared_ptrI28ClientboundMapItemDataPacketEE = 0x28d878
_ZN14PacketListener16handleLevelEventENSt3__110shared_ptrI27ClientboundLevelEventPacketEE = 0x28d8d0
_ZN14PacketListener13handleGetInfoENSt3__110shared_ptrI13GetInfoPacketEE = 0x28d928
_ZN14PacketListener21handleUpdateMobEffectENSt3__110shared_ptrI32ClientboundUpdateMobEffectPacketEE = 0x28d980
_ZN14PacketListener21handleRemoveMobEffectENSt3__110shared_ptrI32ClientboundRemoveMobEffectPacketEE = 0x28d9d8
_ZN14PacketListener16handlePlayerInfoENSt3__110shared_ptrI16PlayerInfoPacketEE = 0x28da30
_ZN14PacketListener15handleKeepAliveENSt3__110shared_ptrI26ClientboundKeepAlivePacketEE = 0x28da88
_ZN14PacketListener19handleSetExperienceENSt3__110shared_ptrI30ClientboundSetExperiencePacketEE = 0x28dae0
_ZN14PacketListener25handleSetCreativeModeSlotENSt3__110shared_ptrI36ServerboundSetCreativeModeSlotPacketEE = 0x28db38
_ZN14PacketListener22handleAddExperienceOrbENSt3__110shared_ptrI33ClientboundAddExperienceOrbPacketEE = 0x28db90
_ZN14PacketListener26handleContainerButtonClickENSt3__110shared_ptrI37ServerboundContainerButtonClickPacketEE = 0x28dbe8
_ZN14PacketListener21handleBlockEntityDataENSt3__110shared_ptrI32ClientboundBlockEntityDataPacketEE = 0x28dc40
_ZN14PacketListener19handleCustomPayloadENSt3__110shared_ptrI30ClientboundCustomPayloadPacketEE = 0x28dc98
_ZN14PacketListener15handleRotateMobENSt3__110shared_ptrI27ClientboundRotateHeadPacketEE = 0x28dcf0
_ZN14PacketListener21handlePlayerAbilitiesENSt3__110shared_ptrI32ClientboundPlayerAbilitiesPacketEE = 0x28dd48
_ZN14PacketListener22handleChatAutoCompleteENSt3__110shared_ptrI33ClientboundChatAutoCompletePacketEE = 0x28dda0
_ZN14PacketListener23handleClientInformationENSt3__110shared_ptrI34ServerboundClientInformationPacketEE = 0x28ddf8
_ZN14PacketListener16handleSoundEventENSt3__110shared_ptrI22ClientboundSoundPacketEE = 0x28de50
_ZN14PacketListener22handleBlockDestructionENSt3__110shared_ptrI33ClientboundBlockDestructionPacketEE = 0x28dea8
_ZN14PacketListener32handleBlockCollectionDestructionENSt3__110shared_ptrI43ClientboundBlockCollectionDestructionPacketEE = 0x28df00
_ZN14PacketListener19handleClientCommandENSt3__110shared_ptrI30ServerboundClientCommandPacketEE = 0x28df58
_ZN14PacketListener21canHandleAsyncPacketsEv = 0x28df5c
_ZN14PacketListener22handleScoreboardPacketENSt3__110shared_ptrI16ScoreboardPacketEE = 0x28df64
_ZN14PacketListener36handleClientboundSetPlayerTeamPacketENSt3__110shared_ptrI30ClientboundSetPlayerTeamPacketEE = 0x28dfbc
_ZN14PacketListener19handleParticleEventENSt3__110shared_ptrI31ClientboundLevelParticlesPacketEE = 0x28e014
_ZN14PacketListener22handleUpdateAttributesENSt3__110shared_ptrI33ClientboundUpdateAttributesPacketEE = 0x28e06c
_ZN14PacketListener15handleCraftItemENSt3__110shared_ptrI15CraftItemPacketEE = 0x28e0c4
_ZN14PacketListener15handleTradeItemENSt3__110shared_ptrI15TradeItemPacketEE = 0x28e11c
_ZN14PacketListener18handleDebugOptionsENSt3__110shared_ptrI18DebugOptionsPacketEE = 0x28e174
_ZN14PacketListener27handleServerSettingsChangedENSt3__110shared_ptrI27ServerSettingsChangedPacketEE = 0x28e1cc
_ZN14PacketListener25handleChunkVisibilityAreaENSt3__110shared_ptrI25ChunkVisibilityAreaPacketEE = 0x28e224
_ZN14PacketListener20handleUpdateProgressENSt3__110shared_ptrI20UpdateProgressPacketEE = 0x28e27c
_ZN14PacketListener19handleTextureChangeENSt3__110shared_ptrI19TextureChangePacketEE = 0x28e2d4
_ZN14PacketListener30handleTextureAndGeometryChangeENSt3__110shared_ptrI30TextureAndGeometryChangePacketEE = 0x28e32c
_ZN14PacketListener34handleUpdateGameRuleProgressPacketENSt3__110shared_ptrI28UpdateGameRuleProgressPacketEE = 0x28e384
_ZN14PacketListener16handleKickPlayerENSt3__110shared_ptrI16KickPlayerPacketEE = 0x28e3dc
_ZN14PacketListener8handleXZENSt3__110shared_ptrI8XZPacketEE = 0x28e434
_ZN14PacketListener17handleGameCommandENSt3__110shared_ptrI17GameCommandPacketEE = 0x28e48c
_ZN14PacketListener14handleGameModeENSt3__110shared_ptrI14GameModePacketEE = 0x28e4e4
_ZN14PacketListener19handleMapSelectInfoENSt3__110shared_ptrI19MapSelectInfoPacketEE = 0x28e53c
_ZN14PacketListener10handleVoteENSt3__110shared_ptrI10VotePacketEE = 0x28e594
_ZN14PacketListener17handlePlayerReadyENSt3__110shared_ptrI17PlayerReadyPacketEE = 0x28e5ec
_ZN14PacketListener13handlePowerupENSt3__110shared_ptrI24ClientboundPowerupPacketEE = 0x28e644
_ZN14PacketListener21handleDamageIndicatorENSt3__110shared_ptrI32ClientboundDamageIndicatorPacketEE = 0x28e69c
_ZN14PacketListener40handleMiniGamePlayerSettingsUpdatePacketENSt3__110shared_ptrI39ClientboundMGPlayerSettingsUpdatePacketEE = 0x28e6f4
_ZN14PacketListener18handleItemCooldownENSt3__110shared_ptrI25ClientboundCooldownPacketEE = 0x28e74c
_ZN14PacketListener17handleMoveVehicleENSt3__110shared_ptrI28ClientboundMoveVehiclePacketEE = 0x28e7a4
_ZN14PacketListener19handleAcceptedLoginENSt3__110shared_ptrI22ClientboundLoginPacketEE = 0x28e7fc
_ZN14PacketListener20handleOpenSignEditorENSt3__110shared_ptrI31ClientboundOpenSignEditorPacketEE = 0x28e854
_ZN14PacketListener16handleMovePlayerENSt3__110shared_ptrI31ClientboundPlayerPositionPacketEE = 0x28e8ac
_ZN14PacketListener25handleSetPlayerTeamPacketENSt3__110shared_ptrI30ClientboundSetPlayerTeamPacketEE = 0x28e904
_ZN14PacketListener18handlePlayerCombatENSt3__110shared_ptrI29ClientboundPlayerCombatPacketEE = 0x28e95c
_ZN14PacketListener22handleChangeDifficultyENSt3__110shared_ptrI33ClientboundChangeDifficultyPacketEE = 0x28e9b4
_ZN14PacketListener15handleSetCameraENSt3__110shared_ptrI26ClientboundSetCameraPacketEE = 0x28ea0c
_ZN14PacketListener15handleSetBorderENSt3__110shared_ptrI26ClientboundSetBorderPacketEE = 0x28ea64
_ZN14PacketListener15handleSetTitlesENSt3__110shared_ptrI26ClientboundSetTitlesPacketEE = 0x28eabc
_ZN14PacketListener26handleTabListCustomisationENSt3__110shared_ptrI24ClientboundTabListPacketEE = 0x28eb14
_ZN14PacketListener18handleResourcePackENSt3__110shared_ptrI29ClientboundResourcePackPacketEE = 0x28eb6c
_ZN14PacketListener16handleBossUpdateENSt3__110shared_ptrI26ClientboundBossEventPacketEE = 0x28ebc4
_ZN14PacketListener13handleAnimateENSt3__110shared_ptrI22ServerboundSwingPacketEE = 0x28ec1c
_ZN14PacketListener10handleChatENSt3__110shared_ptrI21ServerboundChatPacketEE = 0x28ec74
_ZN14PacketListener22handleChatAutoCompleteENSt3__110shared_ptrI33ServerboundChatAutoCompletePacketEE = 0x28eccc
_ZN14PacketListener18handleContainerAckENSt3__110shared_ptrI29ServerboundContainerAckPacketEE = 0x28ed24
_ZN14PacketListener20handleContainerCloseENSt3__110shared_ptrI31ServerboundContainerClosePacketEE = 0x28ed7c
_ZN14PacketListener19handleCustomPayloadENSt3__110shared_ptrI30ServerboundCustomPayloadPacketEE = 0x28edd4
_ZN14PacketListener15handleKeepAliveENSt3__110shared_ptrI26ServerboundKeepAlivePacketEE = 0x28ee2c
_ZN14PacketListener21handlePlayerAbilitiesENSt3__110shared_ptrI32ServerboundPlayerAbilitiesPacketEE = 0x28ee84
_ZN14PacketListener14handlePreLoginENSt3__110shared_ptrI25ServerboundPreLoginPacketEE = 0x28eedc
_ZN14PacketListener20handleSetCarriedItemENSt3__110shared_ptrI31ServerboundSetCarriedItemPacketEE = 0x28ef34
_ZN14PacketListener16handleSignUpdateENSt3__110shared_ptrI27ServerboundSignUpdatePacketEE = 0x28ef8c
_ZN14PacketListener15handleUseItemOnENSt3__110shared_ptrI26ServerboundUseItemOnPacketEE = 0x28efe4
_ZN14PacketListener28handleTeleportToEntityPacketENSt3__110shared_ptrI33ServerboundTeleportToEntityPacketEE = 0x28f03c
_ZN14PacketListener26handleResourcePackResponseENSt3__110shared_ptrI29ServerboundResourcePackPacketEE = 0x28f094
_ZN14PacketListener16handlePaddleBoatENSt3__110shared_ptrI27ServerboundPaddleBoatPacketEE = 0x28f0ec
_ZN14PacketListener17handleMoveVehicleENSt3__110shared_ptrI28ServerboundMoveVehiclePacketEE = 0x28f144
_ZN14PacketListener26handleAcceptTeleportPacketENSt3__110shared_ptrI36ServerboundAcceptTeleportationPacketEE = 0x28f19c
_ZN12ParticleType10staticCtorEv = 0x29193c
_ZN4Path6isDoneEv = 0x292840
_ZN22PathNavigationListenerC2Ev = 0x294550
LevelListener__LevelListener = 0x294588
_ZN16PerformanceTimerC2Ev = 0x294a04
_ZN16PerformanceTimer16PrintElapsedTimeERKNSt7__cxx1112basic_stringIwSt11char_traitsIwESaIwEEE = 0x294a08
_ZN6PacketD0Ev = 0x294a0c
_ZN8MaterialD2Ev = 0x294a30
_ZN8MaterialD0Ev = 0x294a34
_ZN11LadderBlockD0Ev = 0x294a58
_ZN11LakeFeatureD0Ev = 0x294a7c
_ZN12LargeFeatureD2Ev = 0x294b38
_ZN12LargeFeature10addFeatureEP5LeveliiiiP11ChunkPrimer = 0x294b40
_ZN5LayerD0Ev = 0x294b78
_ZN5Level21blockEntityAddedExtraESt10shared_ptrI11BlockEntityE = 0x294cd0
_ZN5Level23blockEntityRemovedExtraESt10shared_ptrI11BlockEntityE = 0x294cd4
_ZN5Level19newPrimedTntAllowedEv = 0x294cd8
_ZN5Level22newFallingBlockAllowedEv = 0x294ce0
_ZN5Level23explodeNextEnderCrystalEv = 0x294ce8
_ZN10LeverBlockD0Ev = 0x294cf0
_ZN15LightGemFeatureD0Ev = 0x294d14
_ZN11LiquidBlockD0Ev = 0x294d8c
_ZN14PacketListenerD0Ev = 0x294db0
_ZN12LivingEntity7GetTypeEv = 0x294df8
_ZN8LogBlockD0Ev = 0x2950e0
_ZN7LongTagD0Ev = 0x295104
_ZN20LootBonusEnchantmentD0Ev = 0x2951b0
_ZN10MagmaBlockD0Ev = 0x2951d4
_ZN19MapSelectInfoPacket11getPacketIdEv = 0x295488
_ZN10MelonBlockD0Ev = 0x2954d8
_ZN18MendingEnchantmentD0Ev = 0x2954fc
_ZN15MobSpawnerBlockD0Ev = 0x295bc8
_ZN18MockedLevelStorage9getFolderEv = 0x295c50
_ZN15MonsterEggBlockD0Ev = 0x295cdc
_ZN21MoveEntityPacketSmallD0Ev = 0x295d24
_ZN21MoveEntityPacketSmall11getPacketIdEv = 0x295d48
_ZN21MoveEntityPacketSmall6PosRotD0Ev = 0x295d58
_ZN21MoveEntityPacketSmall6PosRot11getPacketIdEv = 0x295d7c
_ZN21MoveEntityPacketSmallD2Ev = 0x295d84
_ZN21MoveEntityPacketSmall3PosD0Ev = 0x295dac
_ZN21MoveEntityPacketSmall3Pos11getPacketIdEv = 0x295dd0
_ZN21MoveEntityPacketSmall3RotD0Ev = 0x295dd8
_ZN21MoveEntityPacketSmall3Rot11getPacketIdEv = 0x295dfc
_ZN13MushroomBlockD0Ev = 0x296120
_ZN13MyceliumBlockD0Ev = 0x2961f4
_ZN16NetherBrickBlockD0Ev = 0x296264
_ZN15NetherDimensionD0Ev = 0x296514
_ZN15NetherrackBlockD0Ev = 0x29655c
_ZN15NetherWartBlockD0Ev = 0x296580
_ZN9LeafBlockD2Ev = 0x2965a4
_ZN12NewLeafBlockD0Ev = 0x2965e0
_ZN11NewLogBlockD0Ev = 0x296604
_ZN17NewStoneSlabBlockD0Ev = 0x296628
_ZN15NormalDimensionD0Ev = 0x2966b0
_ZN9NoteBlockD0Ev = 0x2966d4
_ZN13ObserverBlockD0Ev = 0x296708
_ZN13ObsidianBlockD0Ev = 0x29672c
_ZN15OldChunkStorageD2Ev = 0x296cec
_ZN15OldChunkStorageD0Ev = 0x296d20
_ZN12OldLeafBlockD0Ev = 0x296d44
_ZN11OldLogBlockD0Ev = 0x296d68
_ZN8OreBlockD0Ev = 0x296e14
_ZN10OreFeatureD0Ev = 0x296e64
_ZN17OxygenEnchantmentD0Ev = 0x296fb8
_ZN14PackedIceBlockD0Ev = 0x296fdc
_ZN11LevelSourceD1Ev = 0x2974cc
_ZN11LevelSourceD0Ev = 0x2974d0
_ZN9SavedDataD1Ev = 0x297a80
_ZN9SavedDataD0Ev = 0x297ab8
_ZNSt3__18weak_ptrI9SavedDataED2Ev = 0x297adc
_ZN11GasMaterialD0Ev = 0x297cc8
_ZN11GasMaterial7isSolidEv = 0x297cec
_ZN11GasMaterial11blocksLightEv = 0x297cf4
_ZN11GasMaterial12blocksMotionEv = 0x297cfc
_ZN14LiquidMaterialD0Ev = 0x297d04
_ZN14LiquidMaterial8isLiquidEv = 0x297d28
_ZN14LiquidMaterial7isSolidEv = 0x297d30
_ZN14LiquidMaterial12blocksMotionEv = 0x297d38
_ZN18DecorationMaterialD0Ev = 0x297d40
_ZN18DecorationMaterial7isSolidEv = 0x297d64
_ZN18DecorationMaterial11blocksLightEv = 0x297d6c
_ZN18DecorationMaterial12blocksMotionEv = 0x297d74
_ZN14PortalMaterialD0Ev = 0x297d7c
_ZN14PortalMaterial7isSolidEv = 0x297da0
_ZN14PortalMaterial11blocksLightEv = 0x297da8
_ZN14PortalMaterial12blocksMotionEv = 0x297db0
_ZN11WebMaterialD0Ev = 0x297db8
_ZN11WebMaterial12blocksMotionEv = 0x297ddc
_ZNSt3__112__deque_baseIP16DataOutputStreamNS_9allocatorIS2_EEE3endEv = 0x297f10
_ZNSt3__110shared_ptrI6PacketEC2I24ClientboundSetTimePacketEEPT_NS_9enable_ifIXsr14is_convertibleIS6_PS1_EE5valueENS2_5__natEE4typeE = 0x299190
_ZNSt3__120__shared_ptr_pointerIP24ClientboundSetTimePacketNS_14default_deleteIS1_EENS_9allocatorIS1_EEED0Ev = 0x299268
_ZNSt3__120__shared_ptr_pointerIP24ClientboundSetTimePacketNS_14default_deleteIS1_EENS_9allocatorIS1_EEE16__on_zero_sharedEv = 0x29928c
_ZNKSt3__120__shared_ptr_pointerIP24ClientboundSetTimePacketNS_14default_deleteIS1_EENS_9allocatorIS1_EEE13__get_deleterERKSt9type_info = 0x2992a4
_ZNSt3__120__shared_ptr_pointerIP24ClientboundSetTimePacketNS_14default_deleteIS1_EENS_9allocatorIS1_EEE21__on_zero_shared_weakEv = 0x2992c0
_ZNSt3__110shared_ptrI6PacketEC2I33ClientboundSetSpawnPositionPacketEEPT_NS_9enable_ifIXsr14is_convertibleIS6_PS1_EE5valueENS2_5__natEE4typeE = 0x2993f8
_ZNSt3__120__shared_ptr_pointerIP33ClientboundSetSpawnPositionPacketNS_14default_deleteIS1_EENS_9allocatorIS1_EEED0Ev = 0x2994d0
_ZNSt3__120__shared_ptr_pointerIP33ClientboundSetSpawnPositionPacketNS_14default_deleteIS1_EENS_9allocatorIS1_EEE16__on_zero_sharedEv = 0x2994f4
_ZNKSt3__120__shared_ptr_pointerIP33ClientboundSetSpawnPositionPacketNS_14default_deleteIS1_EENS_9allocatorIS1_EEE13__get_deleterERKSt9type_info = 0x29950c
_ZNSt3__120__shared_ptr_pointerIP33ClientboundSetSpawnPositionPacketNS_14default_deleteIS1_EENS_9allocatorIS1_EEE21__on_zero_shared_weakEv = 0x299528
_ZNSt3__110shared_ptrI6PacketEC2I24ServerboundUseItemPacketEEPT_NS_9enable_ifIXsr14is_convertibleIS6_PS1_EE5valueENS2_5__natEE4typeE = 0x299f1c
_ZNSt3__120__shared_ptr_pointerIP24ServerboundUseItemPacketNS_14default_deleteIS1_EENS_9allocatorIS1_EEED0Ev = 0x299ff4
_ZNSt3__120__shared_ptr_pointerIP24ServerboundUseItemPacketNS_14default_deleteIS1_EENS_9allocatorIS1_EEE16__on_zero_sharedEv = 0x29a018
_ZNKSt3__120__shared_ptr_pointerIP24ServerboundUseItemPacketNS_14default_deleteIS1_EENS_9allocatorIS1_EEE13__get_deleterERKSt9type_info = 0x29a030
_ZNSt3__120__shared_ptr_pointerIP24ServerboundUseItemPacketNS_14default_deleteIS1_EENS_9allocatorIS1_EEE21__on_zero_shared_weakEv = 0x29a04c
_ZNSt3__110shared_ptrI24ServerboundUseItemPacketED2Ev = 0x29a050
_ZNSt3__18weak_ptrI24ServerboundUseItemPacketED2Ev = 0x29a060
_ZNSt3__110shared_ptrI6PacketEC2I31ClientboundSetCarriedItemPacketEEPT_NS_9enable_ifIXsr14is_convertibleIS6_PS1_EE5valueENS2_5__natEE4typeE = 0x29a070
_ZNSt3__120__shared_ptr_pointerIP31ClientboundSetCarriedItemPacketNS_14default_deleteIS1_EENS_9allocatorIS1_EEED0Ev = 0x29a148
_ZNSt3__120__shared_ptr_pointerIP31ClientboundSetCarriedItemPacketNS_14default_deleteIS1_EENS_9allocatorIS1_EEE16__on_zero_sharedEv = 0x29a16c
_ZNKSt3__120__shared_ptr_pointerIP31ClientboundSetCarriedItemPacketNS_14default_deleteIS1_EENS_9allocatorIS1_EEE13__get_deleterERKSt9type_info = 0x29a184
_ZNSt3__120__shared_ptr_pointerIP31ClientboundSetCarriedItemPacketNS_14default_deleteIS1_EENS_9allocatorIS1_EEE21__on_zero_shared_weakEv = 0x29a1a0
_ZNSt3__110shared_ptrI6PacketEC2I28ClientboundPlayerSleepPacketEEPT_NS_9enable_ifIXsr14is_convertibleIS6_PS1_EE5valueENS2_5__natEE4typeE = 0x29a1a4
_ZNSt3__120__shared_ptr_pointerIP28ClientboundPlayerSleepPacketNS_14default_deleteIS1_EENS_9allocatorIS1_EEED0Ev = 0x29a27c
_ZNSt3__120__shared_ptr_pointerIP28ClientboundPlayerSleepPacketNS_14default_deleteIS1_EENS_9allocatorIS1_EEE16__on_zero_sharedEv = 0x29a2a0
_ZNKSt3__120__shared_ptr_pointerIP28ClientboundPlayerSleepPacketNS_14default_deleteIS1_EENS_9allocatorIS1_EEE13__get_deleterERKSt9type_info = 0x29a2b8
_ZNSt3__120__shared_ptr_pointerIP28ClientboundPlayerSleepPacketNS_14default_deleteIS1_EENS_9allocatorIS1_EEE21__on_zero_shared_weakEv = 0x29a2d4
_ZNSt3__110shared_ptrI6PacketEC2I24ClientboundAnimatePacketEEPT_NS_9enable_ifIXsr14is_convertibleIS6_PS1_EE5valueENS2_5__natEE4typeE = 0x29a2d8
_ZNSt3__120__shared_ptr_pointerIP24ClientboundAnimatePacketNS_14default_deleteIS1_EENS_9allocatorIS1_EEED0Ev = 0x29a3b0
_ZNSt3__120__shared_ptr_pointerIP24ClientboundAnimatePacketNS_14default_deleteIS1_EENS_9allocatorIS1_EEE16__on_zero_sharedEv = 0x29a3d4
_ZNKSt3__120__shared_ptr_pointerIP24ClientboundAnimatePacketNS_14default_deleteIS1_EENS_9allocatorIS1_EEE13__get_deleterERKSt9type_info = 0x29a3ec
_ZNSt3__120__shared_ptr_pointerIP24ClientboundAnimatePacketNS_14default_deleteIS1_EENS_9allocatorIS1_EEE21__on_zero_shared_weakEv = 0x29a408
_ZNSt3__110shared_ptrI6PacketEC2I28ServerboundPlayerInputPacketEEPT_NS_9enable_ifIXsr14is_convertibleIS6_PS1_EE5valueENS2_5__natEE4typeE = 0x29ac98
_ZNSt3__120__shared_ptr_pointerIP28ServerboundPlayerInputPacketNS_14default_deleteIS1_EENS_9allocatorIS1_EEED0Ev = 0x29ad70
_ZNSt3__120__shared_ptr_pointerIP28ServerboundPlayerInputPacketNS_14default_deleteIS1_EENS_9allocatorIS1_EEE16__on_zero_sharedEv = 0x29ad94
_ZNKSt3__120__shared_ptr_pointerIP28ServerboundPlayerInputPacketNS_14default_deleteIS1_EENS_9allocatorIS1_EEE13__get_deleterERKSt9type_info = 0x29adac
_ZNSt3__120__shared_ptr_pointerIP28ServerboundPlayerInputPacketNS_14default_deleteIS1_EENS_9allocatorIS1_EEE21__on_zero_shared_weakEv = 0x29adc8
_ZNSt3__110shared_ptrI28ServerboundPlayerInputPacketED2Ev = 0x29adcc
_ZNSt3__18weak_ptrI28ServerboundPlayerInputPacketED2Ev = 0x29addc
_ZNSt3__110shared_ptrI6PacketEC2I31ClientboundContainerClosePacketEEPT_NS_9enable_ifIXsr14is_convertibleIS6_PS1_EE5valueENS2_5__natEE4typeE = 0x29cd34
_ZNSt3__120__shared_ptr_pointerIP31ClientboundContainerClosePacketNS_14default_deleteIS1_EENS_9allocatorIS1_EEED0Ev = 0x29ce0c
_ZNSt3__120__shared_ptr_pointerIP31ClientboundContainerClosePacketNS_14default_deleteIS1_EENS_9allocatorIS1_EEE16__on_zero_sharedEv = 0x29ce30
_ZNKSt3__120__shared_ptr_pointerIP31ClientboundContainerClosePacketNS_14default_deleteIS1_EENS_9allocatorIS1_EEE13__get_deleterERKSt9type_info = 0x29ce48
_ZNSt3__120__shared_ptr_pointerIP31ClientboundContainerClosePacketNS_14default_deleteIS1_EENS_9allocatorIS1_EEE21__on_zero_shared_weakEv = 0x29ce64
_ZNSt3__110shared_ptrI6PacketEC2I20UpdateProgressPacketEEPT_NS_9enable_ifIXsr14is_convertibleIS6_PS1_EE5valueENS2_5__natEE4typeE = 0x29e4d4
_ZNSt3__120__shared_ptr_pointerIP20UpdateProgressPacketNS_14default_deleteIS1_EENS_9allocatorIS1_EEED0Ev = 0x29e5ac
_ZNSt3__120__shared_ptr_pointerIP20UpdateProgressPacketNS_14default_deleteIS1_EENS_9allocatorIS1_EEE16__on_zero_sharedEv = 0x29e5d0
_ZNKSt3__120__shared_ptr_pointerIP20UpdateProgressPacketNS_14default_deleteIS1_EENS_9allocatorIS1_EEE13__get_deleterERKSt9type_info = 0x29e5e8
_ZNSt3__120__shared_ptr_pointerIP20UpdateProgressPacketNS_14default_deleteIS1_EENS_9allocatorIS1_EEE21__on_zero_shared_weakEv = 0x29e604
_ZNSt3__110shared_ptrI20UpdateProgressPacketED2Ev = 0x29e608
_ZNSt3__18weak_ptrI20UpdateProgressPacketED2Ev = 0x29e618
_ZNSt3__110shared_ptrI6PacketEC2I8XZPacketEEPT_NS_9enable_ifIXsr14is_convertibleIS6_PS1_EE5valueENS2_5__natEE4typeE = 0x29f18c
_ZNSt3__120__shared_ptr_pointerIP8XZPacketNS_14default_deleteIS1_EENS_9allocatorIS1_EEED0Ev = 0x29f264
_ZNSt3__120__shared_ptr_pointerIP8XZPacketNS_14default_deleteIS1_EENS_9allocatorIS1_EEE16__on_zero_sharedEv = 0x29f288
_ZNKSt3__120__shared_ptr_pointerIP8XZPacketNS_14default_deleteIS1_EENS_9allocatorIS1_EEE13__get_deleterERKSt9type_info = 0x29f2a0
_ZNSt3__120__shared_ptr_pointerIP8XZPacketNS_14default_deleteIS1_EENS_9allocatorIS1_EEE21__on_zero_shared_weakEv = 0x29f2bc
_ZNSt3__110shared_ptrI8XZPacketED2Ev = 0x29f2c0
_ZNSt3__18weak_ptrI8XZPacketED2Ev = 0x29f2d0
_ZNSt3__110shared_ptrI6PacketEC2I10VotePacketEEPT_NS_9enable_ifIXsr14is_convertibleIS6_PS1_EE5valueENS2_5__natEE4typeE = 0x29f4fc
_ZNSt3__120__shared_ptr_pointerIP10VotePacketNS_14default_deleteIS1_EENS_9allocatorIS1_EEED0Ev = 0x29f5d4
_ZNSt3__120__shared_ptr_pointerIP10VotePacketNS_14default_deleteIS1_EENS_9allocatorIS1_EEE16__on_zero_sharedEv = 0x29f5f8
_ZNKSt3__120__shared_ptr_pointerIP10VotePacketNS_14default_deleteIS1_EENS_9allocatorIS1_EEE13__get_deleterERKSt9type_info = 0x29f610
_ZNSt3__120__shared_ptr_pointerIP10VotePacketNS_14default_deleteIS1_EENS_9allocatorIS1_EEE21__on_zero_shared_weakEv = 0x29f62c
_ZNSt3__110shared_ptrI10VotePacketED2Ev = 0x29f630
_ZNSt3__18weak_ptrI10VotePacketED2Ev = 0x29f640
_ZNSt3__110shared_ptrI6PacketEC2I26ClientboundAwardStatPacketEEPT_NS_9enable_ifIXsr14is_convertibleIS6_PS1_EE5valueENS2_5__natEE4typeE = 0x29f8d8
_ZNSt3__120__shared_ptr_pointerIP26ClientboundAwardStatPacketNS_14default_deleteIS1_EENS_9allocatorIS1_EEED0Ev = 0x29f9b0
_ZNSt3__120__shared_ptr_pointerIP26ClientboundAwardStatPacketNS_14default_deleteIS1_EENS_9allocatorIS1_EEE16__on_zero_sharedEv = 0x29f9d4
_ZNKSt3__120__shared_ptr_pointerIP26ClientboundAwardStatPacketNS_14default_deleteIS1_EENS_9allocatorIS1_EEE13__get_deleterERKSt9type_info = 0x29f9ec
_ZNSt3__120__shared_ptr_pointerIP26ClientboundAwardStatPacketNS_14default_deleteIS1_EENS_9allocatorIS1_EEE21__on_zero_shared_weakEv = 0x29fa08
_ZNSt3__110shared_ptrI6PacketEC2I32ClientboundPlayerAbilitiesPacketEEPT_NS_9enable_ifIXsr14is_convertibleIS6_PS1_EE5valueENS2_5__natEE4typeE = 0x29fae4
_ZNSt3__120__shared_ptr_pointerIP32ClientboundPlayerAbilitiesPacketNS_14default_deleteIS1_EENS_9allocatorIS1_EEED0Ev = 0x29fbbc
_ZNSt3__120__shared_ptr_pointerIP32ClientboundPlayerAbilitiesPacketNS_14default_deleteIS1_EENS_9allocatorIS1_EEE16__on_zero_sharedEv = 0x29fbe0
_ZNKSt3__120__shared_ptr_pointerIP32ClientboundPlayerAbilitiesPacketNS_14default_deleteIS1_EENS_9allocatorIS1_EEE13__get_deleterERKSt9type_info = 0x29fbf8
_ZNSt3__120__shared_ptr_pointerIP32ClientboundPlayerAbilitiesPacketNS_14default_deleteIS1_EENS_9allocatorIS1_EEE21__on_zero_shared_weakEv = 0x29fc14
_ZNSt3__110shared_ptrI6PacketEC2I30ServerboundClientCommandPacketEEPT_NS_9enable_ifIXsr14is_convertibleIS6_PS1_EE5valueENS2_5__natEE4typeE = 0x29fc18
_ZNSt3__120__shared_ptr_pointerIP30ServerboundClientCommandPacketNS_14default_deleteIS1_EENS_9allocatorIS1_EEED0Ev = 0x29fcf0
_ZNSt3__120__shared_ptr_pointerIP30ServerboundClientCommandPacketNS_14default_deleteIS1_EENS_9allocatorIS1_EEE16__on_zero_sharedEv = 0x29fd14
_ZNKSt3__120__shared_ptr_pointerIP30ServerboundClientCommandPacketNS_14default_deleteIS1_EENS_9allocatorIS1_EEE13__get_deleterERKSt9type_info = 0x29fd2c
_ZNSt3__120__shared_ptr_pointerIP30ServerboundClientCommandPacketNS_14default_deleteIS1_EENS_9allocatorIS1_EEE21__on_zero_shared_weakEv = 0x29fd48
_ZNSt3__110shared_ptrI30ServerboundClientCommandPacketED2Ev = 0x29fd4c
_ZNSt3__18weak_ptrI30ServerboundClientCommandPacketED2Ev = 0x29fd5c
_ZNSt3__110shared_ptrI6PacketEC2I31ClientboundOpenSignEditorPacketEEPT_NS_9enable_ifIXsr14is_convertibleIS6_PS1_EE5valueENS2_5__natEE4typeE = 0x2a00cc
_ZNSt3__120__shared_ptr_pointerIP31ClientboundOpenSignEditorPacketNS_14default_deleteIS1_EENS_9allocatorIS1_EEED0Ev = 0x2a01a4
_ZNSt3__120__shared_ptr_pointerIP31ClientboundOpenSignEditorPacketNS_14default_deleteIS1_EENS_9allocatorIS1_EEE16__on_zero_sharedEv = 0x2a01c8
_ZNKSt3__120__shared_ptr_pointerIP31ClientboundOpenSignEditorPacketNS_14default_deleteIS1_EENS_9allocatorIS1_EEE13__get_deleterERKSt9type_info = 0x2a01e0
_ZNSt3__120__shared_ptr_pointerIP31ClientboundOpenSignEditorPacketNS_14default_deleteIS1_EENS_9allocatorIS1_EEE21__on_zero_shared_weakEv = 0x2a01fc
_ZNSt3__110shared_ptrI6PacketEC2I29ClientboundPlayerCombatPacketEEPT_NS_9enable_ifIXsr14is_convertibleIS6_PS1_EE5valueENS2_5__natEE4typeE = 0x2a0200
_ZNSt3__120__shared_ptr_pointerIP29ClientboundPlayerCombatPacketNS_14default_deleteIS1_EENS_9allocatorIS1_EEED0Ev = 0x2a02d8
_ZNSt3__120__shared_ptr_pointerIP29ClientboundPlayerCombatPacketNS_14default_deleteIS1_EENS_9allocatorIS1_EEE16__on_zero_sharedEv = 0x2a02fc
_ZNKSt3__120__shared_ptr_pointerIP29ClientboundPlayerCombatPacketNS_14default_deleteIS1_EENS_9allocatorIS1_EEE13__get_deleterERKSt9type_info = 0x2a0314
_ZNSt3__120__shared_ptr_pointerIP29ClientboundPlayerCombatPacketNS_14default_deleteIS1_EENS_9allocatorIS1_EEE21__on_zero_shared_weakEv = 0x2a0330
_ZNSt3__110shared_ptrI6PacketEC2I26ClientboundSetBorderPacketEEPT_NS_9enable_ifIXsr14is_convertibleIS6_PS1_EE5valueENS2_5__natEE4typeE = 0x2a059c
_ZNSt3__120__shared_ptr_pointerIP26ClientboundSetBorderPacketNS_14default_deleteIS1_EENS_9allocatorIS1_EEED0Ev = 0x2a0674
_ZNSt3__120__shared_ptr_pointerIP26ClientboundSetBorderPacketNS_14default_deleteIS1_EENS_9allocatorIS1_EEE16__on_zero_sharedEv = 0x2a0698
_ZNKSt3__120__shared_ptr_pointerIP26ClientboundSetBorderPacketNS_14default_deleteIS1_EENS_9allocatorIS1_EEE13__get_deleterERKSt9type_info = 0x2a06b0
_ZNSt3__120__shared_ptr_pointerIP26ClientboundSetBorderPacketNS_14default_deleteIS1_EENS_9allocatorIS1_EEE21__on_zero_shared_weakEv = 0x2a06cc
_ZNSt3__110shared_ptrI6PacketEC2I31ServerboundContainerClosePacketEEPT_NS_9enable_ifIXsr14is_convertibleIS6_PS1_EE5valueENS2_5__natEE4typeE = 0x2a0e78
_ZNSt3__120__shared_ptr_pointerIP31ServerboundContainerClosePacketNS_14default_deleteIS1_EENS_9allocatorIS1_EEED0Ev = 0x2a0f50
_ZNSt3__120__shared_ptr_pointerIP31ServerboundContainerClosePacketNS_14default_deleteIS1_EENS_9allocatorIS1_EEE16__on_zero_sharedEv = 0x2a0f74
_ZNKSt3__120__shared_ptr_pointerIP31ServerboundContainerClosePacketNS_14default_deleteIS1_EENS_9allocatorIS1_EEE13__get_deleterERKSt9type_info = 0x2a0f8c
_ZNSt3__120__shared_ptr_pointerIP31ServerboundContainerClosePacketNS_14default_deleteIS1_EENS_9allocatorIS1_EEE21__on_zero_shared_weakEv = 0x2a0fa8
_ZNSt3__110shared_ptrI31ServerboundContainerClosePacketED2Ev = 0x2a0fac
_ZNSt3__18weak_ptrI31ServerboundContainerClosePacketED2Ev = 0x2a0fbc
_ZNSt3__110shared_ptrI6PacketEC2I29ServerboundResourcePackPacketEEPT_NS_9enable_ifIXsr14is_convertibleIS6_PS1_EE5valueENS2_5__natEE4typeE = 0x2a1274
_ZNSt3__120__shared_ptr_pointerIP29ServerboundResourcePackPacketNS_14default_deleteIS1_EENS_9allocatorIS1_EEED0Ev = 0x2a134c
_ZNSt3__120__shared_ptr_pointerIP29ServerboundResourcePackPacketNS_14default_deleteIS1_EENS_9allocatorIS1_EEE16__on_zero_sharedEv = 0x2a1370
_ZNKSt3__120__shared_ptr_pointerIP29ServerboundResourcePackPacketNS_14default_deleteIS1_EENS_9allocatorIS1_EEE13__get_deleterERKSt9type_info = 0x2a1388
_ZNSt3__120__shared_ptr_pointerIP29ServerboundResourcePackPacketNS_14default_deleteIS1_EENS_9allocatorIS1_EEE21__on_zero_shared_weakEv = 0x2a13a4
_ZNSt3__110shared_ptrI29ServerboundResourcePackPacketED2Ev = 0x2a13a8
_ZNSt3__18weak_ptrI29ServerboundResourcePackPacketED2Ev = 0x2a13b8
_ZNSt3__110shared_ptrI6PacketEC2I31ServerboundSetCarriedItemPacketEEPT_NS_9enable_ifIXsr14is_convertibleIS6_PS1_EE5valueENS2_5__natEE4typeE = 0x2a13c8
_ZNSt3__120__shared_ptr_pointerIP31ServerboundSetCarriedItemPacketNS_14default_deleteIS1_EENS_9allocatorIS1_EEED0Ev = 0x2a14a0
_ZNSt3__120__shared_ptr_pointerIP31ServerboundSetCarriedItemPacketNS_14default_deleteIS1_EENS_9allocatorIS1_EEE16__on_zero_sharedEv = 0x2a14c4
_ZNKSt3__120__shared_ptr_pointerIP31ServerboundSetCarriedItemPacketNS_14default_deleteIS1_EENS_9allocatorIS1_EEE13__get_deleterERKSt9type_info = 0x2a14dc
_ZNSt3__120__shared_ptr_pointerIP31ServerboundSetCarriedItemPacketNS_14default_deleteIS1_EENS_9allocatorIS1_EEE21__on_zero_shared_weakEv = 0x2a14f8
_ZNSt3__110shared_ptrI31ServerboundSetCarriedItemPacketED2Ev = 0x2a14fc
_ZNSt3__18weak_ptrI31ServerboundSetCarriedItemPacketED2Ev = 0x2a150c
_ZNSt3__110shared_ptrI6PacketEC2I22ServerboundSwingPacketEEPT_NS_9enable_ifIXsr14is_convertibleIS6_PS1_EE5valueENS2_5__natEE4typeE = 0x2a1918
_ZNSt3__120__shared_ptr_pointerIP22ServerboundSwingPacketNS_14default_deleteIS1_EENS_9allocatorIS1_EEED0Ev = 0x2a19f0
_ZNSt3__120__shared_ptr_pointerIP22ServerboundSwingPacketNS_14default_deleteIS1_EENS_9allocatorIS1_EEE16__on_zero_sharedEv = 0x2a1a14
_ZNKSt3__120__shared_ptr_pointerIP22ServerboundSwingPacketNS_14default_deleteIS1_EENS_9allocatorIS1_EEE13__get_deleterERKSt9type_info = 0x2a1a2c
_ZNSt3__120__shared_ptr_pointerIP22ServerboundSwingPacketNS_14default_deleteIS1_EENS_9allocatorIS1_EEE21__on_zero_shared_weakEv = 0x2a1a48
_ZNSt3__110shared_ptrI22ServerboundSwingPacketED2Ev = 0x2a1a4c
_ZNSt3__18weak_ptrI22ServerboundSwingPacketED2Ev = 0x2a1a5c
_ZNSt3__110shared_ptrI6PacketEC2I25ClientboundCooldownPacketEEPT_NS_9enable_ifIXsr14is_convertibleIS6_PS1_EE5valueENS2_5__natEE4typeE = 0x2a1c78
_ZNSt3__120__shared_ptr_pointerIP25ClientboundCooldownPacketNS_14default_deleteIS1_EENS_9allocatorIS1_EEED0Ev = 0x2a1d50
_ZNSt3__120__shared_ptr_pointerIP25ClientboundCooldownPacketNS_14default_deleteIS1_EENS_9allocatorIS1_EEE16__on_zero_sharedEv = 0x2a1d74
_ZNKSt3__120__shared_ptr_pointerIP25ClientboundCooldownPacketNS_14default_deleteIS1_EENS_9allocatorIS1_EEE13__get_deleterERKSt9type_info = 0x2a1d8c
_ZNSt3__120__shared_ptr_pointerIP25ClientboundCooldownPacketNS_14default_deleteIS1_EENS_9allocatorIS1_EEE21__on_zero_shared_weakEv = 0x2a1da8
_ZNSt3__110shared_ptrI6PacketEC2I33ClientboundChangeDifficultyPacketEEPT_NS_9enable_ifIXsr14is_convertibleIS6_PS1_EE5valueENS2_5__natEE4typeE = 0x2a2014
_ZNSt3__120__shared_ptr_pointerIP33ClientboundChangeDifficultyPacketNS_14default_deleteIS1_EENS_9allocatorIS1_EEED0Ev = 0x2a20ec
_ZNSt3__120__shared_ptr_pointerIP33ClientboundChangeDifficultyPacketNS_14default_deleteIS1_EENS_9allocatorIS1_EEE16__on_zero_sharedEv = 0x2a2110
_ZNKSt3__120__shared_ptr_pointerIP33ClientboundChangeDifficultyPacketNS_14default_deleteIS1_EENS_9allocatorIS1_EEE13__get_deleterERKSt9type_info = 0x2a2128
_ZNSt3__120__shared_ptr_pointerIP33ClientboundChangeDifficultyPacketNS_14default_deleteIS1_EENS_9allocatorIS1_EEE21__on_zero_shared_weakEv = 0x2a2144
_ZN13GetInfoPacketC1Ev = 0x2a2148
_ZNSt3__110shared_ptrI6PacketEC2I13GetInfoPacketEEPT_NS_9enable_ifIXsr14is_convertibleIS6_PS1_EE5valueENS2_5__natEE4typeE = 0x2a217c
_ZNSt3__120__shared_ptr_pointerIP13GetInfoPacketNS_14default_deleteIS1_EENS_9allocatorIS1_EEED0Ev = 0x2a2254
_ZNSt3__120__shared_ptr_pointerIP13GetInfoPacketNS_14default_deleteIS1_EENS_9allocatorIS1_EEE16__on_zero_sharedEv = 0x2a2278
_ZNKSt3__120__shared_ptr_pointerIP13GetInfoPacketNS_14default_deleteIS1_EENS_9allocatorIS1_EEE13__get_deleterERKSt9type_info = 0x2a2290
_ZNSt3__120__shared_ptr_pointerIP13GetInfoPacketNS_14default_deleteIS1_EENS_9allocatorIS1_EEE21__on_zero_shared_weakEv = 0x2a22ac
_ZNSt3__110shared_ptrI6PacketEC2I16DisconnectPacketEEPT_NS_9enable_ifIXsr14is_convertibleIS6_PS1_EE5valueENS2_5__natEE4typeE = 0x2a22b0
_ZNSt3__120__shared_ptr_pointerIP16DisconnectPacketNS_14default_deleteIS1_EENS_9allocatorIS1_EEED0Ev = 0x2a2388
_ZNSt3__120__shared_ptr_pointerIP16DisconnectPacketNS_14default_deleteIS1_EENS_9allocatorIS1_EEE16__on_zero_sharedEv = 0x2a23ac
_ZNKSt3__120__shared_ptr_pointerIP16DisconnectPacketNS_14default_deleteIS1_EENS_9allocatorIS1_EEE13__get_deleterERKSt9type_info = 0x2a23c4
_ZNSt3__120__shared_ptr_pointerIP16DisconnectPacketNS_14default_deleteIS1_EENS_9allocatorIS1_EEE21__on_zero_shared_weakEv = 0x2a23e0
_ZNSt3__15dequeIP16DataOutputStreamNS_9allocatorIS2_EEE19__add_back_capacityEv = 0x2aa6d0
_ZNSt3__114__split_bufferIPP16DataOutputStreamNS_9allocatorIS3_EEE9push_backEOS3_ = 0x2aa900
_ZNSt3__114__split_bufferIPP16DataOutputStreamNS_9allocatorIS3_EEE10push_frontEOS3_ = 0x2aaa24
_ZNSt3__114__split_bufferIPP16DataOutputStreamRNS_9allocatorIS3_EEEC2EmmS6_ = 0x2aab50
_ZNSt3__114__split_bufferIPP16DataOutputStreamRNS_9allocatorIS3_EEE9push_backEOS3_ = 0x2aabb0
_ZNSt3__114__split_bufferIPP16DataOutputStreamRNS_9allocatorIS3_EEE10push_frontERKS3_ = 0x2aacd4
_ZNSt3__114__split_bufferIPP16DataOutputStreamRNS_9allocatorIS3_EEED2Ev = 0x2aae00
_ZNSt3__114__split_bufferIPP16DataOutputStreamRNS_9allocatorIS3_EEE18__construct_at_endINS_13move_iteratorIPS3_EEEENS_9enable_ifIXsr21__is_forward_iteratorIT_EE5valueEvE4typeESD_SD_ = 0x2aae34
_ZN11PerlinNoise4initEP6Randomi = 0x2b8804
_ZN11PerlinNoiseC1EP6Randomi = 0x2b88a0
_ZN11PerlinNoiseD1Ev = 0x2b88ec
_ZN11PerlinNoiseD0Ev = 0x2b8964
_ZN11PerlinNoise8getValueEdd = 0x2b8988
_ZN11PerlinNoise9getRegionE15arrayWithLengthIdEiiiiiiddd = 0x2b8a24
_ZN11PerlinNoise9getRegionE15arrayWithLengthIdEiiiiddd = 0x2b8bf0
_ZN18PerlinSimplexNoise4initEP6Randomi = 0x2b8c30
_ZN18PerlinSimplexNoiseC1EP6Randomi = 0x2b8cd0
_ZN18PerlinSimplexNoiseD2Ev = 0x2b8d1c
_ZN18PerlinSimplexNoiseD0Ev = 0x2b8d9c
_ZN18PerlinSimplexNoise8getValueEdd = 0x2b8dc0
_ZN18PerlinSimplexNoise9getRegionE15arrayWithLengthIdEddiiddd = 0x2b90a0
_ZN11PickaxeItem10staticCtorEv = 0x2bdd94
_ZN3Pig10staticCtorEv = 0x2be36c
_ZN3Pig14addDataWalkersEP14DataFixerUpper = 0x2bea00
_ZN6Random7nextIntEi = 0x2bf6b4
_ZN6Random9nextFloatEv = 0x2bfc68
_ZN9PigZombie14addDataWalkersEP14DataFixerUpper = 0x2bfd44
_ZN11PineFeature10staticCtorEv = 0x2c01f8
_ZN15PistonBaseBlock15blockStaticCtorEv = 0x2c0978
_ZN15PistonBaseBlock14isViewBlockingEPK10BlockState = 0x2c0a50
_ZN15PistonBaseBlock25getSpawnResourcesAuxValueEPK10BlockState = 0x2c0a80
_ZN15PistonBaseBlock8getShapeEPK10BlockStateP11LevelSourceRK8BlockPos = 0x2c0a88
_ZN15PistonBaseBlock17addCollisionAABBsEPK10BlockStateP5LevelRK8BlockPosPK4AABBPSt6vectorIP4AABBSt9allocatorIP4AABBEESt10shared_ptrI6EntityEb = 0x2c0b68
_ZNK15PistonBaseBlock13isSolidRenderEPK10BlockState = 0x2c0bdc
_ZN15PistonBaseBlock11setPlacedByEP5LevelRK8BlockPosPK10BlockStateSt10shared_ptrI12LivingEntityE12not_null_ptrI12ItemInstanceE = 0x2c0be4
_ZN15PistonBaseBlock15neighborChangedEPK10BlockStateP5LevelRK8BlockPosP5BlockRK8BlockPos = 0x2c0db8
_ZN15PistonBaseBlock7onPlaceEP5LevelRK8BlockPosPK10BlockState = 0x2c0dd8
_ZN15PistonBaseBlock20getStateForPlacementEP5LevelRK8BlockPosPK9DirectionfffiSt10shared_ptrI12LivingEntityE = 0x2c0e5c
_ZN15PistonBaseBlock12triggerEventEPK10BlockStateP5LevelRK8BlockPosii = 0x2c13f4
_ZN15PistonBaseBlock12isCubeShapedEPK10BlockState = 0x2c2578
_ZN15PistonBaseBlock13getBlockStateEi = 0x2c2664
_ZN15PistonBaseBlock6rotateEPK10BlockStateP8Rotation = 0x2c26c4
_ZN15PistonBaseBlock6mirrorEPK10BlockStateP6Mirror = 0x2c27a8
_ZN15PistonBaseBlock29convertBlockStateToLegacyDataEPK10BlockState = 0x2c2810
_ZN15PistonBaseBlock26createBlockStateDefinitionEv = 0x2c2868
_ZN15PistonBaseBlock17getBlockFaceShapeEP11LevelSourcePK10BlockStateRK8BlockPosPK9Direction = 0x2c28e8
_ZN15PistonBaseBlock10getTextureEPK9DirectionPK10BlockState = 0x2c2974
_ZN15PistonBaseBlock13registerIconsEP12IconRegister = 0x2c2c7c
_ZN15PistonBaseBlock14getRenderShapeEPK10BlockState = 0x2c2d20
_ZN15PistonHeadBlock15blockStaticCtorEv = 0x2c2dbc
_ZN15PistonHeadBlock8getShapeEPK10BlockStateP11LevelSourceRK8BlockPos = 0x2c3164
_ZN15PistonHeadBlock17addCollisionAABBsEPK10BlockStateP5LevelRK8BlockPosPK4AABBPSt6vectorIP4AABBSt9allocatorIP4AABBEESt10shared_ptrI6EntityEb = 0x2c31b8
_ZN15PistonHeadBlock17playerWillDestroyEP5LevelRK8BlockPosPK10BlockStateSt10shared_ptrI6PlayerE = 0x2c3330
_ZN15PistonHeadBlock8onRemoveEP5LevelRK8BlockPosPK10BlockState = 0x2c3440
_ZNK15PistonHeadBlock13isSolidRenderEPK10BlockState = 0x2c3558
_ZN15PistonHeadBlock12isCubeShapedEPK10BlockState = 0x2c3560
_ZN15PistonHeadBlock8mayPlaceEP5LevelRK8BlockPos = 0x2c3568
_ZN15PistonHeadBlock8mayPlaceEP5LevelRK8BlockPosPK9Direction = 0x2c3570
_ZN15PistonHeadBlock16getResourceCountEP6Random = 0x2c3578
_ZN15PistonHeadBlock15neighborChangedEPK10BlockStateP5LevelRK8BlockPosP5BlockRK8BlockPos = 0x2c3580
_ZN15PistonHeadBlock16shouldRenderFaceEPK10BlockStateP11LevelSourceRK8BlockPosPK9Direction = 0x2c3694
_ZN15PistonHeadBlock20getCloneItemInstanceEP5LevelRK8BlockPosPK10BlockState = 0x2c36b4
_ZN15PistonHeadBlock13getBlockStateEi = 0x2c375c
_ZN15PistonHeadBlock29convertBlockStateToLegacyDataEPK10BlockState = 0x2c37d4
_ZN15PistonHeadBlock6rotateEPK10BlockStateP8Rotation = 0x2c3838
_ZN15PistonHeadBlock6mirrorEPK10BlockStateP6Mirror = 0x2c3890
_ZN15PistonHeadBlock26createBlockStateDefinitionEv = 0x2c38f8
_ZN15PistonHeadBlock17getBlockFaceShapeEP11LevelSourcePK10BlockStateRK8BlockPosPK9Direction = 0x2c398c
_ZN15PistonHeadBlock10getTextureEPK9DirectionPK10BlockState = 0x2c39c8
_ZN15PistonHeadBlock13registerIconsEP12IconRegister = 0x2c3a9c
_ZN15PistonHeadBlock14getRenderShapeEPK10BlockState = 0x2c3aa0
_ZN16PistonMagicBlock15blockStaticCtorEv = 0x2c3aa8
_ZN16PistonMagicBlock8onRemoveEP5LevelRK8BlockPosPK10BlockState = 0x2c3c70
_ZN16PistonMagicBlock8mayPlaceEP5LevelRK8BlockPos = 0x2c3d8c
_ZN16PistonMagicBlock8mayPlaceEP5LevelRK8BlockPosPK9Direction = 0x2c3d94
_ZN16PistonMagicBlock7destroyEP5LevelRK8BlockPosPK10BlockState = 0x2c3d9c
_ZNK16PistonMagicBlock13isSolidRenderEPK10BlockState = 0x2c3e60
_ZN16PistonMagicBlock12isCubeShapedEPK10BlockState = 0x2c3e68
_ZN16PistonMagicBlock3useEP5LevelRK8BlockPosPK10BlockStateSt10shared_ptrI6PlayerEN15InteractionHand16EInteractionHandEPK9Directionfffb = 0x2c3e70
_ZN16PistonMagicBlock11getResourceEPK10BlockStateP6Randomi = 0x2c3f04
_ZN16PistonMagicBlock14spawnResourcesEP5LevelRK8BlockPosPK10BlockStatefi = 0x2c3f14
_ZN16PistonMagicBlock4clipEPK10BlockStateP5LevelRK8BlockPosP4Vec3P4Vec3 = 0x2c4078
_ZN16PistonMagicBlock15neighborChangedEPK10BlockStateP5LevelRK8BlockPosP5BlockRK8BlockPos = 0x2c4080
_ZN16PistonMagicBlock11getClipAABBEPK10BlockStateP11LevelSourceRK8BlockPos = 0x2c40c0
_ZN16PistonMagicBlock17addCollisionAABBsEPK10BlockStateP5LevelRK8BlockPosPK4AABBPSt6vectorIP4AABBSt9allocatorIP4AABBEESt10shared_ptrI6EntityEb = 0x2c4178
_ZN16PistonMagicBlock8getShapeEPK10BlockStateP11LevelSourceRK8BlockPos = 0x2c4488
_ZN16PistonMagicBlock20getCloneItemInstanceEP5LevelRK8BlockPosPK10BlockState = 0x2c44f4
_ZN16PistonMagicBlock13getBlockStateEi = 0x2c4504
_ZN16PistonMagicBlock29convertBlockStateToLegacyDataEPK10BlockState = 0x2c457c
_ZN16PistonMagicBlock6rotateEPK10BlockStateP8Rotation = 0x2c45e0
_ZN16PistonMagicBlock6mirrorEPK10BlockStateP6Mirror = 0x2c4638
_ZN16PistonMagicBlock26createBlockStateDefinitionEv = 0x2c46a0
_ZN16PistonMagicBlock17getBlockFaceShapeEP11LevelSourcePK10BlockStateRK8BlockPosPK9Direction = 0x2c4720
_ZN16PistonMagicBlock13registerIconsEP12IconRegister = 0x2c4728
_ZN16PistonMagicBlock14getRenderShapeEPK10BlockState = 0x2c472c
_ZN23PistonMovingBlockEntity14addDataWalkersEP14DataFixerUpper = 0x2c4864
_ZN11PlainsBiomeC1EN5Biome9EBiomeIDsEbPN5Biome15BiomePropertiesE = 0x2c6524
_ZN11PlanksBlock15blockStaticCtorEv = 0x2c6a54
_ZN11PlanksBlock25getSpawnResourcesAuxValueEPK10BlockState = 0x2c6e1c
_ZN11PlanksBlock13getBlockStateEi = 0x2c6e4c
_ZN11PlanksBlock11getMapColorEPK10BlockStateP11LevelSourceRK8BlockPos = 0x2c6eb4
_ZN11PlanksBlock29convertBlockStateToLegacyDataEPK10BlockState = 0x2c6ee4
_ZN11PlanksBlock26createBlockStateDefinitionEv = 0x2c6f0c
_ZN11PlanksBlock16getDescriptionIdEi = 0x2c7010
_ZN11PlanksBlock10getTextureEPK9DirectionPK10BlockState = 0x2c702c
_ZN11PlanksBlock13registerIconsEP12IconRegister = 0x2c7068
_ZN6Player10staticCtorEv = 0x2c71c4
_ZN11LocalPlayer18registerAttributesEv = 0x2c87b0
_ZN11LocalPlayer17defineSynchedDataEv = 0x2c8884
_ZN11LocalPlayer25shouldRenderAtSqrDistanceEd = 0x2c89a8
_ZN6Player4tickEv = 0x2c8c48
_ZN6Random10nextDoubleEv = 0x2c9cec
_ZN11LocalPlayer12getSwimSoundEv = 0x2c9f04
_ZN11LocalPlayer18getSwimSplashSoundEv = 0x2c9f14
_ZN11LocalPlayer17getPortalWaitTimeEv = 0x2c9f24
_ZN11LocalPlayer25getDimensionChangingDelayEv = 0x2c9f38
_ZN11LocalPlayer14getSoundSourceEv = 0x2ca010
_ZN11LocalPlayer10isImmobileEv = 0x2ca058
_ZN11LocalPlayer14onChangedBlockERK8BlockPos = 0x2ca0a4
_ZN11LocalPlayer8resetPosEv = 0x2caddc
_ZN11LocalPlayer3dieEP12DamageSource = 0x2cb80c
_ZN11LocalPlayer12getHurtSoundEP12DamageSource = 0x2cbd9c
_ZN11LocalPlayer13getDeathSoundEv = 0x2cbe1c
_ZN6Player10addWalkersEP14DataFixerUpper = 0x2cc214
_ZN11LocalPlayer22readAdditionalSaveDataEP11CompoundTag = 0x2cc414
_ZN6Random7nextIntEv = 0x2ccb90
_ZN11LocalPlayer20addAdditonalSaveDataEP11CompoundTag = 0x2ccd4c
_ZN11LocalPlayer16blockUsingShieldERKSt10shared_ptrI12LivingEntityE = 0x2cd7c4
_ZN11LocalPlayer9hurtArmorEf = 0x2cd940
_ZN11LocalPlayer23hurtCurrentlyUsedShieldEf = 0x2cd948
_ZN11LocalPlayer15getRidingHeightEv = 0x2cdf18
_ZN11LocalPlayer6removeEv = 0x2ceac0
_ZN11LocalPlayer8isInWallEv = 0x2ceb90
_ZN11LocalPlayer10isSleepingEv = 0x2cf660
_ZN6Player13getSleepTimerEv = 0x2cf688
_ZN11LocalPlayer14jumpFromGroundEv = 0x2cf71c
_ZN11LocalPlayer6travelEfff = 0x2cfaf0
_ZN11LocalPlayer8getSpeedEv = 0x2cfc74
_ZN11LocalPlayer15causeFallDamageEff = 0x2d015c
_ZN11LocalPlayer19doWaterSplashEffectEv = 0x2d024c
_ZN11LocalPlayer18getFallDamageSoundEi = 0x2d0288
_ZN11LocalPlayer6killedESt10shared_ptrI12LivingEntityE = 0x2d02f4
_ZN11LocalPlayer14makeStuckInWebEv = 0x2d0954
_ZN11LocalPlayer17getItemInHandIconE12not_null_ptrI12ItemInstanceEi = 0x2d0964
_ZN11LocalPlayer19getExperienceRewardESt10shared_ptrI6PlayerE = 0x2d0f98
_ZN11LocalPlayer25isAlwaysExperienceDropperEv = 0x2d0fe8
_ZN11LocalPlayer14shouldShowNameEv = 0x2d0ff0
_ZN11LocalPlayer13makeStepSoundEv = 0x2d0ff8
_ZN11LocalPlayer7getNameEv = 0x2d1018
_ZN11LocalPlayer14getNetworkNameEv = 0x2d1024
_ZN11LocalPlayer14getDisplayNameEv = 0x2d1050
_ZN11LocalPlayer12getHandSlotsEv = 0x2d12a4
_ZN11LocalPlayer13isInvisibleToESt10shared_ptrI6PlayerE = 0x2d1530
_ZN11LocalPlayer15isPushedByWaterEv = 0x2d1604
_ZN11LocalPlayer7getTeamEv = 0x2d1624
_ZN11LocalPlayer12getEyeHeightEv = 0x2d16e8
_ZN11LocalPlayer19setAbsorptionAmountEf = 0x2d18ac
_ZN11LocalPlayer19getAbsorptionAmountEv = 0x2d1900
_ZN11LocalPlayer7setSlotEiRK12not_null_ptrI12ItemInstanceE = 0x2d1b8c
_ZN11LocalPlayer4pushESt10shared_ptrIS_E = 0x2d1fcc
_ZN11LocalPlayer12pushEntitiesEv = 0x2d2030
_ZN6Player14isAllowedToUseEP5Block = 0x2d22dc
_ZN11LocalPlayer16IsCreativeFlyingEv = 0x2d2a5c
_ZN11LocalPlayer18canCreateParticlesEv = 0x2d2afc
_ZN6Player9getCameraEv = 0x2d310c
_ZN6Player12CheckPowerupEN12PowerupItems23eGlide_Timed_Powerup_IDE = 0x2d3194
_ZN16PlayerInfoPacketC1Ev = 0x2d36b4
_ZN16PlayerInfoPacket4readEP15DataInputStream = 0x2d3818
_ZN16PlayerInfoPacket5writeEP16DataOutputStream = 0x2d38a0
_ZN16PlayerInfoPacket6handleEP14PacketListener = 0x2d3920
_ZN16PlayerInfoPacket16getEstimatedSizeEv = 0x2d3970
_ZN17PlayerReadyPacketD2Ev = 0x2d399c
_ZN17PlayerReadyPacketD0Ev = 0x2d39c4
_ZN17PlayerReadyPacketC1Ev = 0x2d39e8
_ZN17PlayerReadyPacketC2Ejb = 0x2d3a24
_ZN17PlayerReadyPacket6handleEP14PacketListener = 0x2d3a70
_ZN17PlayerReadyPacket4readEP15DataInputStream = 0x2d3ac0
_ZN17PlayerReadyPacket5writeEP16DataOutputStream = 0x2d3b0c
_ZN17PlayerReadyPacket16getEstimatedSizeEv = 0x2d3b50
_ZN9PolarBear10staticCtorEv = 0x2d43b0
_ZN11PortalBlock15blockStaticCtorEv = 0x2d5270
_ZN11PortalBlock8getShapeEPK10BlockStateP11LevelSourceRK8BlockPos = 0x2d5674
_ZN11PortalBlock4tickEP5LevelRK8BlockPosPK10BlockStateP6Random = 0x2d56cc
_ZN11PortalBlock11getClipAABBEPK10BlockStateP11LevelSourceRK8BlockPos = 0x2d58d0
_ZN11PortalBlock12isCubeShapedEPK10BlockState = 0x2d5918
_ZN11PortalBlock15neighborChangedEPK10BlockStateP5LevelRK8BlockPosP5BlockRK8BlockPos = 0x2d5af8
_ZN11PortalBlock16shouldRenderFaceEPK10BlockStateP11LevelSourceRK8BlockPosPK9Direction = 0x2d5bc8
_ZN11PortalBlock16getResourceCountEP6Random = 0x2d5fa8
_ZN11PortalBlock14getRenderLayerEv = 0x2d5fb0
_ZN11PortalBlock12entityInsideEP5LevelRK8BlockPosPK10BlockStateRKSt10shared_ptrI6EntityE = 0x2d5fb8
_ZN11PortalBlock11animateTickEPK10BlockStateP5LevelRK8BlockPosP6Random = 0x2d6080
_ZN11PortalBlock20getCloneItemInstanceEP5LevelRK8BlockPosPK10BlockState = 0x2d6380
_ZN11PortalBlock13getBlockStateEi = 0x2d6390
_ZN11PortalBlock29convertBlockStateToLegacyDataEPK10BlockState = 0x2d63dc
_ZN11PortalBlock6rotateEPK10BlockStateP8Rotation = 0x2d6404
_ZN11PortalBlock26createBlockStateDefinitionEv = 0x2d648c
_ZN11PortalBlock17getBlockFaceShapeEP11LevelSourcePK10BlockStateRK8BlockPosPK9Direction = 0x2d6934
_ZN11PortalBlock7mayPickEv = 0x2d6e50
_ZN12PortalForcer10findPortalESt10shared_ptrI6EntityEfii = 0x2d726c
_ZN11PotatoBlock14spawnResourcesEP5LevelRK8BlockPosPK10BlockStatefi = 0x2d8f08
_ZN11PotatoBlock8getShapeEPK10BlockStateP11LevelSourceRK8BlockPos = 0x2d8fac
_ZN11PotatoBlock10getTextureEPK9DirectionPK10BlockState = 0x2d8fec
_ZN11PotatoBlock13registerIconsEP12IconRegister = 0x2d9044
_ZN6Potion10StaticCtorEv = 0x2d933c
_ZN13PotionBrewing10StaticCtorEv = 0x2db6b4
_ZN7Potions10StaticCtorEv = 0x2dcefc
_ZN12PoweredBlock14isSignalSourceEPK10BlockState = 0x2de45c
_ZN12PoweredBlock9getSignalEPK10BlockStateP11LevelSourceRK8BlockPosPK9Direction = 0x2de464
_ZN16PoweredRailBlock15blockStaticCtorEv = 0x2de46c
_ZN16PoweredRailBlock13getBlockStateEi = 0x2deadc
_ZN16PoweredRailBlock29convertBlockStateToLegacyDataEPK10BlockState = 0x2deb3c
_ZN16PoweredRailBlock6rotateEPK10BlockStateP8Rotation = 0x2deb94
_ZN16PoweredRailBlock6mirrorEPK10BlockStateP6Mirror = 0x2ded2c
_ZN16PoweredRailBlock26createBlockStateDefinitionEv = 0x2dee84
_ZN16PoweredRailBlock10getTextureEPK9DirectionPK10BlockState = 0x2def04
_ZN16PoweredRailBlock13registerIconsEP12IconRegister = 0x2def48
_ZN18PressurePlateBlock13getBlockStateEi = 0x2dfc9c
_ZN18PressurePlateBlock29convertBlockStateToLegacyDataEPK10BlockState = 0x2dfcd0
_ZN18PressurePlateBlock26createBlockStateDefinitionEv = 0x2dfcfc
_ZN9PrimedTnt10staticCtorEv = 0x2dfd70
_ZN15PrismarineBlock15blockStaticCtorEv = 0x2e0408
_ZN15PrismarineBlock7getNameEv = 0x2e0848
_ZN15PrismarineBlock11getMapColorEPK10BlockStateP11LevelSourceRK8BlockPos = 0x2e088c
_ZN15PrismarineBlock25getSpawnResourcesAuxValueEPK10BlockState = 0x2e0904
_ZN15PrismarineBlock29convertBlockStateToLegacyDataEPK10BlockState = 0x2e092c
_ZN15PrismarineBlock26createBlockStateDefinitionEv = 0x2e0954
_ZN15PrismarineBlock13getBlockStateEi = 0x2e09c8
_ZN15PrismarineBlock10getTextureEPK9DirectionPK10BlockState = 0x2e0a30
_ZN15PrismarineBlock13registerIconsEP12IconRegister = 0x2e0a5c
_ZN21ProtectionEnchantment4TypeC1Eiiii = 0x2e13a4
_ZNK21ProtectionEnchantment4Type7getNameEv = 0x2e13b0
_ZNK21ProtectionEnchantment4Type10getMinCostEv = 0x2e13b8
_ZNK21ProtectionEnchantment4Type12getLevelCostEv = 0x2e13c0
_ZN21ProtectionEnchantmentC1EPK6RarityPKNS_4TypeE15arrayWithLengthIPK13EquipmentSlotE = 0x2e13c8
_ZN21ProtectionEnchantment10getMinCostEi = 0x2e1428
_ZN21ProtectionEnchantment10getMaxCostEi = 0x2e146c
_ZN21ProtectionEnchantment11getMaxLevelEv = 0x2e14a4
_ZN21ProtectionEnchantment19getDamageProtectionEiPK12DamageSource = 0x2e14ac
_ZN21ProtectionEnchantment16getDescriptionIdEv = 0x2e15b0
_ZN21ProtectionEnchantment18checkCompatibilityEPK11Enchantment = 0x2e15b8
_ZN12PumpkinBlock7onPlaceEP5LevelRK8BlockPosPK10BlockState = 0x2e17a8
_ZN12PumpkinBlock8mayPlaceEP5LevelRK8BlockPos = 0x2e2878
_ZN12PumpkinBlock6rotateEPK10BlockStateP8Rotation = 0x2e2940
_ZN12PumpkinBlock6mirrorEPK10BlockStateP6Mirror = 0x2e2998
_ZN12PumpkinBlock20getStateForPlacementEP5LevelRK8BlockPosPK9DirectionfffiSt10shared_ptrI12LivingEntityE = 0x2e2a00
_ZN12PumpkinBlock13getBlockStateEi = 0x2e2a58
_ZN12PumpkinBlock29convertBlockStateToLegacyDataEPK10BlockState = 0x2e2aa4
_ZN12PumpkinBlock26createBlockStateDefinitionEv = 0x2e2b78
_ZN12PumpkinBlock10getTextureEPK9DirectionPK10BlockState = 0x2e2e1c
_ZN12PumpkinBlock13registerIconsEP12IconRegister = 0x2e2f08
_ZN15PurpurSlabBlock15blockStaticCtorEv = 0x2e32d8
_ZN15PurpurSlabBlock11DerivedInitEv = 0x2e35d4
_ZN15PurpurSlabBlock11getResourceEPK10BlockStateP6Randomi = 0x2e3708
_ZN15PurpurSlabBlock20getCloneItemInstanceEP5LevelRK8BlockPosPK10BlockState = 0x2e3718
_ZN15PurpurSlabBlock13getBlockStateEi = 0x2e3758
_ZN15PurpurSlabBlock29convertBlockStateToLegacyDataEPK10BlockState = 0x2e37f8
_ZN15PurpurSlabBlock26createBlockStateDefinitionEv = 0x2e38f0
_ZN11QuartzBlock15blockStaticCtorEv = 0x2e3a40
_ZN11QuartzBlock20getStateForPlacementEP5LevelRK8BlockPosPK9DirectionfffiSt10shared_ptrI12LivingEntityE = 0x2e3dc4
_ZN11QuartzBlock25getSpawnResourcesAuxValueEPK10BlockState = 0x2e3ec8
_ZN11QuartzBlock24getSilkTouchItemInstanceEPK10BlockState = 0x2e3f48
_ZN11QuartzBlock11getMapColorEPK10BlockStateP11LevelSourceRK8BlockPos = 0x2e400c
_ZN11QuartzBlock13getBlockStateEi = 0x2e401c
_ZN11QuartzBlock29convertBlockStateToLegacyDataEPK10BlockState = 0x2e4084
_ZN11QuartzBlock6rotateEPK10BlockStateP8Rotation = 0x2e40ac
_ZN11QuartzBlock26createBlockStateDefinitionEv = 0x2e4138
_ZN11QuartzBlock10getTextureEPK9DirectionPK10BlockState = 0x2e4230
_ZN11QuartzBlock13registerIconsEP12IconRegister = 0x2e43c8
_ZN11QuartzBlock14getRenderShapeEPK10BlockState = 0x2e480c
_ZN6Rabbit10staticCtorEv = 0x2e4814
_ZN6Rabbit14addDataWalkersEP14DataFixerUpper = 0x2e5644
_ZN6Random11nextBooleanEv = 0x2e5ea4
_ZN9RailBlock15blockStaticCtorEv = 0x2e67f0
_ZN9RailBlock13getBlockStateEi = 0x2e698c
_ZN9RailBlock29convertBlockStateToLegacyDataEPK10BlockState = 0x2e69d8
_ZN9RailBlock18GetInteractTooltipERK22BlockTooltipDataHolder = 0x2e6a00
_ZN9RailBlock6rotateEPK10BlockStateP8Rotation = 0x2e6a38
_ZN9RailBlock6mirrorEPK10BlockStateP6Mirror = 0x2e6bd0
_ZN9RailBlock26createBlockStateDefinitionEv = 0x2e6d28
_ZN9RailBlock10getTextureEPK9DirectionPK10BlockState = 0x2e6d9c
_ZN9RailBlock13registerIconsEP12IconRegister = 0x2e6de4
_ZN6RandomC1Ev = 0x2e6e84
_ZN6Random7setSeedEx = 0x2e6ecc
_ZN6RandomC1Ex = 0x2e6eec
_ZN6Random4nextEi = 0x2e6ef0
_ZN6Random12nextGaussianEv = 0x2e6f20
_ZN6Random8nextLongEv = 0x2e701c
_ZN40RandomizableLockableContainerBlockEntity12setLootTableEP16ResourceLocationx = 0x2e716c
_ZN27RandomScatteredLargeFeature10staticCtorEv = 0x2e81a4
_ZN18RareBiomeSpotLayerC1ExNSt3__110shared_ptrI5LayerEE = 0x2e9aa4
_ZN18RareBiomeSpotLayerD2Ev = 0x2e9b24
_ZN18RareBiomeSpotLayerD0Ev = 0x2e9b28
_ZN18RareBiomeSpotLayer7getAreaEiiii = 0x2e9b4c
_ZN7Recipes10staticCtorEv = 0x2e9d8c
_ZN7RecipesC1Ev = 0x2e9dc0
_ZN7Recipes15addShapedRecipeEP12ItemInstancez = 0x2eeb38
_ZN7Recipes18addShapelessRecipeEP12ItemInstancez = 0x2eec98
_ZN7Recipes27buildRecipeIngredientsArrayEv = 0x2eedc4
_ZN7Recipes15addShapedRecipeEP12ItemInstanceiP10_va_struct = 0x2eee98
_ZN17RedSandStoneBlock15blockStaticCtorEv = 0x2f0d04
_ZN17RedSandStoneBlock25getSpawnResourcesAuxValueEPK10BlockState = 0x2f10bc
_ZN17RedSandStoneBlock13getBlockStateEi = 0x2f1114
_ZN17RedSandStoneBlock29convertBlockStateToLegacyDataEPK10BlockState = 0x2f117c
_ZN17RedSandStoneBlock26createBlockStateDefinitionEv = 0x2f11a4
_ZN17RedSandStoneBlock10getTextureEPK9DirectionPK10BlockState = 0x2f1298
_ZN17RedSandStoneBlock13registerIconsEP12IconRegister = 0x2f1338
_ZN17RedstoneLampBlock7onPlaceEP5LevelRK8BlockPosPK10BlockState = 0x2f16a0
_ZN17RedstoneLampBlock15neighborChangedEPK10BlockStateP5LevelRK8BlockPosP5BlockRK8BlockPos = 0x2f1760
_ZN17RedstoneLampBlock4tickEP5LevelRK8BlockPosPK10BlockStateP6Random = 0x2f1830
_ZN17RedstoneLampBlock11getResourceEPK10BlockStateP6Randomi = 0x2f18bc
_ZN17RedstoneLampBlock20getCloneItemInstanceEP5LevelRK8BlockPosPK10BlockState = 0x2f18cc
_ZN17RedstoneLampBlock24getSilkTouchItemInstanceEPK10BlockState = 0x2f1918
_ZN17RedstoneLampBlock13registerIconsEP12IconRegister = 0x2f1958
_ZN16RedStoneOreBlock12getTickDelayEP5Level = 0x2f1a5c
_ZN16RedStoneOreBlock6attackEP5LevelRK8BlockPosSt10shared_ptrI6PlayerE = 0x2f1a64
_ZN16RedStoneOreBlock6stepOnEP5LevelRK8BlockPosSt10shared_ptrI6EntityE = 0x2f1adc
_ZN16RedStoneOreBlock7TestUseEv = 0x2f1b54
_ZN16RedStoneOreBlock3useEP5LevelRK8BlockPosPK10BlockStateSt10shared_ptrI6PlayerEN15InteractionHand16EInteractionHandEPK9Directionfffb = 0x2f1b6c
_ZN16RedStoneOreBlock4tickEP5LevelRK8BlockPosPK10BlockStateP6Random = 0x2f2040
_ZN16RedStoneOreBlock11getResourceEPK10BlockStateP6Randomi = 0x2f20c0
_ZN16RedStoneOreBlock28getResourceCountForLootBonusEiP6Random = 0x2f20d0
_ZN16RedStoneOreBlock16getResourceCountEP6Random = 0x2f211c
_ZN16RedStoneOreBlock14spawnResourcesEP5LevelRK8BlockPosPK10BlockStatefi = 0x2f2140
_ZN16RedStoneOreBlock11animateTickEPK10BlockStateP5LevelRK8BlockPosP6Random = 0x2f21e8
_ZN16RedStoneOreBlock18GetInteractTooltipERK22BlockTooltipDataHolder = 0x2f2200
_ZN16RedStoneOreBlock24getSilkTouchItemInstanceEPK10BlockState = 0x2f2220
_ZN16RedStoneOreBlock20getCloneItemInstanceEP5LevelRK8BlockPosPK10BlockState = 0x2f2260
_ZN16RedStoneOreBlock15shouldBlockTickEP5LevelRK8BlockPosPK10BlockState = 0x2f22ac
_ZN18RedstoneTorchBlock12getTickDelayEP5Level = 0x2f2840
_ZN18RedstoneTorchBlock7onPlaceEP5LevelRK8BlockPosPK10BlockState = 0x2f2848
_ZN18RedstoneTorchBlock8onRemoveEP5LevelRK8BlockPosPK10BlockState = 0x2f28d0
_ZN18RedstoneTorchBlock9getSignalEPK10BlockStateP11LevelSourceRK8BlockPosPK9Direction = 0x2f2958
_ZN18RedstoneTorchBlock10randomTickEP5LevelRK8BlockPosPK10BlockStateP6Random = 0x2f2a1c
_ZN18RedstoneTorchBlock4tickEP5LevelRK8BlockPosPK10BlockStateP6Random = 0x2f2a20
_ZN18RedstoneTorchBlock15neighborChangedEPK10BlockStateP5LevelRK8BlockPosP5BlockRK8BlockPos = 0x2f2e04
_ZN18RedstoneTorchBlock15getDirectSignalEPK10BlockStateP11LevelSourceRK8BlockPosPK9Direction = 0x2f2ec0
_ZN18RedstoneTorchBlock11getResourceEPK10BlockStateP6Randomi = 0x2f2ee8
_ZN18RedstoneTorchBlock14isSignalSourceEPK10BlockState = 0x2f2ef8
_ZN18RedstoneTorchBlock11animateTickEPK10BlockStateP5LevelRK8BlockPosP6Random = 0x2f2f00
_ZN18RedstoneTorchBlock20getCloneItemInstanceEP5LevelRK8BlockPosPK10BlockState = 0x2f3080
_ZN18RedstoneTorchBlock10isMatchingEP5Block = 0x2f30c0
_ZN17RedStoneWireBlock15blockStaticCtorEv = 0x2f30f0
_ZN17RedStoneWireBlock8getShapeEPK10BlockStateP11LevelSourceRK8BlockPos = 0x2f3640
_ZN17RedStoneWireBlock31fillVirtualBlockStatePropertiesEPK10BlockStateP11LevelSourceRK8BlockPos = 0x2f3868
_ZN17RedStoneWireBlock11getClipAABBEPK10BlockStateP11LevelSourceRK8BlockPos = 0x2f3c48
_ZNK17RedStoneWireBlock13isSolidRenderEPK10BlockState = 0x2f3c58
_ZN17RedStoneWireBlock12isCubeShapedEPK10BlockState = 0x2f3c60
_ZN17RedStoneWireBlock8mayPlaceEP5LevelRK8BlockPos = 0x2f3c68
_ZN17RedStoneWireBlock7onPlaceEP5LevelRK8BlockPosPK10BlockState = 0x2f46c0
_ZN17RedStoneWireBlock8onRemoveEP5LevelRK8BlockPosPK10BlockState = 0x2f4854
_ZN17RedStoneWireBlock15neighborChangedEPK10BlockStateP5LevelRK8BlockPosP5BlockRK8BlockPos = 0x2f49e0
_ZN17RedStoneWireBlock11getResourceEPK10BlockStateP6Randomi = 0x2f4a94
_ZN17RedStoneWireBlock15getDirectSignalEPK10BlockStateP11LevelSourceRK8BlockPosPK9Direction = 0x2f4aa4
_ZN17RedStoneWireBlock9getSignalEPK10BlockStateP11LevelSourceRK8BlockPosPK9Direction = 0x2f4ad0
_ZN17RedStoneWireBlock14isSignalSourceEPK10BlockState = 0x2f4fc4
_ZN17RedStoneWireBlock11animateTickEPK10BlockStateP5LevelRK8BlockPosP6Random = 0x2f50b4
_ZN17RedStoneWireBlock20getCloneItemInstanceEP5LevelRK8BlockPosPK10BlockState = 0x2f523c
_ZN17RedStoneWireBlock14getRenderLayerEv = 0x2f527c
_ZN17RedStoneWireBlock13getBlockStateEi = 0x2f5284
_ZN17RedStoneWireBlock29convertBlockStateToLegacyDataEPK10BlockState = 0x2f52b4
_ZN17RedStoneWireBlock6rotateEPK10BlockStateP8Rotation = 0x2f52cc
_ZN17RedStoneWireBlock6mirrorEPK10BlockStateP6Mirror = 0x2f543c
_ZN17RedStoneWireBlock26createBlockStateDefinitionEv = 0x2f5504
_ZN17RedStoneWireBlock17getBlockFaceShapeEP11LevelSourcePK10BlockStateRK8BlockPosPK9Direction = 0x2f55b8
_ZN17RedStoneWireBlock13registerIconsEP12IconRegister = 0x2f561c
_ZN17RedStoneWireBlock14getRenderShapeEPK10BlockState = 0x2f5a78
_ZN10ReedsBlockC1Ev = 0x2f5a80
_ZN10ReedsBlock8getShapeEPK10BlockStateP11LevelSourceRK8BlockPos = 0x2f5b0c
_ZN10ReedsBlock4tickEP5LevelRK8BlockPosPK10BlockStateP6Random = 0x2f5b1c
_ZN10ReedsBlock10checkAliveEP5LevelRK8BlockPosPK10BlockState = 0x2f5cc0
_ZN10ReedsBlock8mayPlaceEP5LevelRK8BlockPos = 0x2f5d38
_ZN10ReedsBlock15neighborChangedEPK10BlockStateP5LevelRK8BlockPosP5BlockS7_ = 0x2f5ea4
_ZN10ReedsBlock10canSurviveEP5LevelRK8BlockPos = 0x2f5eb8
_ZN10ReedsBlock11getClipAABBEPK10BlockStateP11LevelSourceRK8BlockPos = 0x2f5ec4
_ZN10ReedsBlock11getResourceEPK10BlockStateP6Randomi = 0x2f5ed4
_ZNK10ReedsBlock13isSolidRenderEPK10BlockState = 0x2f5ee4
_ZN10ReedsBlock12isCubeShapedEPK10BlockState = 0x2f5eec
_ZN10ReedsBlock20getCloneItemInstanceEP5LevelRK8BlockPosPK10BlockState = 0x2f5ef4
_ZN10ReedsBlock8getColorEP11LevelSourceRK8BlockPosi = 0x2f5f34
_ZN10ReedsBlock14getRenderLayerEv = 0x2f5f3c
_ZN10ReedsBlock13getBlockStateEi = 0x2f5f44
_ZN10ReedsBlock29convertBlockStateToLegacyDataEPK10BlockState = 0x2f5f74
_ZN10ReedsBlock26createBlockStateDefinitionEv = 0x2f5f8c
_ZN10ReedsBlock17getBlockFaceShapeEP11LevelSourcePK10BlockStateRK8BlockPosPK9Direction = 0x2f6000
_ZN10ReedsBlock15shouldBlockTickEP5LevelRK8BlockPosPK10BlockState = 0x2f6008
_ZN10ReedsBlock14getRenderShapeEPK10BlockState = 0x2f6054
_ZN10ReedsBlock18GetInteractTooltipERK22BlockTooltipDataHolder = 0x2f6320
_ZN6RegionD1Ev = 0x2f6644
_ZN17array2DWithLengthIP10LevelChunkE3getEi = 0x2f66e0
_ZN6RegionD0Ev = 0x2f66ec
_ZN6RegionC1EP5LevelRK8BlockPosS4_i = 0x2f6710
_ZN17array2DWithLengthIP10LevelChunkEC1Ejj = 0x2f691c
_ZN6Region10isAllEmptyEv = 0x2f6bcc
_ZN6Region14getBlockEntityERK8BlockPos = 0x2f6bd4
_ZN6Region13getBrightnessERK8BlockPosi = 0x2f6c68
_ZN6Region13getLightColorERK8BlockPosii = 0x2f6cac
_ZN6Region13getBrightnessERK8BlockPos = 0x2f6e88
_ZN6Region13getBlockStateERK8BlockPos = 0x2f7080
_ZN6Region10getBlockIdEiii = 0x2f71ec
_ZN6Region12getBlockDataEiii = 0x2f7324
_ZN6Region8getBlockERK8BlockPos = 0x2f7470
_ZN6Region14getBiomeSourceEv = 0x2f75e4
_ZN6Region8getBiomeERK8BlockPos = 0x2f75f4
_ZN6Region12isEmptyBlockERK8BlockPos = 0x2f7690
_ZN6Region13getBrightnessEN10LightLayer7varietyERK8BlockPos = 0x2f76cc
_ZN6Region17getMaxBuildHeightEv = 0x2f7784
_ZN6Region15getDirectSignalERK8BlockPosPK9Direction = 0x2f778c
_ZN6Region16getGeneratorTypeEv = 0x2f77d8
__ct__10RegionFileFP15ConsoleSaveFileP4File = 0x2f77e8
writeAllOffsets__10RegionFileFv = 0x2f7b94
__dt__10RegionFileFv = 0x2f7c5c
getChunkDataInputStream__10RegionFileFiT1Pb = 0x2f7cb8
outOfBounds__10RegionFileFiT1 = 0x2f7f30
getOffset__10RegionFileFiT1 = 0x2f7f40
getChunkDataOutputStream__10RegionFileFiT1b = 0x2f7f50
_ZN16RegionHillsLayerC1ExNSt3__110shared_ptrI5LayerEES1_IS2_E = 0x2f8ef0
_ZN16RegionHillsLayer7getAreaEiiii = 0x2f8fb4
_ZN23RemoveTooMuchOceanLayerC1ExNSt3__110shared_ptrI5LayerEE = 0x2f9550
_ZN23RemoveTooMuchOceanLayerD2Ev = 0x2f95d0
_ZN23RemoveTooMuchOceanLayerD0Ev = 0x2f95d4
_ZN23RemoveTooMuchOceanLayer7getAreaEiiii = 0x2f95f8
_ZN13RepeaterBlock7getNameEv = 0x2fa4dc
_ZN13RepeaterBlock31fillVirtualBlockStatePropertiesEPK10BlockStateP11LevelSourceRK8BlockPos = 0x2fa520
_ZN13RepeaterBlock6rotateEPK10BlockStateP8Rotation = 0x2fa56c
_ZN13RepeaterBlock6mirrorEPK10BlockStateP6Mirror = 0x2fa5c4
_ZN13RepeaterBlock3useEP5LevelRK8BlockPosPK10BlockStateSt10shared_ptrI6PlayerEN15InteractionHand16EInteractionHandEPK9Directionfffb = 0x2fa624
_ZN13RepeaterBlock11getResourceEPK10BlockStateP6Randomi = 0x2fa844
_ZN13RepeaterBlock20getCloneItemInstanceEP5LevelRK8BlockPosPK10BlockState = 0x2fa854
_ZN13RepeaterBlock11animateTickEPK10BlockStateP5LevelRK8BlockPosP6Random = 0x2fa8c0
_ZN13RepeaterBlock8onRemoveEP5LevelRK8BlockPosPK10BlockState = 0x2faa84
_ZN13RepeaterBlock13getBlockStateEi = 0x2faad0
_ZN13RepeaterBlock29convertBlockStateToLegacyDataEPK10BlockState = 0x2fab48
_ZN13RepeaterBlock18GetInteractTooltipERK22BlockTooltipDataHolder = 0x2faba0
_ZN13RepeaterBlock26createBlockStateDefinitionEv = 0x2fabc8
_ZN13RepeaterBlock7TestUseEv = 0x2fac5c
_ZN13RepeaterBlock14getRenderShapeEPK10BlockState = 0x2fac64
_ZN10RiverBiomeC1EN5Biome9EBiomeIDsEPN5Biome15BiomePropertiesE = 0x2fc29c
_ZN14RiverInitLayerC1ExNSt3__110shared_ptrI5LayerEE = 0x2fc338
_ZN14RiverInitLayer7getAreaEiiii = 0x2fc3b8
_ZN10RiverLayerC1ExNSt3__110shared_ptrI5LayerEE = 0x2fc518
_ZN10RiverLayer7getAreaEiiii = 0x2fc598
_ZN15RiverMixerLayerC1ExNSt3__110shared_ptrI5LayerEES1_IS2_E = 0x2fc764
_ZN15RiverMixerLayer4initEx = 0x2fc84c
_ZN15RiverMixerLayer7getAreaEiiii = 0x2fc898
_ZN15RoofTreeFeature10staticCtorEv = 0x2fcaac
_ZN18RotatedPillarBlock15blockStaticCtorEv = 0x2fdf50
_ZN18RotatedPillarBlock6rotateEPK10BlockStateP8Rotation = 0x2fe2dc
_ZN18RotatedPillarBlock13getBlockStateEi = 0x2fe364
_ZN18RotatedPillarBlock29convertBlockStateToLegacyDataEPK10BlockState = 0x2fe3c0
_ZN18RotatedPillarBlock26createBlockStateDefinitionEv = 0x2fe420
_ZN18RotatedPillarBlock24getSilkTouchItemInstanceEPK10BlockState = 0x2fe494
_ZN18RotatedPillarBlock20getStateForPlacementEP5LevelRK8BlockPosPK9DirectionfffiSt10shared_ptrI12LivingEntityE = 0x2fe4e4
_ZN18RotatedPillarBlock10getTextureEPK9DirectionPK10BlockState = 0x2fe5bc
_ZN18RotatedPillarBlock14getRenderShapeEPK10BlockState = 0x2fe6d0
_ZN9SandBlock15blockStaticCtorEv = 0x2fef68
_ZN9SandBlock25getSpawnResourcesAuxValueEPK10BlockState = 0x2ff404
_ZN9SandBlock7Variant7getDataEv = 0x2ff454
_ZN9SandBlock11getMapColorEPK10BlockStateP11LevelSourceRK8BlockPos = 0x2ff45c
_ZN9SandBlock13getBlockStateEi = 0x2ff484
_ZN9SandBlock29convertBlockStateToLegacyDataEPK10BlockState = 0x2ff4ec
_ZN9SandBlock26createBlockStateDefinitionEv = 0x2ff514
_ZN9SandBlock10getTextureEPK9DirectionPK10BlockState = 0x2ff670
_ZN9SandBlock13registerIconsEP12IconRegister = 0x2ff6ac
__ct__11SandFeatureFP5Blocki = 0x2ff73c
_ZN14SandStoneBlock15blockStaticCtorEv = 0x2ffa3c
_ZN14SandStoneBlock25getSpawnResourcesAuxValueEPK10BlockState = 0x2ffdd0
_ZN14SandStoneBlock11getMapColorEPK10BlockStateP11LevelSourceRK8BlockPos = 0x2ffe28
_ZN14SandStoneBlock13getBlockStateEi = 0x2ffe38
_ZN14SandStoneBlock29convertBlockStateToLegacyDataEPK10BlockState = 0x2ffea0
_ZN14SandStoneBlock26createBlockStateDefinitionEv = 0x2ffec8
_ZN14SandStoneBlock10getTextureEPK9DirectionPK10BlockState = 0x2fffbc
_ZN14SandStoneBlock13registerIconsEP12IconRegister = 0x30005c
_ZN12SaplingBlock15blockStaticCtorEv = 0x30010c
_ZN12SaplingBlock7getNameEv = 0x300220
_ZN12SaplingBlock8getShapeEPK10BlockStateP11LevelSourceRK8BlockPos = 0x300264
_ZN12SaplingBlock4tickEP5LevelRK8BlockPosPK10BlockStateP6Random = 0x300274
_ZN12SaplingBlock25getSpawnResourcesAuxValueEPK10BlockState = 0x300e60
_ZN12SaplingBlock13getBlockStateEi = 0x300eec
_ZN12SaplingBlock29convertBlockStateToLegacyDataEPK10BlockState = 0x300f4c
_ZN12SaplingBlock18GetInteractTooltipERK22BlockTooltipDataHolder = 0x300f9c
_ZN12SaplingBlock26createBlockStateDefinitionEv = 0x30100c
_ZN12SaplingBlock10getTextureEPK9DirectionPK10BlockState = 0x30108c
_ZN12SaplingBlock13registerIconsEP12IconRegister = 0x3010c8
_ZN12SaplingBlock16getDescriptionIdEi = 0x301188
_ZN12SavannaBiomeC1EN5Biome9EBiomeIDsEPN5Biome15BiomePropertiesE = 0x3011c8
_ZN18SavannaTreeFeature10staticCtorEv = 0x3014c8
_ZN9SavedDataC2ERKNSt3__112basic_stringIwNS0_11char_traitsIwEENS0_9allocatorIwEEEE = 0x3023d0
_ZN9SavedData8setDirtyEv = 0x302410
_ZN9SavedData8setDirtyEb = 0x302418
_ZN9SavedData7isDirtyEv = 0x302424
SavedDataStorage__SavedDataStorage = 0x302460
SavedDataStorage__loadAuxValues = 0x302858
SavedDataStorage__get = 0x302ce0
SavedDataStorage__set = 0x3035d4
SavedDataStorage__save = 0x3039f0
SavedDataStorage__getFreeAuxValueFor = 0x303bf4
_ZN22ScatteredFeaturePieces18JunglePyramidPiece10staticCtorEv = 0x309eec
_ZN16ScoreboardPacketC1Ev = 0x30d5e8
_ZN16ScoreboardPacketD2Ev = 0x30d66c
_ZN16ScoreboardPacketD0Ev = 0x30d6b8
_ZN16ScoreboardPacket4readEP15DataInputStream = 0x30d6dc
_ZN16ScoreboardPacket5writeEP16DataOutputStream = 0x30d7d0
_ZN16ScoreboardPacket6handleEP14PacketListener = 0x30d814
_ZN16ScoreboardPacket16getEstimatedSizeEv = 0x30d864
_ZN15SeaLanternBlock16getResourceCountEP6Random = 0x30dee8
_ZN15SeaLanternBlock28getResourceCountForLootBonusEiP6Random = 0x30df0c
_ZN15SeaLanternBlock11getResourceEPK10BlockStateP6Randomi = 0x30df60
_ZN15SeaLanternBlock11getMapColorEPK10BlockStateP11LevelSourceRK8BlockPos = 0x30df70
_ZN15SeaLanternBlock15isSilkTouchableEv = 0x30df80
_ZN7SensingC1Ev = 0x30e334
_ZN36ServerboundAcceptTeleportationPacketC1Ev = 0x30e3a4
_ZN36ServerboundAcceptTeleportationPacket4readEP15DataInputStream = 0x30e414
_ZN36ServerboundAcceptTeleportationPacket5writeEP16DataOutputStream = 0x30e43c
_ZN36ServerboundAcceptTeleportationPacket6handleEP14PacketListener = 0x30e44c
_ZN33ServerboundChatAutoCompletePacketC1Ev = 0x30e4a4
_ZN33ServerboundChatAutoCompletePacketD2Ev = 0x30e4e4
_ZN33ServerboundChatAutoCompletePacketD0Ev = 0x30e530
_ZN33ServerboundChatAutoCompletePacket4readEP15DataInputStream = 0x30e554
_ZN33ServerboundChatAutoCompletePacket5writeEP16DataOutputStream = 0x30e658
_ZN33ServerboundChatAutoCompletePacket6handleEP14PacketListener = 0x30e6d4
_ZN21ServerboundChatPacketC1Ev = 0x30e724
_ZN21ServerboundChatPacketD2Ev = 0x30e760
_ZN21ServerboundChatPacketD0Ev = 0x30e7a4
_ZN21ServerboundChatPacket4readEP15DataInputStream = 0x30e7c8
_ZN21ServerboundChatPacket5writeEP16DataOutputStream = 0x30e86c
_ZN21ServerboundChatPacket6handleEP14PacketListener = 0x30e874
_ZN30ServerboundClientCommandPacketC1Ev = 0x30e8c4
_ZN30ServerboundClientCommandPacket4readEP15DataInputStream = 0x30e938
_ZN30ServerboundClientCommandPacket5writeEP16DataOutputStream = 0x30e968
_ZN30ServerboundClientCommandPacket6handleEP14PacketListener = 0x30e980
_ZN30ServerboundClientCommandPacket16getEstimatedSizeEv = 0x30e9f8
_ZN29ServerboundContainerAckPacketC1Ev = 0x30ea08
_ZN29ServerboundContainerAckPacketD2Ev = 0x30ea3c
_ZN29ServerboundContainerAckPacketD0Ev = 0x30ea64
_ZN29ServerboundContainerAckPacket6handleEP14PacketListener = 0x30eadc
_ZN29ServerboundContainerAckPacket4readEP15DataInputStream = 0x30eb2c
_ZN29ServerboundContainerAckPacket5writeEP16DataOutputStream = 0x30eb90
_ZN37ServerboundContainerButtonClickPacketC1Ev = 0x30ebf8
_ZN37ServerboundContainerButtonClickPacket6handleEP14PacketListener = 0x30ec74
_ZN37ServerboundContainerButtonClickPacket4readEP15DataInputStream = 0x30ecc4
_ZN37ServerboundContainerButtonClickPacket5writeEP16DataOutputStream = 0x30ed14
_ZN37ServerboundContainerButtonClickPacket16getEstimatedSizeEv = 0x30ed58
_ZN31ServerboundContainerClickPacketC1Ev = 0x30ed70
_ZN31ServerboundContainerClickPacketD2Ev = 0x30eee0
_ZN31ServerboundContainerClickPacketD0Ev = 0x30ef54
_ZN31ServerboundContainerClickPacket6handleEP14PacketListener = 0x30ef78
_ZN31ServerboundContainerClickPacket4readEP15DataInputStream = 0x30efc8
_ZN31ServerboundContainerClickPacket5writeEP16DataOutputStream = 0x30f0f0
_ZN31ServerboundContainerClickPacket16getEstimatedSizeEv = 0x30f1d0
_ZN31ServerboundContainerClosePacketC1Ev = 0x30f2b8
_ZN31ServerboundContainerClosePacketD2Ev = 0x30f2ec
_ZN31ServerboundContainerClosePacketD0Ev = 0x30f314
_ZN31ServerboundContainerClosePacket6handleEP14PacketListener = 0x30f374
_ZN31ServerboundContainerClosePacket4readEP15DataInputStream = 0x30f3c4
_ZN31ServerboundContainerClosePacket5writeEP16DataOutputStream = 0x30f3f8
_ZN30ServerboundCustomPayloadPacketC1Ev = 0x30f410
_ZN30ServerboundCustomPayloadPacketD2Ev = 0x30f450
_ZN30ServerboundCustomPayloadPacketD0Ev = 0x30f49c
_ZN30ServerboundCustomPayloadPacket4readEP15DataInputStream = 0x30f52c
_ZN30ServerboundCustomPayloadPacket5writeEP16DataOutputStream = 0x30f644
_ZN30ServerboundCustomPayloadPacket6handleEP14PacketListener = 0x30f6a4
_ZN25ServerboundInteractPacketC1Ev = 0x30f70c
_ZN25ServerboundInteractPacketD2Ev = 0x30f864
_ZN25ServerboundInteractPacketD0Ev = 0x30f8a8
_ZN25ServerboundInteractPacket4readEP15DataInputStream = 0x30f8cc
_ZN25ServerboundInteractPacket5writeEP16DataOutputStream = 0x30f994
_ZN25ServerboundInteractPacket6handleEP14PacketListener = 0x30fa60
_ZN25ServerboundInteractPacket16getEstimatedSizeEv = 0x30fab0
_ZN26ServerboundKeepAlivePacketC1Ev = 0x30fae8
_ZN26ServerboundKeepAlivePacketD2Ev = 0x30fb20
_ZN26ServerboundKeepAlivePacketD0Ev = 0x30fb48
_ZN26ServerboundKeepAlivePacket6handleEP14PacketListener = 0x30fb6c
_ZN26ServerboundKeepAlivePacket4readEP15DataInputStream = 0x30fbbc
_ZN26ServerboundKeepAlivePacket5writeEP16DataOutputStream = 0x30fbe4
_ZN27ServerboundMovePlayerPacketC1Ev = 0x30fbf4
_ZN27ServerboundMovePlayerPacket6handleEP14PacketListener = 0x30fc94
_ZN27ServerboundMovePlayerPacket4readEP15DataInputStream = 0x30fce4
_ZN27ServerboundMovePlayerPacket5writeEP16DataOutputStream = 0x30fd24
_ZN27ServerboundMovePlayerPacket16getEstimatedSizeEv = 0x30fd44
_ZN27ServerboundMovePlayerPacket16canBeInvalidatedEv = 0x30fd4c
_ZN27ServerboundMovePlayerPacket15isInvalidatedByESt10shared_ptrI6PacketE = 0x30fd54
_ZN27ServerboundMovePlayerPacket6PosRotC1Ev = 0x30fdb4
_ZN27ServerboundMovePlayerPacket6PosRot4readEP15DataInputStream = 0x30fe80
_ZN27ServerboundMovePlayerPacket6PosRot5writeEP16DataOutputStream = 0x30ff0c
_ZN27ServerboundMovePlayerPacket6PosRot16getEstimatedSizeEv = 0x30ff98
_ZN27ServerboundMovePlayerPacket3PosC1Ev = 0x30ffa0
_ZN27ServerboundMovePlayerPacket3Pos4readEP15DataInputStream = 0x310050
_ZN27ServerboundMovePlayerPacket3Pos5writeEP16DataOutputStream = 0x3100b4
_ZN27ServerboundMovePlayerPacket3Pos16getEstimatedSizeEv = 0x310118
_ZN27ServerboundMovePlayerPacket3RotC1Ev = 0x310120
_ZN27ServerboundMovePlayerPacket3Rot4readEP15DataInputStream = 0x3101c0
_ZN27ServerboundMovePlayerPacket3Rot5writeEP16DataOutputStream = 0x310210
_ZN27ServerboundMovePlayerPacket3Rot16getEstimatedSizeEv = 0x310260
_ZN28ServerboundMoveVehiclePacketC1Ev = 0x310268
_ZN28ServerboundMoveVehiclePacket4readEP15DataInputStream = 0x310310
_ZN28ServerboundMoveVehiclePacket5writeEP16DataOutputStream = 0x310394
_ZN28ServerboundMoveVehiclePacket6handleEP14PacketListener = 0x310414
_ZN27ServerboundPaddleBoatPacketC1Ev = 0x31048c
_ZN27ServerboundPaddleBoatPacket4readEP15DataInputStream = 0x31050c
_ZN27ServerboundPaddleBoatPacket5writeEP16DataOutputStream = 0x31055c
_ZN27ServerboundPaddleBoatPacket6handleEP14PacketListener = 0x3105a0
_ZN32ServerboundPlayerAbilitiesPacketC1Ev = 0x310600
_ZN32ServerboundPlayerAbilitiesPacket4readEP15DataInputStream = 0x310704
_ZN32ServerboundPlayerAbilitiesPacket5writeEP16DataOutputStream = 0x31079c
_ZN32ServerboundPlayerAbilitiesPacket6handleEP14PacketListener = 0x310864
_ZN29ServerboundPlayerActionPacketC1Ev = 0x3108b4
_ZN29ServerboundPlayerActionPacket4readEP15DataInputStream = 0x310970
_ZN29ServerboundPlayerActionPacket5writeEP16DataOutputStream = 0x3109e4
_ZN29ServerboundPlayerActionPacket6handleEP14PacketListener = 0x310a58
_ZN29ServerboundPlayerActionPacket16getEstimatedSizeEv = 0x310aa8
_ZN29ServerboundPlayerActionPacket9getActionEv = 0x310ac8
_ZN30ServerboundPlayerCommandPacketC1Ev = 0x310ad8
_ZN30ServerboundPlayerCommandPacket4readEP15DataInputStream = 0x310bc4
_ZN30ServerboundPlayerCommandPacket5writeEP16DataOutputStream = 0x310c10
_ZN30ServerboundPlayerCommandPacket6handleEP14PacketListener = 0x310c58
_ZN30ServerboundPlayerCommandPacket16getEstimatedSizeEv = 0x310ca8
_ZN28ServerboundPlayerInputPacketC1Ev = 0x310cc0
_ZN28ServerboundPlayerInputPacket4readEP15DataInputStream = 0x310d60
_ZN28ServerboundPlayerInputPacket5writeEP16DataOutputStream = 0x310dc8
_ZN28ServerboundPlayerInputPacket6handleEP14PacketListener = 0x310e30
_ZN28ServerboundPlayerInputPacket16getEstimatedSizeEv = 0x310e80
_ZN25ServerboundPreLoginPacketC1Ev = 0x310ea8
_ZN25ServerboundPreLoginPacket4readEP15DataInputStream = 0x310f48
_ZN25ServerboundPreLoginPacket5writeEP16DataOutputStream = 0x311000
_ZN25ServerboundPreLoginPacket6handleEP14PacketListener = 0x31103c
_ZN25ServerboundPreLoginPacket16getEstimatedSizeEv = 0x31108c
_ZN29ServerboundResourcePackPacketC1Ev = 0x3110ac
_ZN29ServerboundResourcePackPacketD2Ev = 0x3110e0
_ZN29ServerboundResourcePackPacketD0Ev = 0x311108
_ZN29ServerboundResourcePackPacket4readEP15DataInputStream = 0x31112c
_ZN29ServerboundResourcePackPacket5writeEP16DataOutputStream = 0x31115c
_ZN29ServerboundResourcePackPacket6handleEP14PacketListener = 0x311174
_ZN31ServerboundSetCarriedItemPacketC1Ev = 0x3111c4
_ZN31ServerboundSetCarriedItemPacketD2Ev = 0x3111f8
_ZN31ServerboundSetCarriedItemPacketD0Ev = 0x311220
_ZN31ServerboundSetCarriedItemPacketC1Ei = 0x311244
_ZN31ServerboundSetCarriedItemPacket4readEP15DataInputStream = 0x311280
_ZN31ServerboundSetCarriedItemPacket5writeEP16DataOutputStream = 0x3112b4
_ZN31ServerboundSetCarriedItemPacket6handleEP14PacketListener = 0x3112cc
_ZN31ServerboundSetCarriedItemPacket14getCarriedItemEv = 0x31131c
_ZN36ServerboundSetCreativeModeSlotPacketC1Ev = 0x311324
_ZN36ServerboundSetCreativeModeSlotPacket6handleEP14PacketListener = 0x311410
_ZN36ServerboundSetCreativeModeSlotPacket4readEP15DataInputStream = 0x311460
_ZN36ServerboundSetCreativeModeSlotPacket5writeEP16DataOutputStream = 0x3114c0
_ZN36ServerboundSetCreativeModeSlotPacket16getEstimatedSizeEv = 0x31151c
_ZN27ServerboundSignUpdatePacketC1Ev = 0x311538
_ZN27ServerboundSignUpdatePacketD2Ev = 0x31157c
_ZN27ServerboundSignUpdatePacketD0Ev = 0x3115f4
_ZN27ServerboundSignUpdatePacket4readEP15DataInputStream = 0x3116e0
_ZN27ServerboundSignUpdatePacket5writeEP16DataOutputStream = 0x311964
_ZN27ServerboundSignUpdatePacket6handleEP14PacketListener = 0x3119dc
_ZN22ServerboundSwingPacketC1Ev = 0x311a4c
_ZN22ServerboundSwingPacketC1EN15InteractionHand16EInteractionHandE = 0x311a84
_ZN22ServerboundSwingPacket4readEP15DataInputStream = 0x311ac0
_ZN22ServerboundSwingPacket5writeEP16DataOutputStream = 0x311af0
_ZN22ServerboundSwingPacket6handleEP14PacketListener = 0x311b08
_ZN22ServerboundSwingPacket7getHandEv = 0x311b58
_ZN33ServerboundTeleportToEntityPacketC1Ev = 0x311b60
_ZN33ServerboundTeleportToEntityPacketD2Ev = 0x311bd4
_ZN33ServerboundTeleportToEntityPacketD0Ev = 0x311bfc
_ZN33ServerboundTeleportToEntityPacket4readEP15DataInputStream = 0x311c20
_ZN33ServerboundTeleportToEntityPacket5writeEP16DataOutputStream = 0x311c78
_ZN33ServerboundTeleportToEntityPacket6handleEP14PacketListener = 0x311cc8
_ZN26ServerboundUseItemOnPacketC1Ev = 0x311d64
_ZN26ServerboundUseItemOnPacket4readEP15DataInputStream = 0x311e2c
_ZN26ServerboundUseItemOnPacket5writeEP16DataOutputStream = 0x311ecc
_ZN26ServerboundUseItemOnPacket6handleEP14PacketListener = 0x311f68
_ZN24ServerboundUseItemPacketC1Ev = 0x311ff0
_ZN24ServerboundUseItemPacket4readEP15DataInputStream = 0x312064
_ZN24ServerboundUseItemPacket5writeEP16DataOutputStream = 0x312098
_ZN24ServerboundUseItemPacket6handleEP14PacketListener = 0x3120b0
_ZN24ServerboundUseItemPacket16getEstimatedSizeEv = 0x312100
_ZN24ServerGamePacketListener20handleUpdateProgressESt10shared_ptrI20UpdateProgressPacketE = 0x312110
_ZN24ServerGamePacketListener19handleTextureChangeESt10shared_ptrI19TextureChangePacketE = 0x312168
_ZN24ServerGamePacketListener30handleTextureAndGeometryChangeESt10shared_ptrI30TextureAndGeometryChangePacketE = 0x3121c0
_ZN24ServerGamePacketListener34handleUpdateGameRuleProgressPacketESt10shared_ptrI28UpdateGameRuleProgressPacketE = 0x312218
_ZN24ServerGamePacketListener8handleXZESt10shared_ptrI8XZPacketE = 0x312270
_ZN24ServerGamePacketListener22handleScoreboardPacketESt10shared_ptrI16ScoreboardPacketE = 0x3122c8
_ZN24ServerGamePacketListener14handleGameModeESt10shared_ptrI14GameModePacketE = 0x312320
_ZN24ServerGamePacketListener19handleMapSelectInfoESt10shared_ptrI19MapSelectInfoPacketE = 0x312378
_ZN24ServerGamePacketListener17handlePlayerReadyESt10shared_ptrI17PlayerReadyPacketE = 0x3123d0
_ZN24ServerGamePacketListener13handlePowerupESt10shared_ptrI24ClientboundPowerupPacketE = 0x312480
_ZN24ServerGamePacketListener21handleDamageIndicatorESt10shared_ptrI32ClientboundDamageIndicatorPacketE = 0x3124d8
_ZN24ServerGamePacketListener40handleMiniGamePlayerSettingsUpdatePacketESt10shared_ptrI39ClientboundMGPlayerSettingsUpdatePacketE = 0x312530
_ZN24ServerGamePacketListener19handleClientCommandESt10shared_ptrI30ServerboundClientCommandPacketE = 0x312588
_ZN24ServerGamePacketListener23handleClientInformationESt10shared_ptrI34ServerboundClientInformationPacketE = 0x3125e0
_ZN24ServerGamePacketListener26handleContainerButtonClickESt10shared_ptrI37ServerboundContainerButtonClickPacketE = 0x312638
_ZN24ServerGamePacketListener20handleContainerClickESt10shared_ptrI31ServerboundContainerClickPacketE = 0x312690
_ZN24ServerGamePacketListener14handleInteractESt10shared_ptrI25ServerboundInteractPacketE = 0x3126e8
_ZN24ServerGamePacketListener19handlePlayerCommandESt10shared_ptrI30ServerboundPlayerCommandPacketE = 0x312740
_ZN24ServerGamePacketListener17handlePlayerInputESt10shared_ptrI28ServerboundPlayerInputPacketE = 0x312798
_ZN24ServerGamePacketListener25handleSetCreativeModeSlotESt10shared_ptrI36ServerboundSetCreativeModeSlotPacketE = 0x3127f0
_ZN24ServerGamePacketListener15handleUseItemOnESt10shared_ptrI26ServerboundUseItemOnPacketE = 0x312848
_ZN24ServerGamePacketListener13handleUseItemESt10shared_ptrI24ServerboundUseItemPacketE = 0x3128a0
_ZN24ServerGamePacketListener28handleTeleportToEntityPacketESt10shared_ptrI33ServerboundTeleportToEntityPacketE = 0x3128f8
_ZN27ServerSettingsChangedPacketD2Ev = 0x312b94
_ZN27ServerSettingsChangedPacketD0Ev = 0x312bbc
_ZN27ServerSettingsChangedPacketC1Ev = 0x312be0
_ZN27ServerSettingsChangedPacket6handleEP14PacketListener = 0x312c6c
_ZN27ServerSettingsChangedPacket4readEP15DataInputStream = 0x312cbc
_ZN27ServerSettingsChangedPacket5writeEP16DataOutputStream = 0x312d04
_ZN27ServerSettingsChangedPacket16getEstimatedSizeEv = 0x312d48
_ZN15SharedConstants10staticCtorEv = 0x314ff8
_ZN5Sheep10staticCtorEv = 0x315e10
_ZN5Sheep14addDataWalkersEP14DataFixerUpper = 0x3168dc
_ZN10ShoreLayerC1ExNSt3__110shared_ptrI5LayerEE = 0x3171c4
_ZN10ShoreLayer7getAreaEiiii = 0x317244
_ZN8ShortTagC1Ev = 0x317a50
_ZN8ShortTagC1Ei = 0x317a80
_ZN8ShortTag5writeEP10DataOutput = 0x317ab8
_ZN8ShortTag4loadEP9DataInputi = 0x317ad0
_ZN8ShortTag5getIdEv = 0x317b00
_ZN8ShortTag8toStringEv = 0x317b08
_ZN8ShortTag4copyEv = 0x317b60
_ZN8ShortTag6equalsEP3Tag = 0x317b94
_ZN8ShortTag9getAsLongEv = 0x317bd4
_ZN8ShortTag8getAsIntEv = 0x317bdc
_ZN8ShortTag10getAsShortEv = 0x317be4
_ZN8ShortTag9getAsByteEv = 0x317bec
_ZN8ShortTag11getAsDoubleEv = 0x317bf4
_ZN8ShortTag10getAsFloatEv = 0x317c00
_ZN10ShovelItem10staticCtorEv = 0x317d58
_ZN7Shulker10staticCtorEv = 0x31818c
_ZN7Shulker14addDataWalkersEP14DataFixerUpper = 0x31876c
_ZNK15ShulkerBoxBlock13isSolidRenderEPK10BlockState = 0x31a9bc
_ZN15ShulkerBoxBlock14isViewBlockingEPK10BlockState = 0x31a9c4
_ZN15ShulkerBoxBlock12isCubeShapedEPK10BlockState = 0x31a9cc
_ZN15ShulkerBoxBlock25hasCustomBreakingProgressEPK10BlockState = 0x31a9d4
_ZN15ShulkerBoxBlock14getRenderShapeEPK10BlockState = 0x31a9dc
_ZN15ShulkerBoxBlock3useEP5LevelRK8BlockPosPK10BlockStateSt10shared_ptrI6PlayerEN15InteractionHand16EInteractionHandEPK9Directionfffb = 0x31a9e4
_ZN15ShulkerBoxBlock20getStateForPlacementEP5LevelRK8BlockPosPK9DirectionfffiSt10shared_ptrI12LivingEntityE = 0x31ac98
_ZN15ShulkerBoxBlock26createBlockStateDefinitionEv = 0x31acc8
_ZN15ShulkerBoxBlock29convertBlockStateToLegacyDataEPK10BlockState = 0x31ad18
_ZN15ShulkerBoxBlock13getBlockStateEi = 0x31ad40
_ZN15ShulkerBoxBlock17playerWillDestroyEP5LevelRK8BlockPosPK10BlockStateSt10shared_ptrI6PlayerE = 0x31ad80
_ZN15ShulkerBoxBlock14spawnResourcesEP5LevelRK8BlockPosPK10BlockStatefi = 0x31ae20
_ZN15ShulkerBoxBlock11setPlacedByEP5LevelRK8BlockPosPK10BlockStateSt10shared_ptrI12LivingEntityE12not_null_ptrI12ItemInstanceE = 0x31ae24
_ZN15ShulkerBoxBlock8onRemoveEP5LevelRK8BlockPosPK10BlockState = 0x31af2c
_ZN15ShulkerBoxBlock15appendHoverTextE12not_null_ptrI12ItemInstanceESt10shared_ptrI6PlayerEPSt6vectorI10HtmlStringSt9allocatorI10HtmlStringEEb = 0x31b2e4
_ZN15ShulkerBoxBlock21getPistonPushReactionEPK10BlockState = 0x31b7b8
_ZN15ShulkerBoxBlock8getShapeEPK10BlockStateP11LevelSourceRK8BlockPos = 0x31b7c0
_ZN15ShulkerBoxBlock21hasAnalogOutputSignalEPK10BlockState = 0x31b8b8
_ZN15ShulkerBoxBlock21getAnalogOutputSignalEPK10BlockStateP5LevelRK8BlockPos = 0x31b8c0
_ZN15ShulkerBoxBlock20getCloneItemInstanceEP5LevelRK8BlockPosPK10BlockState = 0x31b9a8
_ZN15ShulkerBoxBlock6rotateEPK10BlockStateP8Rotation = 0x31bb7c
_ZN15ShulkerBoxBlock6mirrorEPK10BlockStateP6Mirror = 0x31bbd4
_ZN15ShulkerBoxBlock17getBlockFaceShapeEP11LevelSourcePK10BlockStateRK8BlockPosPK9Direction = 0x31bc34
_ZN15ShulkerBoxBlock18GetInteractTooltipERK22BlockTooltipDataHolder = 0x31bd10
_ZN21ShulkerBoxBlockEntity14addDataWalkersEP14DataFixerUpper = 0x31c908
_ZN17StandingSignBlock8getShapeEPK10BlockStateP11LevelSourceRK8BlockPos = 0x31fb50
_ZN13WallSignBlock11getClipAABBEPK10BlockStateP11LevelSourceRK8BlockPos = 0x31fb60
_ZN13WallSignBlock12isCubeShapedEPK10BlockState = 0x31fb70
_ZN13WallSignBlock25hasCustomBreakingProgressEPK10BlockState = 0x31fb78
_ZN13WallSignBlock14isPathfindableEP11LevelSourceRK8BlockPos = 0x31fb80
_ZNK13WallSignBlock13isSolidRenderEPK10BlockState = 0x31fb88
_ZN13WallSignBlock25isPossibleToRespawnInThisEv = 0x31fb90
_ZN13WallSignBlock11getResourceEPK10BlockStateP6Randomi = 0x31fcfc
_ZN13WallSignBlock20getCloneItemInstanceEP5LevelRK8BlockPosPK10BlockState = 0x31fd0c
_ZN13WallSignBlock3useEP5LevelRK8BlockPosPK10BlockStateSt10shared_ptrI6PlayerEN15InteractionHand16EInteractionHandEPK9Directionfffb = 0x31fd4c
_ZN13WallSignBlock8mayPlaceEP5LevelRK8BlockPos = 0x31fdfc
_ZN13WallSignBlock21getPistonPushReactionEPK10BlockState = 0x31fe50
_ZN13WallSignBlock17getBlockFaceShapeEP11LevelSourcePK10BlockStateRK8BlockPosPK9Direction = 0x31fe58
_ZN13WallSignBlock18GetInteractTooltipERK22BlockTooltipDataHolder = 0x31fe60
_ZN13WallSignBlock10getTextureEPK9DirectionPK10BlockState = 0x31fec0
_ZN13WallSignBlock13registerIconsEP12IconRegister = 0x31fed8
_ZN13WallSignBlock14getRenderShapeEPK10BlockState = 0x31fedc
_ZN10Silverfish14addDataWalkersEP14DataFixerUpper = 0x321418
_ZN8Skeleton14addDataWalkersEP14DataFixerUpper = 0x322568
_ZN13SkeletonHorse14addDataWalkersEP14DataFixerUpper = 0x322a88
_ZN10SkullBlock15blockStaticCtorEv = 0x323d74
_ZN10SkullBlock7getNameEv = 0x323f58
_ZNK10SkullBlock13isSolidRenderEPK10BlockState = 0x323f9c
_ZN10SkullBlock12isCubeShapedEPK10BlockState = 0x323fa4
_ZN10SkullBlock25hasCustomBreakingProgressEPK10BlockState = 0x323fac
_ZN10SkullBlock8getShapeEPK10BlockStateP11LevelSourceRK8BlockPos = 0x323fb4
_ZN10SkullBlock20getStateForPlacementEP5LevelRK8BlockPosPK9DirectionfffiSt10shared_ptrI12LivingEntityE = 0x324008
_ZN10SkullBlock20getCloneItemInstanceEP5LevelRK8BlockPosPK10BlockState = 0x3241d4
_ZN10SkullBlock14spawnResourcesEP5LevelRK8BlockPosPK10BlockStatefi = 0x3242c4
_ZN10SkullBlock17playerWillDestroyEP5LevelRK8BlockPosPK10BlockStateSt10shared_ptrI6PlayerE = 0x3242c8
_ZN10SkullBlock8onRemoveEP5LevelRK8BlockPosPK10BlockState = 0x32438c
_ZN10SkullBlock11getResourceEPK10BlockStateP6Randomi = 0x3244c4
_ZN10SkullBlock13getBlockStateEi = 0x325100
_ZN10SkullBlock29convertBlockStateToLegacyDataEPK10BlockState = 0x325160
_ZN10SkullBlock6rotateEPK10BlockStateP8Rotation = 0x3251b8
_ZN10SkullBlock6mirrorEPK10BlockStateP6Mirror = 0x325210
_ZN10SkullBlock26createBlockStateDefinitionEv = 0x325278
_ZN10SkullBlock17getBlockFaceShapeEP11LevelSourcePK10BlockStateRK8BlockPosPK9Direction = 0x3252fc
_ZN10SkullBlock19getTileItemIconNameEv = 0x325304
_ZN10SkullBlock13registerIconsEP12IconRegister = 0x325344
_ZN10SkullBlock10getTextureEPK9DirectionPK10BlockState = 0x325348
_ZN10SkullBlock14getRenderShapeEPK10BlockState = 0x325360
_ZN15PistonBaseBlockD0Ev = 0x325458
_ZN15PistonHeadBlockD0Ev = 0x3254a0
_ZN16PistonMagicBlockD0Ev = 0x3254c4
_ZN11PlanksBlockD0Ev = 0x325530
_ZN24ServerGamePacketListenerD0Ev = 0x3255ac
_ZN24ServerGamePacketListener22isServerPacketListenerEv = 0x3255d0
_ZN11LocalPlayer12setInvisibleEb = 0x325608
_ZN11LocalPlayer18ShouldRenderShadowEv = 0x325610
_ZN11LocalPlayer16PositionLocked_4Ev = 0x32565c
_ZN11LocalPlayer19SetPositionLocked_4Eb = 0x325664
_ZN11LocalPlayer26TakeGlideCollisionDamage_4Ev = 0x325670
_ZN11LocalPlayer25SetGlideCollisionDamage_4Eb = 0x325678
_ZN11LocalPlayer22GetLiftForceModifier_4Ev = 0x325684
_ZN11LocalPlayer22SetLiftForceModifier_4Ed = 0x32568c
_ZN16PlayerInfoPacketD2Ev = 0x325798
_ZN16PlayerInfoPacketD0Ev = 0x3257c0
_ZN16PlayerInfoPacket11getPacketIdEv = 0x3257e4
_ZN17PlayerReadyPacket11getPacketIdEv = 0x3257ec
_ZN11PortalBlockD0Ev = 0x3259b4
_ZN11PotatoBlockD0Ev = 0x3259d8
_ZN12PoweredBlockD0Ev = 0x325a74
_ZN16PoweredRailBlockD0Ev = 0x325a98
_ZN18PressurePlateBlockD0Ev = 0x325abc
_ZN15PrismarineBlockD0Ev = 0x325b48
_ZN21ProtectionEnchantmentD0Ev = 0x325b6c
_ZN12PumpkinBlockD0Ev = 0x325b90
_ZN15PurpurSlabBlockD0Ev = 0x325bd8
_ZN11QuartzBlockD0Ev = 0x325c44
_ZN9RailBlockD0Ev = 0x325da8
_ZN14RedFlowerBlockD0Ev = 0x32606c
_ZN17RedSandStoneBlockD0Ev = 0x326090
_ZN17RedstoneLampBlockD0Ev = 0x3260d8
_ZN16RedStoneOreBlockD0Ev = 0x3260fc
_ZN18RedstoneTorchBlockD0Ev = 0x326120
_ZN17RedStoneWireBlockD2Ev = 0x326144
_ZN17RedStoneWireBlockD0Ev = 0x326178
_ZN10ReedsBlockD0Ev = 0x32619c
_ZN16RegionHillsLayerD2Ev = 0x3261e4
_ZN16RegionHillsLayerD0Ev = 0x326218
_ZN13RepeaterBlockD0Ev = 0x3262b8
_ZN14RiverInitLayerD0Ev = 0x3263e0
_ZN10RiverLayerD0Ev = 0x326404
_ZN15RiverMixerLayerD2Ev = 0x326428
_ZN15RiverMixerLayerD0Ev = 0x32646c
_ZN18RotatedPillarBlockD0Ev = 0x326490
_ZN9SandBlockD0Ev = 0x326594
_ZN14SandStoneBlockD0Ev = 0x3265dc
_ZN12SaplingBlockD0Ev = 0x326600
SavedDataStorage__D0 = 0x326648
SavedDataStorage__D1 = 0x32666c
_ZN16ScoreboardPacket11getPacketIdEv = 0x32682c
_ZN15SeaLanternBlockD0Ev = 0x326858
_ZN36ServerboundAcceptTeleportationPacketD2Ev = 0x3268c4
_ZN36ServerboundAcceptTeleportationPacketD0Ev = 0x3268ec
_ZN36ServerboundAcceptTeleportationPacket11getPacketIdEv = 0x326910
_ZN33ServerboundChatAutoCompletePacket11getPacketIdEv = 0x326918
_ZN21ServerboundChatPacket11getPacketIdEv = 0x326920
_ZN30ServerboundClientCommandPacketD2Ev = 0x326928
_ZN30ServerboundClientCommandPacketD0Ev = 0x326950
_ZN30ServerboundClientCommandPacket11getPacketIdEv = 0x326974
_ZN29ServerboundContainerAckPacket11getPacketIdEv = 0x32697c
_ZN37ServerboundContainerButtonClickPacketD2Ev = 0x326984
_ZN37ServerboundContainerButtonClickPacketD0Ev = 0x3269ac
_ZN37ServerboundContainerButtonClickPacket11getPacketIdEv = 0x3269d0
_ZN31ServerboundContainerClickPacket11getPacketIdEv = 0x3269d8
_ZN31ServerboundContainerClosePacket11getPacketIdEv = 0x3269e0
_ZN30ServerboundCustomPayloadPacket11getPacketIdEv = 0x3269e8
_ZN25ServerboundInteractPacket11getPacketIdEv = 0x3269f0
_ZN26ServerboundKeepAlivePacket11getPacketIdEv = 0x3269f8
_ZN27ServerboundMovePlayerPacketD0Ev = 0x326a00
_ZN27ServerboundMovePlayerPacket11getPacketIdEv = 0x326a24
_ZN27ServerboundMovePlayerPacket6PosRotD0Ev = 0x326a2c
_ZN27ServerboundMovePlayerPacket6PosRot11getPacketIdEv = 0x326a50
_ZN27ServerboundMovePlayerPacket3PosD0Ev = 0x326a58
_ZN27ServerboundMovePlayerPacket3Pos11getPacketIdEv = 0x326a7c
_ZN27ServerboundMovePlayerPacketD2Ev = 0x326a84
_ZN27ServerboundMovePlayerPacket3RotD0Ev = 0x326aac
_ZN27ServerboundMovePlayerPacket3Rot11getPacketIdEv = 0x326ad0
_ZN28ServerboundMoveVehiclePacketD2Ev = 0x326ad8
_ZN28ServerboundMoveVehiclePacketD0Ev = 0x326b00
_ZN28ServerboundMoveVehiclePacket11getPacketIdEv = 0x326b24
_ZN27ServerboundPaddleBoatPacketD2Ev = 0x326b2c
_ZN27ServerboundPaddleBoatPacketD0Ev = 0x326b54
_ZN27ServerboundPaddleBoatPacket11getPacketIdEv = 0x326b78
_ZN32ServerboundPlayerAbilitiesPacketD2Ev = 0x326b80
_ZN32ServerboundPlayerAbilitiesPacketD0Ev = 0x326ba8
_ZN32ServerboundPlayerAbilitiesPacket11getPacketIdEv = 0x326bcc
_ZN29ServerboundPlayerActionPacketD2Ev = 0x326bd4
_ZN29ServerboundPlayerActionPacketD0Ev = 0x326bfc
_ZN29ServerboundPlayerActionPacket11getPacketIdEv = 0x326c20
_ZN30ServerboundPlayerCommandPacketD2Ev = 0x326c28
_ZN30ServerboundPlayerCommandPacketD0Ev = 0x326c50
_ZN30ServerboundPlayerCommandPacket11getPacketIdEv = 0x326c74
_ZN28ServerboundPlayerInputPacketD2Ev = 0x326c7c
_ZN28ServerboundPlayerInputPacketD0Ev = 0x326ca4
_ZN28ServerboundPlayerInputPacket11getPacketIdEv = 0x326cc8
_ZN25ServerboundPreLoginPacketD2Ev = 0x326cd0
_ZN25ServerboundPreLoginPacketD0Ev = 0x326d14
_ZN25ServerboundPreLoginPacket11getPacketIdEv = 0x326d38
_ZN29ServerboundResourcePackPacket11getPacketIdEv = 0x326d40
_ZN31ServerboundSetCarriedItemPacket11getPacketIdEv = 0x326d48
_ZN36ServerboundSetCreativeModeSlotPacketD2Ev = 0x326d50
_ZN36ServerboundSetCreativeModeSlotPacketD0Ev = 0x326d94
_ZN36ServerboundSetCreativeModeSlotPacket11getPacketIdEv = 0x326db8
_ZN27ServerboundSignUpdatePacket11getPacketIdEv = 0x326dc0
_ZN22ServerboundSwingPacketD2Ev = 0x326dc8
_ZN22ServerboundSwingPacketD0Ev = 0x326df0
_ZN22ServerboundSwingPacket11getPacketIdEv = 0x326e14
_ZN33ServerboundTeleportToEntityPacket11getPacketIdEv = 0x326e1c
_ZN26ServerboundUseItemOnPacketD2Ev = 0x326e24
_ZN26ServerboundUseItemOnPacketD0Ev = 0x326e4c
_ZN26ServerboundUseItemOnPacket11getPacketIdEv = 0x326e70
_ZN24ServerboundUseItemPacketD2Ev = 0x326e78
_ZN24ServerboundUseItemPacketD0Ev = 0x326ea0
_ZN24ServerboundUseItemPacket11getPacketIdEv = 0x326ec4
_ZN27ServerSettingsChangedPacket11getPacketIdEv = 0x326ef0
_ZN10ShoreLayerD0Ev = 0x326fb8
_ZN8ShortTagD0Ev = 0x326fdc
_ZN15ShulkerBoxBlockD0Ev = 0x32723c
_ZN9SignBlockD0Ev = 0x327378
_ZN10SkullBlockD0Ev = 0x3276a0
_ZNSt3__110shared_ptrI30ServerboundClientCommandPacketEC2IS1_EERKNS_8weak_ptrIT_EENS_9enable_ifIXsr14is_convertibleIPS5_PS1_EE5valueENS2_5__natEE4typeE = 0x341b38
_ZNSt3__110shared_ptrI31ServerboundContainerClosePacketEC2IS1_EERKNS_8weak_ptrIT_EENS_9enable_ifIXsr14is_convertibleIPS5_PS1_EE5valueENS2_5__natEE4typeE = 0x341e90
_ZNSt3__110shared_ptrI26ServerboundKeepAlivePacketEC2IS1_EERKNS_8weak_ptrIT_EENS_9enable_ifIXsr14is_convertibleIPS5_PS1_EE5valueENS2_5__natEE4typeE = 0x341f50
_ZNSt3__110shared_ptrI28ServerboundPlayerInputPacketEC2IS1_EERKNS_8weak_ptrIT_EENS_9enable_ifIXsr14is_convertibleIPS5_PS1_EE5valueENS2_5__natEE4typeE = 0x342110
_ZNSt3__110shared_ptrI29ServerboundResourcePackPacketEC2IS1_EERKNS_8weak_ptrIT_EENS_9enable_ifIXsr14is_convertibleIPS5_PS1_EE5valueENS2_5__natEE4typeE = 0x342190
_ZNSt3__110shared_ptrI31ServerboundSetCarriedItemPacketEC2IS1_EERKNS_8weak_ptrIT_EENS_9enable_ifIXsr14is_convertibleIPS5_PS1_EE5valueENS2_5__natEE4typeE = 0x3421d0
_ZNSt3__110shared_ptrI22ServerboundSwingPacketEC2IS1_EERKNS_8weak_ptrIT_EENS_9enable_ifIXsr14is_convertibleIPS5_PS1_EE5valueENS2_5__natEE4typeE = 0x342290
_ZNSt3__110shared_ptrI24ServerboundUseItemPacketEC2IS1_EERKNS_8weak_ptrIT_EENS_9enable_ifIXsr14is_convertibleIPS5_PS1_EE5valueENS2_5__natEE4typeE = 0x342350
_ZN13SlabBlockItem13SlabBlockItemEP5BlockP13HalfSlabBlockP13HalfSlabBlock = 0x343de0
_ZN5Slime10staticCtorEv = 0x344748
_ZN5Slime14addDataWalkersEP14DataFixerUpper = 0x344a90
_ZN10SlimeBlock14getRenderLayerEv = 0x3463e8
_ZN10SlimeBlock6fallOnEP5LevelRK8BlockPosSt10shared_ptrI6EntityEf = 0x3463f0
_ZN10SlimeBlock23updateEntityAfterFallOnEP5LevelSt10shared_ptrI6EntityE = 0x3464ac
_ZN10SlimeBlock6stepOnEP5LevelRK8BlockPosSt10shared_ptrI6EntityE = 0x3465f0
_ZN10SlimeBlock14getRenderShapeEPK10BlockState = 0x3466d0
_ZN4SlotC1ENSt3__110shared_ptrI9ContainerEEiii = 0x3466d8
_ZN4Slot12onQuickCraftE12not_null_ptrI12ItemInstanceES2_ = 0x346738
_ZN4Slot12onQuickCraftE12not_null_ptrI12ItemInstanceEi = 0x3467b8
_ZN4Slot11onSwapCraftEi = 0x3467bc
_ZN4Slot21checkTakeAchievementsE12not_null_ptrI12ItemInstanceE = 0x3467c0
_ZN4Slot6onTakeENSt3__110shared_ptrI6PlayerEE12not_null_ptrI12ItemInstanceE = 0x3467c4
_ZN4Slot8mayPlaceE12not_null_ptrI12ItemInstanceE = 0x3467f8
_ZN4Slot7getItemEv = 0x346800
_ZN4Slot7hasItemEv = 0x346818
_ZN4Slot3setE12not_null_ptrI12ItemInstanceE = 0x346860
_ZN4Slot10setChangedEv = 0x3468cc
_ZN4Slot15getMaxStackSizeEv = 0x3468dc
_ZN4Slot15getMaxStackSizeE12not_null_ptrI12ItemInstanceE = 0x3468ec
_ZN4Slot13getNoItemIconEv = 0x3468f8
_ZN4Slot6removeEi = 0x346930
_ZN4Slot4isAtENSt3__110shared_ptrI9ContainerEEi = 0x346950
_ZN4Slot9mayPickupENSt3__110shared_ptrI6PlayerEE = 0x346978
_ZN4Slot8isActiveEv = 0x346980
_ZN4Slot10mayCombineE12not_null_ptrI12ItemInstanceE = 0x346988
_ZN4Slot7combineE12not_null_ptrI12ItemInstanceE = 0x346a84
_ZN13SmallFireball14addDataWalkersEP14DataFixerUpper = 0x346de0
_ZN11SmoothLayerC1ExNSt3__110shared_ptrI5LayerEE = 0x34713c
_ZN11SmoothLayer7getAreaEiiii = 0x3471bc
_ZN6System9arraycopyE15arrayWithLengthIiEjPS1_jj = 0x3473c8
_ZN8Snowball14addDataWalkersEP14DataFixerUpper = 0x3476b8
_ZN9SnowBlock11getResourceEPK10BlockStateP6Randomi = 0x347e68
_ZN9SnowBlock16getResourceCountEP6Random = 0x347e78
_ZN9SnowBlock4tickEP5LevelRK8BlockPosPK10BlockStateP6Random = 0x347e80
_ZN9SnowBlock15shouldBlockTickEP5LevelRK8BlockPosPK10BlockState = 0x347f1c
_ZN14SnowLayerBlock14isPathfindableEP11LevelSourceRK8BlockPos = 0x34cf64
_ZN14SnowLayerBlock21hasInHandRenderOffsetEv = 0x34cfa0
_ZN14SnowLayerBlock17getBlockFaceShapeEP11LevelSourcePK10BlockStateRK8BlockPosPK9Direction = 0x34cfd8
_ZN14SnowLayerBlock11getClipAABBEPK10BlockStateP11LevelSourceRK8BlockPos = 0x34cff4
_ZNK14SnowLayerBlock13isSolidRenderEPK10BlockState = 0x34d06c
_ZN14SnowLayerBlock12isCubeShapedEPK10BlockState = 0x34d074
_ZN14SnowLayerBlock8getShapeEPK10BlockStateP11LevelSourceRK8BlockPos = 0x34d07c
_ZN14SnowLayerBlock8mayPlaceEP5LevelRK8BlockPos = 0x34d0b0
_ZN14SnowLayerBlock15neighborChangedEPK10BlockStateP5LevelRK8BlockPosP5BlockRK8BlockPos = 0x34d1f0
_ZN14SnowLayerBlock13playerDestroyEP5LevelSt10shared_ptrI6PlayerERK8BlockPosPK10BlockStateSt10shared_ptrI11BlockEntityE12not_null_ptrI12ItemInstanceE = 0x34d284
_ZN14SnowLayerBlock11getResourceEPK10BlockStateP6Randomi = 0x34d338
_ZN14SnowLayerBlock16getResourceCountEP6Random = 0x34d348
_ZN14SnowLayerBlock4tickEP5LevelRK8BlockPosPK10BlockStateP6Random = 0x34d350
_ZN14SnowLayerBlock16shouldRenderFaceEPK10BlockStateP11LevelSourceRK8BlockPosPK9Direction = 0x34d3ec
_ZN14SnowLayerBlock15shouldBlockTickEP5LevelRK8BlockPosPK10BlockState = 0x34d4e4
_ZN14SnowLayerBlock13getBlockStateEi = 0x34d510
_ZN14SnowLayerBlock19mayReplaceWithPlaceEP11LevelSourceRK8BlockPos = 0x34d544
_ZN14SnowLayerBlock29convertBlockStateToLegacyDataEPK10BlockState = 0x34d580
_ZN14SnowLayerBlock26createBlockStateDefinitionEv = 0x34d5ac
_ZN7SnowMan10staticCtorEv = 0x34d61c
_ZN7SnowMan14addDataWalkersEP14DataFixerUpper = 0x34d6b8
_ZN6SocketC2EP14INetworkPlayerbb = 0x34e440
_ZN6Socket22getRemoteSocketAddressEv = 0x34e584
_ZN6Socket14getInputStreamEb = 0x34e6a0
_ZN6Socket12setSoTimeoutEi = 0x34e6f0
_ZN6Socket15setTrafficClassEi = 0x34e6f4
_ZN6Socket15getOutputStreamEb = 0x34e6f8
_ZN6Socket5closeEb = 0x34e750
SocketOutputStreamLocal__SocketOutputStreamLocal = 0x34ea5c
SocketOutputStream__SocketOutputStream = 0x34ea9c
SocketInputStreamNetwork__SocketInputStreamNetwork = 0x34ec4c
SocketOutputStreamNetwork__SocketOutputStreamNetwork = 0x34eeb4
_ZN13SoulSandBlock11getClipAABBEPK10BlockStateP11LevelSourceRK8BlockPos = 0x34f120
_ZN13SoulSandBlock12entityInsideEP5LevelRK8BlockPosPK10BlockStateRKSt10shared_ptrI6EntityE = 0x34f130
_ZN11SoundEvents10staticCtorEv = 0x34f2ec
registerSound__11SoundEventsSFRCQ2_3std78basic_string__tm__58_wQ2_3std20char_traits__tm__2_wQ2_3std18allocator__tm__2_w = 0x359850
_ZN9SoundType10StaticCtorEv = 0x359924
_ZN17SparseDataStorage10staticCtorEv = 0x359e04
_Z20EnterCriticalSectionPN2nn2os9MutexTypeE_0 = 0x35a6e8
_ZN17SparseDataStorage4tickEv = 0x35b3b8
_ZN18SparseLightStorage10staticCtorEv = 0x35bb50
_ZN18SparseLightStorage4tickEv = 0x35c6dc
_ZN18SparseLightStorage8compressEv = 0x35c778
_ZN12SpawnEggItem9fjGetTypeERK12not_null_ptrI12ItemInstanceE = 0x35e57c
_ZN13SpectralArrow14addDataWalkersEP14DataFixerUpper = 0x35e7b0
_ZN18SpellcasterIllager10staticCtorEv = 0x35eb90
_ZN6Spider10staticCtorEv = 0x35f2f4
_ZN6Spider14addDataWalkersEP14DataFixerUpper = 0x35f3f8
_ZN11SpongeBlock7getNameEv = 0x3608b8
_ZN11SpongeBlock25getSpawnResourcesAuxValueEPK10BlockState = 0x3608fc
_ZN11SpongeBlock7onPlaceEP5LevelRK8BlockPosPK10BlockState = 0x360928
_ZN11SpongeBlock15neighborChangedEPK10BlockStateP5LevelRK8BlockPosP5BlockRK8BlockPos = 0x3609ec
_ZN11SpongeBlock13getBlockStateEi = 0x360e24
_ZN11SpongeBlock29convertBlockStateToLegacyDataEPK10BlockState = 0x360e54
_ZN11SpongeBlock26createBlockStateDefinitionEv = 0x360e80
_ZN11SpongeBlock11animateTickEPK10BlockStateP5LevelRK8BlockPosP6Random = 0x360ef4
_ZN11SpongeBlock13registerIconsEP12IconRegister = 0x3610f4
_ZN11SpongeBlock10getTextureEPK9DirectionPK10BlockState = 0x3611b4
_ZN13SpringFeatureC1EP5Blockb = 0x3611f8
_ZN13SpringFeature5placeEP5LevelR6RandomRK8BlockPos = 0x361234
_ZN13SpruceFeature10staticCtorEv = 0x36145c
_ZN5Squid14addDataWalkersEP14DataFixerUpper = 0x361c28
_ZN4Vec37newTempEddd = 0x362784
_ZN17StainedGlassBlock15blockStaticCtorEv = 0x36290c
_ZN17StainedGlassBlock25getSpawnResourcesAuxValueEPK10BlockState = 0x362a40
_ZN17StainedGlassBlock11getMapColorEPK10BlockStateP11LevelSourceRK8BlockPos = 0x362a68
_ZN17StainedGlassBlock14getRenderLayerEv = 0x362a90
_ZN17StainedGlassBlock16getResourceCountEP6Random = 0x362a98
_ZN17StainedGlassBlock15isSilkTouchableEv = 0x362aa0
_ZN17StainedGlassBlock12isCubeShapedEPK10BlockState = 0x362aa8
_ZN17StainedGlassBlock13getBlockStateEi = 0x362ab0
_ZN17StainedGlassBlock7onPlaceEP5LevelRK8BlockPosPK10BlockState = 0x362afc
_ZN17StainedGlassBlock8onRemoveEP5LevelRK8BlockPosPK10BlockState = 0x362b14
_ZN17StainedGlassBlock29convertBlockStateToLegacyDataEPK10BlockState = 0x362b2c
_ZN17StainedGlassBlock26createBlockStateDefinitionEv = 0x362b54
_ZN17StainedGlassBlock10getTextureEPK9DirectionPK10BlockState = 0x362bc8
_ZN17StainedGlassBlock13registerIconsEP12IconRegister = 0x362bfc
_ZN21StainedGlassPaneBlock15blockStaticCtorEv = 0x362d2c
_ZN21StainedGlassPaneBlock25getSpawnResourcesAuxValueEPK10BlockState = 0x362fe4
_ZN21StainedGlassPaneBlock11getMapColorEPK10BlockStateP11LevelSourceRK8BlockPos = 0x36300c
_ZN21StainedGlassPaneBlock14getRenderLayerEv = 0x363034
_ZN21StainedGlassPaneBlock13getBlockStateEi = 0x36303c
_ZN21StainedGlassPaneBlock29convertBlockStateToLegacyDataEPK10BlockState = 0x363088
_ZN21StainedGlassPaneBlock6rotateEPK10BlockStateP8Rotation = 0x3630b0
_ZN21StainedGlassPaneBlock6mirrorEPK10BlockStateP6Mirror = 0x363220
_ZN14ThinFenceBlock6mirrorEPK10BlockStateP6Mirror = 0x3632e8
_ZN21StainedGlassPaneBlock26createBlockStateDefinitionEv = 0x3633b0
_ZN21StainedGlassPaneBlock7onPlaceEP5LevelRK8BlockPosPK10BlockState = 0x363464
_ZN21StainedGlassPaneBlock8onRemoveEP5LevelRK8BlockPosPK10BlockState = 0x36347c
_ZN21StainedGlassPaneBlock14getIconTextureEPK9DirectionPK10BlockState = 0x363494
_ZN21StainedGlassPaneBlock10getTextureEPK9DirectionPK10BlockState = 0x363500
_ZN21StainedGlassPaneBlock13registerIconsEP12IconRegister = 0x36350c
_ZN14ThinFenceBlock13registerIconsEP12IconRegister = 0x36371c
_ZN24StainedHardenedClayBlock10staticCtorEv = 0x3637a8
_ZN24StainedHardenedClayBlock11getMapColorEPK10BlockStateP11LevelSourceRK8BlockPos = 0x3638d0
_ZN10StairBlock15blockStaticCtorEv = 0x363908
_ZN10StairBlock17addCollisionAABBsEPK10BlockStateP5LevelRK8BlockPosPK4AABBPSt6vectorIP4AABBSt9allocatorIP4AABBEESt10shared_ptrI6EntityEb = 0x36412c
_ZN10StairBlock17getBlockFaceShapeEP11LevelSourcePK10BlockStateRK8BlockPosPK9Direction = 0x364404
_ZN10StairBlock25getSpawnResourcesAuxValueEPK10BlockState = 0x36455c
_ZN10StairBlock9getShapesEPK10BlockStateP11LevelSourcePK8BlockPos = 0x364564
_ZNK10StairBlock13isSolidRenderEPK10BlockState = 0x3646a4
_ZN10StairBlock12isCubeShapedEPK10BlockState = 0x3646ac
_ZN10StairBlock9addLightsEP5LevelRK8BlockPos = 0x3646b4
_ZN10StairBlock11animateTickEPK10BlockStateP5LevelRK8BlockPosP6Random = 0x3646c4
_ZN10StairBlock6attackEP5LevelRK8BlockPosSt10shared_ptrI6PlayerE = 0x3646d4
_ZN10StairBlock7destroyEP5LevelRK8BlockPosPK10BlockState = 0x364744
_ZN10StairBlock13getLightColorEPK10BlockStateP11LevelSourceRK8BlockPosi = 0x364754
_ZN10StairBlock22getExplosionResistanceESt10shared_ptrI6EntityE = 0x364764
_ZN10StairBlock14getRenderLayerEv = 0x3647cc
_ZN10StairBlock12getTickDelayEP5Level = 0x3647dc
_ZN10StairBlock14getOutlineAABBEPK10BlockStateP5LevelRK8BlockPos = 0x3647ec
_ZN10StairBlock18handleEntityInsideEP5LevelRK8BlockPosSt10shared_ptrI6EntityEP4Vec3 = 0x364804
_ZN10StairBlock7mayPickEv = 0x36488c
_ZN10StairBlock7mayPickEPK10BlockStateb = 0x36489c
_ZN10StairBlock8mayPlaceEP5LevelRK8BlockPos = 0x3648b0
_ZN10StairBlock7onPlaceEP5LevelRK8BlockPosPK10BlockState = 0x3648c0
_ZN10StairBlock8onRemoveEP5LevelRK8BlockPosPK10BlockState = 0x364928
_ZN10StairBlock13prepareRenderEP5LevelRK8BlockPos = 0x364938
_ZN10StairBlock6stepOnEP5LevelRK8BlockPosSt10shared_ptrI6EntityE = 0x364948
_ZN10StairBlock4tickEP5LevelRK8BlockPosPK10BlockStateP6Random = 0x3649b8
_ZN10StairBlock3useEP5LevelRK8BlockPosPK10BlockStateSt10shared_ptrI6PlayerEN15InteractionHand16EInteractionHandEPK9Directionfffb = 0x3649c8
_ZN10StairBlock11wasExplodedEP5LevelRK8BlockPosP9Explosion = 0x364a7c
_ZN10StairBlock11getMapColorEPK10BlockStateP11LevelSourceRK8BlockPos = 0x364ac8
_ZN10StairBlock20getStateForPlacementEP5LevelRK8BlockPosPK9DirectionfffiSt10shared_ptrI12LivingEntityE = 0x364adc
_ZN10StairBlock4clipEPK10BlockStateP5LevelRK8BlockPosP4Vec3P4Vec3 = 0x364c2c
_ZN10StairBlock13getBlockStateEi = 0x364dfc
_ZN10StairBlock29convertBlockStateToLegacyDataEPK10BlockState = 0x364e7c
_ZN10StairBlock31fillVirtualBlockStatePropertiesEPK10BlockStateP11LevelSourceRK8BlockPos = 0x364ee4
_ZN10StairBlock6rotateEPK10BlockStateP8Rotation = 0x365230
_ZN10StairBlock6mirrorEPK10BlockStateP6Mirror = 0x365288
_ZN10StairBlock26createBlockStateDefinitionEv = 0x36552c
_ZN10StairBlock10getTextureEPK9DirectionPK10BlockState = 0x3655c0
_ZN10StairBlock13registerIconsEP12IconRegister = 0x3655d4
_ZN10StairBlock14getRenderShapeEPK10BlockState = 0x3655d8
_ZN17StandingSignBlock15neighborChangedEPK10BlockStateP5LevelRK8BlockPosP5BlockRK8BlockPos = 0x365710
_ZN17StandingSignBlock13getBlockStateEi = 0x3657f4
_ZN17StandingSignBlock29convertBlockStateToLegacyDataEPK10BlockState = 0x365824
_ZN17StandingSignBlock6rotateEPK10BlockStateP8Rotation = 0x36583c
_ZN17StandingSignBlock6mirrorEPK10BlockStateP6Mirror = 0x365898
_ZN17StandingSignBlock26createBlockStateDefinitionEv = 0x3658f4
_ZN17StaticLiquidBlock15neighborChangedEPK10BlockStateP5LevelRK8BlockPosP5BlockRK8BlockPos = 0x3661f8
_ZN17StaticLiquidBlock4tickEP5LevelRK8BlockPosPK10BlockStateP6Random = 0x366344
_ZN5Stats10staticCtorEv = 0x3666d8
_ZN5Stats4initEv = 0x368744
_ZN9StemBlock15blockStaticCtorEv = 0x369e4c
_ZN9StemBlock8getShapeEPK10BlockStateP11LevelSourceRK8BlockPos = 0x369f0c
_ZN9StemBlock31fillVirtualBlockStatePropertiesEPK10BlockStateP11LevelSourceRK8BlockPos = 0x369f40
_ZN9StemBlock4tickEP5LevelRK8BlockPosPK10BlockStateP6Random = 0x36a0f0
_ZN9StemBlock8getColorEPK10BlockState = 0x36a3e4
_ZN9StemBlock8getColorEP11LevelSourceRK8BlockPos = 0x36a458
_ZN9StemBlock8getColorEP11LevelSourceRK8BlockPosPK10BlockState = 0x36a4a0
_ZN9StemBlock14spawnResourcesEP5LevelRK8BlockPosPK10BlockStatefi = 0x36a4b0
_ZN9StemBlock11getResourceEPK10BlockStateP6Randomi = 0x36a658
_ZN9StemBlock20getCloneItemInstanceEP5LevelRK8BlockPosPK10BlockState = 0x36a668
_ZN9StemBlock13getBlockStateEi = 0x36a730
_ZN9StemBlock29convertBlockStateToLegacyDataEPK10BlockState = 0x36a760
_ZN9StemBlock18GetInteractTooltipERK22BlockTooltipDataHolder = 0x36a778
_ZN9StemBlock26createBlockStateDefinitionEv = 0x36a7e8
_ZN9StemBlock13registerIconsEP12IconRegister = 0x36a86c
_ZN9StemBlock14getRenderShapeEPK10BlockState = 0x36a908
_ZN15StoneBeachBiomeC1EN5Biome9EBiomeIDsEPN5Biome15BiomePropertiesE = 0x36a910
_ZN10StoneBlock15blockStaticCtorEv = 0x36aa10
_ZN10StoneBlock7getNameEv = 0x36b290
_ZN10StoneBlock11getMapColorEPK10BlockStateP11LevelSourceRK8BlockPos = 0x36b2d4
_ZN10StoneBlock11getResourceEPK10BlockStateP6Randomi = 0x36b32c
_ZN10StoneBlock25getSpawnResourcesAuxValueEPK10BlockState = 0x36b37c
_ZN10StoneBlock13getBlockStateEi = 0x36b3ac
_ZN10StoneBlock29convertBlockStateToLegacyDataEPK10BlockState = 0x36b414
_ZN10StoneBlock26createBlockStateDefinitionEv = 0x36b43c
_ZN10StoneBlock10getTextureEPK9DirectionPK10BlockState = 0x36b4b0
_ZN10StoneBlock13registerIconsEP12IconRegister = 0x36b4dc
_ZN15StoneBrickBlock15blockStaticCtorEv = 0x36b654
_ZN15StoneBrickBlock25getSpawnResourcesAuxValueEPK10BlockState = 0x36ba60
_ZN15StoneBrickBlock13getBlockStateEi = 0x36bab0
_ZN15StoneBrickBlock29convertBlockStateToLegacyDataEPK10BlockState = 0x36bb18
_ZN15StoneBrickBlock26createBlockStateDefinitionEv = 0x36bb40
_ZN15StoneBrickBlock10getTextureEPK9DirectionPK10BlockState = 0x36bbb4
_ZN15StoneBrickBlock13registerIconsEP12IconRegister = 0x36bbf0
_ZN15StoneBrickBlock16getDescriptionIdEi = 0x36bcec
_ZN14StoneSlabBlock15blockStaticCtorEv = 0x36beb8
_ZN14StoneSlabBlock11DerivedInitEv = 0x36c650
_ZN14StoneSlabBlock11getResourceEPK10BlockStateP6Randomi = 0x36c72c
_ZN14StoneSlabBlock20getCloneItemInstanceEP5LevelRK8BlockPosPK10BlockState = 0x36c73c
_ZN14StoneSlabBlock13getBlockStateEi = 0x36c854
_ZN14StoneSlabBlock29convertBlockStateToLegacyDataEPK10BlockState = 0x36c910
_ZN14StoneSlabBlock26createBlockStateDefinitionEv = 0x36c9b8
_ZN14StoneSlabBlock25getSpawnResourcesAuxValueEPK10BlockState = 0x36caa0
_ZN14StoneSlabBlock11getMapColorEPK10BlockStateP11LevelSourceRK8BlockPos = 0x36cac8
_ZN14StoneSlabBlock10getTextureEPK9DirectionPK10BlockState = 0x36caf0
_ZN14StoneSlabBlock13registerIconsEP12IconRegister = 0x36cbfc
_ZN5Stray14addDataWalkersEP14DataFixerUpper = 0x36ccf8
_Z17wstringtofilenameRKNSt3__112basic_stringIwNS_11char_traitsIwEENS_9allocatorIwEEEERA256_c = 0x36d394
_Z17filenametowstringPKc = 0x36d52c
_Z15char16towstringPw = 0x36e1bc
wstringtochar16__wstring = 0x36e200
_ZN9StringTagC1Ev = 0x36e2c0
_ZN3TagC1Ev = 0x36e304
_ZN9StringTag5writeEP10DataOutput = 0x36e35c
_ZN9StringTag4loadEP9DataInputi = 0x36e374
_ZN9StringTag5getIdEv = 0x36e418
_ZN9StringTag8toStringEv = 0x36e420
_ZN9StringTag4copyEv = 0x36e42c
_ZNK9StringTag7isEmptyEv = 0x36e460
_ZN9StringTag6equalsEP3Tag = 0x36e480
_ZN3Tag6equalsEPS_ = 0x36e578
_ZN9StringTag11getAsStringEv = 0x36e5c8
_ZN16StrongholdPieces10staticCtorEv = 0x36fb84
_ZN14StructureBlock14getRenderShapeEPK10BlockState = 0x377de4
_ZN14StructureBlock11getClipAABBEPK10BlockStateP11LevelSourceRK8BlockPos = 0x377dec
_ZNK14StructureBlock13isSolidRenderEPK10BlockState = 0x377df4
_ZN14StructureBlock7mayPickEPK10BlockStateb = 0x377dfc
_ZN14StructureBlock14spawnResourcesEP5LevelRK8BlockPosPK10BlockStatefi = 0x377e04
_ZN14StructureBlock19mayReplaceWithPlaceEP11LevelSourceRK8BlockPos = 0x377e08
_ZN18StructureFeatureIO10staticCtorEv = 0x3796b0
_ZN25StructureFeatureSavedDataC2ERKNSt3__112basic_stringIwNS0_11char_traitsIwEENS0_9allocatorIwEEEE = 0x379e4c
_ZN16StructureManager10staticCtorEv = 0x37a0fc
_ZN6System22processTimeInMilliSecsEv = 0x37d588
_ZN17StructureTemplate10addWalkersEP14DataFixerUpper = 0x380220
_ZN18StructureVoidBlock14getRenderShapeEPK10BlockState = 0x3803b8
_ZN18StructureVoidBlock11getClipAABBEPK10BlockStateP11LevelSourceRK8BlockPos = 0x3803c0
_ZNK18StructureVoidBlock13isSolidRenderEPK10BlockState = 0x3803c8
_ZN18StructureVoidBlock7mayPickEPK10BlockStateb = 0x3803d0
_ZN18StructureVoidBlock14spawnResourcesEP5LevelRK8BlockPosPK10BlockStatefi = 0x3803d8
_ZN18StructureVoidBlock19mayReplaceWithPlaceEP11LevelSourceRK8BlockPos = 0x3803dc
_ZN18StructureVoidBlock21getPistonPushReactionEPK10BlockState = 0x3803e4
_ZN18StructureVoidBlock17getBlockFaceShapeEP11LevelSourcePK10BlockStateRK8BlockPosPK9Direction = 0x3803ec
_ZN10SwampBiomeC1EN5Biome9EBiomeIDsEPN5Biome15BiomePropertiesE = 0x3803f4
_ZN16SwampTreeFeature10staticCtorEv = 0x3807d8
unpack__17SynchedEntityDataSFP15DataInputStream = 0x3833b0
_ZN6System9arraycopyE15arrayWithLengthIhEjPS1_jj = 0x384154
_ZN6System11processTimeEN6System16ETimeGranularityE = 0x38416c
_ZN6System20processTimeInSecondsEv = 0x3841ec
_ZN6System21processTimeInNanoSecsEv = 0x384220
ReverseSHORT__6SystemSFPs = 0x384290
ReverseULONG__6SystemSFPUi = 0x3842a4
ReverseINT__6SystemSFPi = 0x3842c8
ReverseULONGLONG__6SystemSFPL = 0x3842ec
ReverseCHAR16A__6SystemSFPwi = 0x384330
_ZN3Tag5printERKNSt3__112basic_stringIwNS0_11char_traitsIwEENS0_9allocatorIwEEEEPcRNS0_13basic_ostreamIwS3_EE = 0x38436c
_ZN3Tag14getTagTypeNameEh = 0x384498
_ZN3Tag6newTagEh = 0x3844d8
_ZN3Tag18stripEmptyChildrenEv = 0x38460c
_ZNK3Tag7isEmptyEv = 0x384610
_ZN3Tag11getAsStringEv = 0x384618
_ZN10TaigaBiomeC1EN5Biome9EBiomeIDsEN10TaigaBiome5ETypeEPN5Biome15BiomePropertiesE = 0x384624
_ZN14TallGrassBlock15blockStaticCtorEv = 0x38521c
_ZN14TallGrassBlock8getShapeEPK10BlockStateP11LevelSourceRK8BlockPos = 0x3855c0
_ZN14TallGrassBlock19mayReplaceWithPlaceEP11LevelSourceRK8BlockPos = 0x38563c
_ZNK14TallGrassBlock8getColorEv = 0x385644
_ZN14TallGrassBlock8getColorEPK10BlockState = 0x385650
_ZN14TallGrassBlock8getColorEP11LevelSourceRK8BlockPosi = 0x385704
_ZN14TallGrassBlock8getColorEP11LevelSourceRK8BlockPosPK10BlockState = 0x38575c
_ZN14TallGrassBlock11getResourceEPK10BlockStateP6Randomi = 0x385800
_ZN14TallGrassBlock28getResourceCountForLootBonusEiP6Random = 0x385838
_ZN14TallGrassBlock13playerDestroyEP5LevelSt10shared_ptrI6PlayerERK8BlockPosPK10BlockStateSt10shared_ptrI11BlockEntityE12not_null_ptrI12ItemInstanceE = 0x385860
_ZN14TallGrassBlock20getCloneItemInstanceEP5LevelRK8BlockPosPK10BlockState = 0x3859f8
_ZN14TallGrassBlock13getBlockStateEi = 0x385b88
_ZN14TallGrassBlock29convertBlockStateToLegacyDataEPK10BlockState = 0x385bf0
_ZN14TallGrassBlock18GetInteractTooltipERK22BlockTooltipDataHolder = 0x385c18
_ZN14TallGrassBlock26createBlockStateDefinitionEv = 0x385c88
_ZN14TallGrassBlock13getOffsetTypeEv = 0x385d68
_ZN14TallGrassBlock10getTextureEPK9DirectionPK10BlockState = 0x385d70
_ZN14TallGrassBlock13registerIconsEP12IconRegister = 0x385dac
_ZN13TamableAnimal10staticCtorEv = 0x38605c
_ZN30TextureAndGeometryChangePacketC1Ev = 0x388600
_ZN30TextureAndGeometryChangePacket4readEP15DataInputStream = 0x388898
_ZN30TextureAndGeometryChangePacket5writeEP16DataOutputStream = 0x388964
_ZN30TextureAndGeometryChangePacket6handleEP14PacketListener = 0x3889b4
_ZN30TextureAndGeometryChangePacket16getEstimatedSizeEv = 0x388a04
_ZN24TextureAndGeometryPacketC1Ev = 0x388a24
_ZN24TextureAndGeometryPacketD2Ev = 0x388a90
_ZN24TextureAndGeometryPacketD0Ev = 0x388ad4
_ZN24TextureAndGeometryPacket6handleEP14PacketListener = 0x389338
_ZN24TextureAndGeometryPacket4readEP15DataInputStream = 0x389388
_ZN24TextureAndGeometryPacket5writeEP16DataOutputStream = 0x38970c
_ZN24TextureAndGeometryPacket16getEstimatedSizeEv = 0x3899dc
_ZN19TextureChangePacketC1Ev = 0x3899e4
_ZN19TextureChangePacket4readEP15DataInputStream = 0x389a98
_ZN19TextureChangePacket5writeEP16DataOutputStream = 0x389b68
_ZN19TextureChangePacket6handleEP14PacketListener = 0x389bb8
_ZN19TextureChangePacket16getEstimatedSizeEv = 0x389c08
_ZN13TexturePacketC1Ev = 0x389c28
_ZN13TexturePacketD2Ev = 0x389c84
_ZN13TexturePacketD0Ev = 0x389cc8
_ZN13TexturePacket6handleEP14PacketListener = 0x389d58
_ZN13TexturePacket4readEP15DataInputStream = 0x389da8
_ZN13TexturePacket5writeEP16DataOutputStream = 0x389eb0
_ZN13TexturePacket16getEstimatedSizeEv = 0x389f28
_ZN11TheEndBiomeC1EN5Biome9EBiomeIDsEPN5Biome15BiomePropertiesE = 0x389f30
_ZN15TheEndDimensionC1Ev = 0x38a590
_ZNK15TheEndDimension26createRandomLevelGeneratorEv = 0x38a784
_ZN19TheEndGatewayEntity10isSpawningEv = 0x38b290
_ZN19TheEndGatewayEntity13isCoolingDownEv = 0x38b2a0
_ZN19TheEndGatewayEntity15getSpawnPercentEf = 0x38b754
_ZN19TheEndGatewayEntity18getCooldownPercentEf = 0x38b778
_ZN17TheEndLevelSourceC1EP5LevelbxRK8BlockPos = 0x38c5a8
_ZN17TheEndLevelSourceD1Ev = 0x38c728
_ZN17TheEndLevelSourceD0Ev = 0x38c814
_ZN17TheEndLevelSource11createChunkEii = 0x38d384
_ZN17TheEndLevelSource13fjIslandCheckEii = 0x38d528
_ZN17TheEndLevelSource20getIslandHeightValueEiiii = 0x38d548
_ZN17TheEndLevelSource11postProcessEii = 0x38d8c0
_ZN17TheEndLevelSource22postProcessLoadedChunkEP10LevelChunkii = 0x38dcd0
_ZN17TheEndLevelSource9getMobsAtEP11MobCategoryRK8BlockPos = 0x38dcd8
_ZN17TheEndLevelSource21findNearestMapFeatureEP5LevelRKNSt3__112basic_stringIwNS2_11char_traitsIwEENS2_9allocatorIwEEEERK8BlockPosb = 0x38dd0c
_ZN17TheEndLevelSource14isPosInFeatureEP5LevelRKNSt3__112basic_stringIwNS2_11char_traitsIwEENS2_9allocatorIwEEEERK8BlockPos = 0x38ddd4
_ZN17TheEndLevelSource31recreateLogicStructuresForChunkEP10LevelChunkii = 0x38de94
_ZN14ThinFenceBlock31fillVirtualBlockStatePropertiesEPK10BlockStateP11LevelSourceRK8BlockPos = 0x38df48
_ZN14ThinFenceBlock11getResourceEPK10BlockStateP6Randomi = 0x38e1e4
_ZNK14ThinFenceBlock13isSolidRenderEPK10BlockState = 0x38e200
_ZN14ThinFenceBlock12isCubeShapedEPK10BlockState = 0x38e208
_ZN14ThinFenceBlock16shouldRenderFaceEPK10BlockStateP11LevelSourceRK8BlockPosPK9Direction = 0x38e210
_ZN14ThinFenceBlock17addCollisionAABBsEPK10BlockStateP5LevelRK8BlockPosPK4AABBPSt6vectorIP4AABBSt9allocatorIP4AABBEESt10shared_ptrI6EntityEb = 0x38e4b8
_ZN14ThinFenceBlock8getShapeEPK10BlockStateP11LevelSourceRK8BlockPos = 0x38e69c
_ZN14ThinFenceBlock15isSilkTouchableEv = 0x38e79c
_ZN14ThinFenceBlock14getRenderLayerEv = 0x38e7a4
_ZN14ThinFenceBlock29convertBlockStateToLegacyDataEPK10BlockState = 0x38e7ac
_ZN14ThinFenceBlock6rotateEPK10BlockStateP8Rotation = 0x38e7b4
_ZN14ThinFenceBlock26createBlockStateDefinitionEv = 0x38e924
_ZN14ThinFenceBlock17getBlockFaceShapeEP11LevelSourcePK10BlockStateRK8BlockPosPK9Direction = 0x38e9c8
_ZN14ThinFenceBlock14getRenderShapeEPK10BlockState = 0x38e9fc
_ZN17ThornsEnchantmentC1EPK6Rarity15arrayWithLengthIPK13EquipmentSlotE = 0x38ea20
_ZN17ThornsEnchantment10getMinCostEi = 0x38ea78
_ZN17ThornsEnchantment10getMaxCostEi = 0x38ea88
_ZN17ThornsEnchantment11getMaxLevelEv = 0x38eaa0
_ZN17ThornsEnchantment10canEnchantERK12not_null_ptrI12ItemInstanceE = 0x38eaa8
_ZN17ThornsEnchantment10doPostHurtERKNSt3__110shared_ptrI12LivingEntityEERKNS1_I6EntityEEi = 0x38eb28
_ZN17ThornsEnchantment9shouldHitEiP6Random = 0x38ecc4
_ZN17ThornsEnchantment9getDamageEiP6Random = 0x38ed10
_ZN9ThrownEgg14addDataWalkersEP14DataFixerUpper = 0x390804
_ZN16ThrownEnderpearl14addDataWalkersEP14DataFixerUpper = 0x390d5c
_ZN16ThrownEnderpearl5onHitEPK9HitResult = 0x390d60
_ZN15ThrownExpBottle14addDataWalkersEP14DataFixerUpper = 0x391510
_ZN12ThrownPotion10staticCtorEv = 0x391710
_ZN12ThrownPotion14addDataWalkersEP14DataFixerUpper = 0x392658
_ZN15TintedBlockItemC1EP5Blockb = 0x392b84
_ZN13TippableArrow10staticCtorEv = 0x392d04
_ZN13TippableArrow14addDataWalkersEP14DataFixerUpper = 0x39342c
_ZN8TntBlock7onPlaceEP5LevelRK8BlockPosPK10BlockState = 0x394b2c
_ZN8TntBlock15neighborChangedEPK10BlockStateP5LevelRK8BlockPosP5BlockRK8BlockPos = 0x394be4
_ZN8TntBlock11wasExplodedEP5LevelRK8BlockPosP9Explosion = 0x394c98
_ZN8TntBlock7destroyEP5LevelRK8BlockPosPK10BlockState = 0x394e10
_ZN8TntBlock3useEP5LevelRK8BlockPosPK10BlockStateSt10shared_ptrI6PlayerEN15InteractionHand16EInteractionHandEPK9Directionfffb = 0x394ff0
_ZN8TntBlock12entityInsideEP5LevelRK8BlockPosPK10BlockStateRKSt10shared_ptrI6EntityE = 0x395228
_ZN8TntBlock17dropFromExplosionEP9Explosion = 0x3953b0
_ZN8TntBlock11setPlacedByEP5LevelRK8BlockPosPK10BlockStateSt10shared_ptrI12LivingEntityE12not_null_ptrI12ItemInstanceE = 0x3953b8
_ZN8TntBlock13getBlockStateEi = 0x3954e4
_ZN8TntBlock29convertBlockStateToLegacyDataEPK10BlockState = 0x395514
_ZN8TntBlock26createBlockStateDefinitionEv = 0x395540
_ZN8TntBlock10getTextureEPK9DirectionPK10BlockState = 0x3955b4
_ZN8TntBlock13registerIconsEP12IconRegister = 0x395600
_ZN10TorchBlock15blockStaticCtorEv = 0x3961d8
_ZN10TorchBlock25getSpawnResourcesAuxValueEPK10BlockState = 0x3962cc
_ZN10TorchBlock8getShapeEPK10BlockStateP11LevelSourceRK8BlockPos = 0x3962d4
_ZN10TorchBlock11getClipAABBEPK10BlockStateP11LevelSourceRK8BlockPos = 0x396328
_ZNK10TorchBlock13isSolidRenderEPK10BlockState = 0x396338
_ZN10TorchBlock12isCubeShapedEPK10BlockState = 0x396340
_ZN10TorchBlock8mayPlaceEP5LevelRK8BlockPos = 0x3964fc
_ZN10TorchBlock20getStateForPlacementEP5LevelRK8BlockPosPK9DirectionfffiSt10shared_ptrI12LivingEntityE = 0x396918
_ZN10TorchBlock7onPlaceEP5LevelRK8BlockPosPK10BlockState = 0x396a08
_ZN10TorchBlock15neighborChangedEPK10BlockStateP5LevelRK8BlockPosP5BlockRK8BlockPos = 0x396a14
_ZN10TorchBlock11animateTickEPK10BlockStateP5LevelRK8BlockPosP6Random = 0x396c34
_ZN10TorchBlock14getRenderLayerEv = 0x396e50
_ZN10TorchBlock13getBlockStateEi = 0x396e58
_ZN10TorchBlock29convertBlockStateToLegacyDataEPK10BlockState = 0x396eac
_ZN10TorchBlock6rotateEPK10BlockStateP8Rotation = 0x396ef8
_ZN10TorchBlock6mirrorEPK10BlockStateP6Mirror = 0x396f50
_ZN10TorchBlock26createBlockStateDefinitionEv = 0x396fb8
_ZN10TorchBlock17getBlockFaceShapeEP11LevelSourcePK10BlockStateRK8BlockPosPK9Direction = 0x39702c
_ZN10TorchBlock14getRenderShapeEPK10BlockState = 0x397034
_ZN15TradeItemPacketC1Ev = 0x39703c
_ZN15TradeItemPacket6handleEP14PacketListener = 0x3970bc
_ZN15TradeItemPacket4readEP15DataInputStream = 0x39710c
_ZN15TradeItemPacket5writeEP16DataOutputStream = 0x397154
_ZN15TradeItemPacket16getEstimatedSizeEv = 0x397198
_ZNK16TransparentBlock13isSolidRenderEPK10BlockState = 0x397354
_ZN16TransparentBlock16shouldRenderFaceEPK10BlockStateP11LevelSourceRK8BlockPosPK9Direction = 0x39735c
_ZN13TrapDoorBlock15blockStaticCtorEv = 0x397424
_ZN13TrapDoorBlock8getShapeEPK10BlockStateP11LevelSourceRK8BlockPos = 0x397848
_ZNK13TrapDoorBlock13isSolidRenderEPK10BlockState = 0x397920
_ZN13TrapDoorBlock12isCubeShapedEPK10BlockState = 0x397928
_ZN13TrapDoorBlock14isPathfindableEP11LevelSourceRK8BlockPos = 0x397930
_ZN13TrapDoorBlock7TestUseEv = 0x39796c
_ZN13TrapDoorBlock3useEP5LevelRK8BlockPosPK10BlockStateSt10shared_ptrI6PlayerEN15InteractionHand16EInteractionHandEPK9Directionfffb = 0x397988
_ZN13TrapDoorBlock15neighborChangedEPK10BlockStateP5LevelRK8BlockPosP5BlockRK8BlockPos = 0x397b94
_ZN13TrapDoorBlock20getStateForPlacementEP5LevelRK8BlockPosPK9DirectionfffiSt10shared_ptrI12LivingEntityE = 0x397c8c
_ZN13TrapDoorBlock8mayPlaceEP5LevelRK8BlockPosPK9Direction = 0x397df8
_ZN13TrapDoorBlock14getRenderLayerEv = 0x397e40
_ZN13TrapDoorBlock13getBlockStateEi = 0x397e48
_ZN13TrapDoorBlock29convertBlockStateToLegacyDataEPK10BlockState = 0x397ed4
_ZN13TrapDoorBlock18GetInteractTooltipERK22BlockTooltipDataHolder = 0x397f58
_ZN13TrapDoorBlock6rotateEPK10BlockStateP8Rotation = 0x398008
_ZN13TrapDoorBlock6mirrorEPK10BlockStateP6Mirror = 0x398060
_ZN13TrapDoorBlock26createBlockStateDefinitionEv = 0x3980c8
_ZN13TrapDoorBlock17getBlockFaceShapeEP11LevelSourcePK10BlockStateRK8BlockPosPK9Direction = 0x39815c
_ZN13TrapDoorBlock14getRenderShapeEPK10BlockState = 0x398218
_ZN11TreeFeature10staticCtorEv = 0x39887c
_ZN13TripWireBlock8getShapeEPK10BlockStateP11LevelSourceRK8BlockPos = 0x399818
_ZN13TripWireBlock31fillVirtualBlockStatePropertiesEPK10BlockStateP11LevelSourceRK8BlockPos = 0x39985c
_ZN13TripWireBlock11getClipAABBEPK10BlockStateP11LevelSourceRK8BlockPos = 0x399a10
_ZNK13TripWireBlock13isSolidRenderEPK10BlockState = 0x399a20
_ZN13TripWireBlock12isCubeShapedEPK10BlockState = 0x399a28
_ZN13TripWireBlock14getRenderLayerEv = 0x399a30
_ZN13TripWireBlock11getResourceEPK10BlockStateP6Randomi = 0x399a38
_ZN13TripWireBlock20getCloneItemInstanceEP5LevelRK8BlockPosPK10BlockState = 0x399a48
_ZN13TripWireBlock7onPlaceEP5LevelRK8BlockPosPK10BlockState = 0x399a88
_ZN13TripWireBlock8onRemoveEP5LevelRK8BlockPosPK10BlockState = 0x399d10
_ZN13TripWireBlock17playerWillDestroyEP5LevelRK8BlockPosPK10BlockStateSt10shared_ptrI6PlayerE = 0x399d54
_ZN13TripWireBlock12entityInsideEP5LevelRK8BlockPosPK10BlockStateRKSt10shared_ptrI6EntityE = 0x39a2b4
_ZN13TripWireBlock10randomTickEP5LevelRK8BlockPosPK10BlockStateP6Random = 0x39a4d0
_ZN13TripWireBlock4tickEP5LevelRK8BlockPosPK10BlockStateP6Random = 0x39a4d4
_ZN13TripWireBlock13getBlockStateEi = 0x39a54c
_ZN13TripWireBlock29convertBlockStateToLegacyDataEPK10BlockState = 0x39a5a4
_ZN13TripWireBlock6rotateEPK10BlockStateP8Rotation = 0x39a628
_ZN13TripWireBlock6mirrorEPK10BlockStateP6Mirror = 0x39a798
_ZN13TripWireBlock26createBlockStateDefinitionEv = 0x39a860
_ZN13TripWireBlock17getBlockFaceShapeEP11LevelSourcePK10BlockStateRK8BlockPosPK9Direction = 0x39a990
_ZN13TripWireBlock14getRenderShapeEPK10BlockState = 0x39a998
_ZN17TripWireHookBlock15blockStaticCtorEv = 0x39a9a0
_ZN17TripWireHookBlock8getShapeEPK10BlockStateP11LevelSourceRK8BlockPos = 0x39aa7c
_ZN17TripWireHookBlock11getClipAABBEPK10BlockStateP11LevelSourceRK8BlockPos = 0x39aad0
_ZNK17TripWireHookBlock13isSolidRenderEPK10BlockState = 0x39aae0
_ZN17TripWireHookBlock12isCubeShapedEPK10BlockState = 0x39aae8
_ZN17TripWireHookBlock8mayPlaceEP5LevelRK8BlockPosPK9Direction = 0x39aaf0
_ZN17TripWireHookBlock8mayPlaceEP5LevelRK8BlockPos = 0x39abe8
_ZN17TripWireHookBlock20getStateForPlacementEP5LevelRK8BlockPosPK9DirectionfffiSt10shared_ptrI12LivingEntityE = 0x39ac80
_ZN17TripWireHookBlock11setPlacedByEP5LevelRK8BlockPosPK10BlockStateSt10shared_ptrI12LivingEntityE12not_null_ptrI12ItemInstanceE = 0x39ad00
_ZN17TripWireHookBlock15neighborChangedEPK10BlockStateP5LevelRK8BlockPosP5BlockRK8BlockPos = 0x39ad14
_ZN17TripWireHookBlock10randomTickEP5LevelRK8BlockPosPK10BlockStateP6Random = 0x39b080
_ZN17TripWireHookBlock4tickEP5LevelRK8BlockPosPK10BlockStateP6Random = 0x39b084
_ZN17TripWireHookBlock8onRemoveEP5LevelRK8BlockPosPK10BlockState = 0x39b098
_ZN17TripWireHookBlock9getSignalEPK10BlockStateP11LevelSourceRK8BlockPosPK9Direction = 0x39b1a0
_ZN17TripWireHookBlock15getDirectSignalEPK10BlockStateP11LevelSourceRK8BlockPosPK9Direction = 0x39b1e4
_ZN17TripWireHookBlock14isSignalSourceEPK10BlockState = 0x39b254
_ZN17TripWireHookBlock14getRenderLayerEv = 0x39b25c
_ZN17TripWireHookBlock13getBlockStateEi = 0x39b264
_ZN17TripWireHookBlock29convertBlockStateToLegacyDataEPK10BlockState = 0x39b2d8
_ZN17TripWireHookBlock6rotateEPK10BlockStateP8Rotation = 0x39b350
_ZN17TripWireHookBlock6mirrorEPK10BlockStateP6Mirror = 0x39b3a8
_ZN17TripWireHookBlock26createBlockStateDefinitionEv = 0x39b410
_ZN17TripWireHookBlock17getBlockFaceShapeEP11LevelSourcePK10BlockStateRK8BlockPosPK9Direction = 0x39b4b4
_ZN17TripWireHookBlock14getRenderShapeEPK10BlockState = 0x39b4bc
_ZN21UntouchingEnchantmentC1EPK6Rarity15arrayWithLengthIPK13EquipmentSlotE = 0x39b4c4
_ZN21UntouchingEnchantment10getMinCostEi = 0x39b51c
_ZN21UntouchingEnchantment10getMaxCostEi = 0x39b524
_ZN21UntouchingEnchantment11getMaxLevelEv = 0x39b53c
_ZN21UntouchingEnchantment18checkCompatibilityEPK11Enchantment = 0x39b544
_ZN28UpdateGameRuleProgressPacketC1Ev = 0x39b57c
_ZN28UpdateGameRuleProgressPacket4readEP15DataInputStream = 0x39b6d8
_ZN28UpdateGameRuleProgressPacket5writeEP16DataOutputStream = 0x39b840
_ZN28UpdateGameRuleProgressPacket6handleEP14PacketListener = 0x39b8e0
_ZN28UpdateGameRuleProgressPacket16getEstimatedSizeEv = 0x39b930
_ZN20UpdateProgressPacketC1Ev = 0x39b954
_ZN20UpdateProgressPacketC1Ei = 0x39b98c
_ZN20UpdateProgressPacket4readEP15DataInputStream = 0x39b9c8
_ZN20UpdateProgressPacket5writeEP16DataOutputStream = 0x39b9fc
_ZN20UpdateProgressPacket6handleEP14PacketListener = 0x39ba14
_ZN20UpdateProgressPacket16getEstimatedSizeEv = 0x39ba64
_ZN25VanishingCurseEnchantment10getMinCostEi = 0x39bac4
_ZN25VanishingCurseEnchantment10getMaxCostEi = 0x39bacc
_ZN25VanishingCurseEnchantment11getMaxLevelEv = 0x39bad4
_ZN25VanishingCurseEnchantment14isTreasureOnlyEv = 0x39badc
_ZN25VanishingCurseEnchantment7isCurseEv = 0x39bae4
_ZN4phys4Vec222CreateNewThreadStorageEv = 0x39bb50
_ZN4phys4Vec27newTempEff = 0x39bc28
_ZN4Vec322CreateNewThreadStorageEv = 0x39bcec
_ZN4Vec39resetPoolEv = 0x39bdfc
_ZN4Vec33setEddd = 0x39be00
_ZN4Vec310distanceToEP4AABB = 0x39c350
_ZN5Vec3iC2Eddd = 0x39c628
_ZN3Vex10staticCtorEv = 0x39c958
_ZN3Vex14addDataWalkersEP14DataFixerUpper = 0x39cdd8
_ZN14VillageFeature10staticCtorEv = 0x3a0d4c
_ZN13VillagePieces6Smithy10staticCtorEv = 0x3ac270
_ZN8Villager14addDataWalkersEP14DataFixerUpper = 0x3afce8
_ZN8Villager10staticCtorEv = 0x3b1068
_ZN13VillagerGolem10staticCtorEv = 0x3b576c
_ZN13VillagerGolem14addDataWalkersEP14DataFixerUpper = 0x3b6158
_ZN18VindicationIllager14addDataWalkersEP14DataFixerUpper = 0x3b850c
_ZN9VineBlock11getClipAABBEPK10BlockStateP11LevelSourceRK8BlockPos = 0x3b8ed8
_ZN9VineBlock8getShapeEPK10BlockStateP11LevelSourceRK8BlockPos = 0x3b8ee8
_ZN9VineBlock31fillVirtualBlockStatePropertiesEPK10BlockStateP11LevelSourceRK8BlockPos = 0x3b9030
_ZNK9VineBlock13isSolidRenderEPK10BlockState = 0x3b90c4
_ZN9VineBlock12isCubeShapedEPK10BlockState = 0x3b90cc
_ZN9VineBlock19mayReplaceWithPlaceEP11LevelSourceRK8BlockPos = 0x3b90d4
_ZN9VineBlock8mayPlaceEP5LevelRK8BlockPosPK9Direction = 0x3b90dc
_ZNK9VineBlock8getColorEv = 0x3b9698
_ZN9VineBlock8getColorEPK10BlockState = 0x3b969c
_ZN9VineBlock8getColorEP11LevelSourceRK8BlockPosPK10BlockState = 0x3b96a0
_ZN9VineBlock8getColorEP11LevelSourceRK8BlockPos = 0x3b96ac
_ZN9VineBlock15neighborChangedEPK10BlockStateP5LevelRK8BlockPosP5BlockRK8BlockPos = 0x3b96e8
_ZN9VineBlock4tickEP5LevelRK8BlockPosPK10BlockStateP6Random = 0x3b9778
_ZN9VineBlock20getStateForPlacementEP5LevelRK8BlockPosPK9DirectionfffiSt10shared_ptrI12LivingEntityE = 0x3b9fac
_ZN9VineBlock11getResourceEPK10BlockStateP6Randomi = 0x3ba06c
_ZN9VineBlock16getResourceCountEP6Random = 0x3ba07c
_ZN9VineBlock13playerDestroyEP5LevelSt10shared_ptrI6PlayerERK8BlockPosPK10BlockStateSt10shared_ptrI11BlockEntityE12not_null_ptrI12ItemInstanceE = 0x3ba084
_ZN9VineBlock14getRenderLayerEv = 0x3ba1f4
_ZN9VineBlock13getBlockStateEi = 0x3ba1fc
_ZN9VineBlock29convertBlockStateToLegacyDataEPK10BlockState = 0x3ba268
_ZN9VineBlock26createBlockStateDefinitionEv = 0x3ba30c
_ZN9VineBlock6rotateEPK10BlockStateP8Rotation = 0x3ba3c0
_ZN9VineBlock6mirrorEPK10BlockStateP6Mirror = 0x3ba530
_ZN9VineBlock17getBlockFaceShapeEP11LevelSourcePK10BlockStateRK8BlockPosPK9Direction = 0x3ba5f8
_ZN9VineBlock14getRenderShapeEPK10BlockState = 0x3ba600
_ZN9VineBlock15shouldBlockTickEP5LevelRK8BlockPosPK10BlockState = 0x3ba608
_ZN9VoidBiomeC1EN5Biome9EBiomeIDsEPN5Biome15BiomePropertiesE = 0x3ba880
_ZN11VoronoiZoomC1ExNSt3__110shared_ptrI5LayerEE = 0x3bac60
_ZN11VoronoiZoom7getAreaEiiii = 0x3bace0
_ZN10VotePacketC1Ev = 0x3bb1d4
_ZN10VotePacket4readEP15DataInputStream = 0x3bb280
_ZN10VotePacket5writeEP16DataOutputStream = 0x3bb2f0
_ZN10VotePacket6handleEP14PacketListener = 0x3bb35c
_ZN10VotePacket16getEstimatedSizeEv = 0x3bb3ac
_ZN9WallBlock15blockStaticCtorEv = 0x3bd66c
_ZN9WallBlockC2EP5Block = 0x3bd980
_ZN9WallBlock8getShapeEPK10BlockStateP11LevelSourceRK8BlockPos = 0x3bdb04
_ZN9WallBlock17addCollisionAABBsEPK10BlockStateP5LevelRK8BlockPosPK4AABBPSt6vectorIP4AABBSt9allocatorIP4AABBEESt10shared_ptrI6EntityEb = 0x3bdc20
_ZN9WallBlock11getClipAABBEPK10BlockStateP11LevelSourceRK8BlockPos = 0x3bdca8
_ZN9WallBlock7getNameEv = 0x3bdcd4
_ZN9WallBlock12isCubeShapedEPK10BlockState = 0x3bdd18
_ZN9WallBlock14isPathfindableEP11LevelSourceRK8BlockPos = 0x3bdd20
_ZNK9WallBlock13isSolidRenderEPK10BlockState = 0x3bdd28
_ZN9WallBlock25getSpawnResourcesAuxValueEPK10BlockState = 0x3bde84
_ZN9WallBlock16shouldRenderFaceEPK10BlockStateP11LevelSourceRK8BlockPosPK9Direction = 0x3bdedc
_ZN9WallBlock13getBlockStateEi = 0x3bdefc
_ZN9WallBlock29convertBlockStateToLegacyDataEPK10BlockState = 0x3bdf64
_ZN9WallBlock31fillVirtualBlockStatePropertiesEPK10BlockStateP11LevelSourceRK8BlockPos = 0x3bdf8c
_ZN9WallBlock26createBlockStateDefinitionEv = 0x3be15c
_ZN9WallBlock17getBlockFaceShapeEP11LevelSourcePK10BlockStateRK8BlockPosPK9Direction = 0x3be220
_ZN9WallBlock10getTextureEPK9DirectionPK10BlockState = 0x3be24c
_ZN9WallBlock13registerIconsEP12IconRegister = 0x3be2b4
_ZN9WallBlock14getRenderShapeEPK10BlockState = 0x3be2b8
_ZN13WallSignBlock15blockStaticCtorEv = 0x3be6ec
_ZN13WallSignBlock8getShapeEPK10BlockStateP11LevelSourceRK8BlockPos = 0x3be774
_ZN13WallSignBlock15neighborChangedEPK10BlockStateP5LevelRK8BlockPosP5BlockRK8BlockPos = 0x3be7c8
_ZN13WallSignBlock13getBlockStateEi = 0x3be8c8
_ZN13WallSignBlock29convertBlockStateToLegacyDataEPK10BlockState = 0x3be92c
_ZN13WallSignBlock6rotateEPK10BlockStateP8Rotation = 0x3be954
_ZN13WallSignBlock6mirrorEPK10BlockStateP6Mirror = 0x3be9ac
_ZN13WallSignBlock26createBlockStateDefinitionEv = 0x3bea14
_ZN15WaterLevelChunkC1EP5LevelP11ChunkPrimerii = 0x3bf40c
_ZN14WaterlilyBlockC1Ev = 0x3bf62c
_ZN14WaterlilyBlock8getShapeEPK10BlockStateP11LevelSourceRK8BlockPos = 0x3bf660
_ZN14WaterlilyBlock17addCollisionAABBsEPK10BlockStateP5LevelRK8BlockPosPK4AABBPNSt3__16vectorIPS8_NSB_9allocatorISD_EEEENSB_10shared_ptrI6EntityEEb = 0x3bf670
_ZN14WaterlilyBlock12entityInsideEP5LevelRK8BlockPosPK10BlockStateRKNSt3__110shared_ptrI6EntityEE = 0x3bf6e4
_ZNK14WaterlilyBlock8getColorEv = 0x3bf74c
_ZN14WaterlilyBlock8getColorEPK10BlockState = 0x3bf768
_ZN14WaterlilyBlock8getColorEP11LevelSourceRK8BlockPos = 0x3bf784
_ZN14WaterlilyBlock8getColorEP11LevelSourceRK8BlockPosPK10BlockState = 0x3bf7a0
_ZN14WaterlilyBlock10mayPlaceOnEPK10BlockState = 0x3bf7ac
_ZN14WaterlilyBlock10canSurviveEP5LevelRK8BlockPosPK10BlockState = 0x3bf818
_ZN14WaterlilyBlock29convertBlockStateToLegacyDataEPK10BlockState = 0x3bf8ec
_ZN14WaterlilyBlock14getRenderShapeEPK10BlockState = 0x3bf8f4
_ZN16WaterlilyFeature5placeEP5LevelR6RandomRK8BlockPos = 0x3bfe74
_ZN22WaterWalkerEnchantmentC1EPK6Rarity15arrayWithLengthIPK13EquipmentSlotE = 0x3bfff8
_ZN22WaterWalkerEnchantmentD0Ev = 0x3c0054
_ZN22WaterWalkerEnchantment10getMinCostEi = 0x3c0078
_ZN22WaterWalkerEnchantment10getMaxCostEi = 0x3c0084
_ZN22WaterWalkerEnchantment11getMaxLevelEv = 0x3c009c
_ZN22WaterWalkerEnchantment18checkCompatibilityEPK11Enchantment = 0x3c00a4
_ZN22WaterWorkerEnchantmentC1EPK6Rarity15arrayWithLengthIPK13EquipmentSlotE = 0x3c00dc
_ZN22WaterWorkerEnchantment10getMinCostEi = 0x3c0134
_ZN22WaterWorkerEnchantment10getMaxCostEi = 0x3c013c
_ZN22WaterWorkerEnchantment11getMaxLevelEv = 0x3c015c
_ZN8WebBlockC1Ev = 0x3c0978
_ZN8WebBlock12entityInsideEP5LevelRK8BlockPosPK10BlockStateRKNSt3__110shared_ptrI6EntityEE = 0x3c09b8
_ZNK8WebBlock13isSolidRenderEPK10BlockState = 0x3c0a20
_ZN8WebBlock11getClipAABBEPK10BlockStateP11LevelSourceRK8BlockPos = 0x3c0a28
_ZN8WebBlock12isCubeShapedEPK10BlockState = 0x3c0a38
_ZN8WebBlock11getResourceEPK10BlockStateP6Randomi = 0x3c0a40
_ZN8WebBlock15isSilkTouchableEv = 0x3c0a50
_ZN8WebBlock13playerDestroyEP5LevelNSt3__110shared_ptrI6PlayerEERK8BlockPosPK10BlockStateNS3_I11BlockEntityEE12not_null_ptrI12ItemInstanceE = 0x3c0a58
_ZN8WebBlock17getBlockFaceShapeEP11LevelSourcePK10BlockStateRK8BlockPosPK9Direction = 0x3c0b90
_ZN8WebBlock14getRenderLayerEv = 0x3c0b98
_ZN8WebBlock14getRenderShapeEPK10BlockState = 0x3c0ba0
_ZN26WeightedPressurePlateBlock12getTickDelayEP5Level = 0x3c1508
_ZN26WeightedPressurePlateBlock13getBlockStateEi = 0x3c1510
_ZN26WeightedPressurePlateBlock29convertBlockStateToLegacyDataEPK10BlockState = 0x3c1540
_ZN26WeightedPressurePlateBlock26createBlockStateDefinitionEv = 0x3c1558
_ZN5Witch10staticCtorEv = 0x3c15cc
_ZN5Witch14addDataWalkersEP14DataFixerUpper = 0x3c167c
_ZN10WitherBoss10staticCtorEv = 0x3c26e8
_ZN10WitherBoss14addDataWalkersEP14DataFixerUpper = 0x3c3110
_ZN14WitherSkeleton14addDataWalkersEP14DataFixerUpper = 0x3c79e8
_ZN11WitherSkull10staticCtorEv = 0x3c7f18
_ZN11WitherSkull14addDataWalkersEP14DataFixerUpper = 0x3c8048
_ZN4Wolf10staticCtorEv = 0x3c8960
_ZN4Wolf14addDataWalkersEP14DataFixerUpper = 0x3c908c
_ZN22WoodlandMansionFeature10staticCtorEv = 0x3cb2a4
_ZN22WoodlandMansionFeatureC1EP27GenericOverworldLevelSourceP15SuperflatConfig = 0x3cb4c0
_ZN27fjGetSuitableRandomRotationER6RandomP9LevelDataii = 0x3cbb58
_ZN13WoodSlabBlock15blockStaticCtorEv = 0x3d1e08
_ZN13WoodSlabBlock11DerivedInitEv = 0x3d1e84
_ZN13WoodSlabBlock11getMapColorEPK10BlockStateP11LevelSourceRK8BlockPos = 0x3d1f4c
_ZN13WoodSlabBlock11getResourceEPK10BlockStateP6Randomi = 0x3d1f74
_ZN13WoodSlabBlock20getCloneItemInstanceEP5LevelRK8BlockPosPK10BlockState = 0x3d1f84
_ZN13WoodSlabBlock13getBlockStateEi = 0x3d2068
_ZN13WoodSlabBlock29convertBlockStateToLegacyDataEPK10BlockState = 0x3d2114
_ZN13WoodSlabBlock26createBlockStateDefinitionEv = 0x3d21a0
_ZN13WoodSlabBlock25getSpawnResourcesAuxValueEPK10BlockState = 0x3d227c
_ZN13WoodSlabBlock10getTextureEPK9DirectionPK10BlockState = 0x3d22a4
_ZN13WoodSlabBlock13registerIconsEP12IconRegister = 0x3d2318
_ZN13WoodSlabBlock16getDescriptionIdEi = 0x3d231c
_ZN15WoolCarpetBlock15blockStaticCtorEv = 0x3d2364
_ZN15WoolCarpetBlock21hasInHandRenderOffsetEv = 0x3d2464
_ZN15WoolCarpetBlock16addCollisionAABBERK8BlockPosPK4AABBPSt6vectorIP4AABBSt9allocatorIP4AABBEEPK4AABB = 0x3d246c
_ZN15WoolCarpetBlock8getShapeEPK10BlockStateP11LevelSourceRK8BlockPos = 0x3d24e8
_ZN15WoolCarpetBlock11getMapColorEPK10BlockStateP11LevelSourceRK8BlockPos = 0x3d24f8
_ZNK15WoolCarpetBlock13isSolidRenderEPK10BlockState = 0x3d2520
_ZN15WoolCarpetBlock12isCubeShapedEPK10BlockState = 0x3d2528
_ZN15WoolCarpetBlock8mayPlaceEP5LevelRK8BlockPos = 0x3d2530
_ZN15WoolCarpetBlock15neighborChangedEPK10BlockStateP5LevelRK8BlockPosP5BlockRK8BlockPos = 0x3d25c0
_ZN15WoolCarpetBlock16shouldRenderFaceEPK10BlockStateP11LevelSourceRK8BlockPosPK9Direction = 0x3d264c
_ZN15WoolCarpetBlock25getSpawnResourcesAuxValueEPK10BlockState = 0x3d2704
_ZN15WoolCarpetBlock13getBlockStateEi = 0x3d272c
_ZN15WoolCarpetBlock29convertBlockStateToLegacyDataEPK10BlockState = 0x3d2778
_ZN15WoolCarpetBlock26createBlockStateDefinitionEv = 0x3d27a0
_ZN15WoolCarpetBlock17getBlockFaceShapeEP11LevelSourcePK10BlockStateRK8BlockPosPK9Direction = 0x3d2814
_ZN15WoolCarpetBlock10getTextureEPK9DirectionPK10BlockState = 0x3d2830
_ZN15WoolCarpetBlock13registerIconsEP12IconRegister = 0x3d28a4
_ZN11WorldBorderC1EP5Level = 0x3d28a8
_ZN11WorldBorderD2Ev = 0x3d2900
_ZN11WorldBorderD0Ev = 0x3d294c
_ZN11WorldBorder14isWithinBoundsERK8BlockPos = 0x3d2970
_ZN11WorldBorder7getMinXEv = 0x3d2a18
_ZN11WorldBorder7getMaxXEv = 0x3d2a74
_ZN11WorldBorder7getMinZEv = 0x3d2ad0
_ZN11WorldBorder7getMaxZEv = 0x3d2b2c
_ZN11WorldBorder14isWithinBoundsEP4AABB = 0x3d2b88
_ZN11WorldBorder19getDistanceToBorderESt10shared_ptrI6EntityE = 0x3d2c04
_ZN11WorldBorder19getDistanceToBorderEdd = 0x3d2c14
_ZN11WorldBorder9getStatusEv = 0x3d2ca8
_ZN11WorldBorder7getSizeEv = 0x3d2cd8
_ZN11WorldBorder10getCenterXEv = 0x3d2d5c
_ZN11WorldBorder10getCenterZEv = 0x3d2d64
_ZN11WorldBorder12getListenersEv = 0x3d2de0
_ZN11WorldBorder7setSizeEd = 0x3d2de8
_ZN11WorldBorder11addListenerEP20BorderChangeListener = 0x3d2eec
_ZN11WorldBorder17getDamageSafeZoneEv = 0x3d2f3c
_ZN11WorldBorder17getDamagePerBlockEv = 0x3d2fac
_ZN8XZPacketD2Ev = 0x3d3cc0
_ZN8XZPacketD0Ev = 0x3d3ce8
_ZN8XZPacketC1Ev = 0x3d3d0c
_ZN8XZPacketC1Ecii = 0x3d3d48
_ZN8XZPacket6handleEP14PacketListener = 0x3d3d98
_ZN8XZPacket4readEP15DataInputStream = 0x3d3de8
_ZN8XZPacket5writeEP16DataOutputStream = 0x3d3e44
_ZN8XZPacket16getEstimatedSizeEv = 0x3d3e9c
_ZN6Zombie10staticCtorEv = 0x3d3ef0
_ZN6Zombie14addDataWalkersEP14DataFixerUpper = 0x3d5364
_ZN11ZombieHorse14addDataWalkersEP14DataFixerUpper = 0x3d62d0
_ZN14ZombieVillager10staticCtorEv = 0x3d69d4
_ZN14ZombieVillager14addDataWalkersEP14DataFixerUpper = 0x3d6b2c
_ZN9ZoomLayerC1ExNSt3__110shared_ptrI5LayerEE = 0x3d7a0c
_ZN14FuzzyZoomLayer7getAreaEiiii = 0x3d7a8c
_ZN9ZoomLayer4zoomExNSt3__110shared_ptrI5LayerEEi = 0x3d7da4
_ZN3TagD0Ev = 0x3d7e8c
_ZN10SlimeBlockD0Ev = 0x3d82d4
_ZN4SlotD0Ev = 0x3d82f8
_ZN11SmoothLayerD0Ev = 0x3d834c
_ZN9SnowBlockD0Ev = 0x3d83f8
_ZN14SnowLayerBlockD0Ev = 0x3d8440
_ZN13SoulSandBlockD0Ev = 0x3d8588
_ZN11SpongeBlockD0Ev = 0x3d8754
_ZN13SpringFeatureD0Ev = 0x3d8778
_ZN17StainedGlassBlockD0Ev = 0x3d8878
_ZN14ThinFenceBlockD0Ev = 0x3d889c
_ZN14ThinFenceBlockD2Ev = 0x3d88c0
_ZN21StainedGlassPaneBlockD0Ev = 0x3d8904
_ZN24StainedHardenedClayBlockD0Ev = 0x3d8928
_ZN10StairBlockD0Ev = 0x3d894c
_ZN17StandingSignBlockD0Ev = 0x3d8970
_ZN17StaticLiquidBlockD0Ev = 0x3d8a14
_ZN9StemBlockD0Ev = 0x3d8a38
_ZN10StoneBlockD0Ev = 0x3d8a5c
_ZN15StoneBrickBlockD0Ev = 0x3d8a80
_ZN16StoneButtonBlockD0Ev = 0x3d8aa4
_ZN14StoneSlabBlockD0Ev = 0x3d8ac8
_ZN9StringTagD1Ev = 0x3d8b2c
_ZN9StringTagD0Ev = 0x3d8b60
_ZN14StructureBlockD0Ev = 0x3d8e64
_ZN18StructureVoidBlockD0Ev = 0x3d8e88
_ZN14TallGrassBlockD0Ev = 0x3d907c
_ZN30TextureAndGeometryChangePacketD2Ev = 0x3d915c
_ZN30TextureAndGeometryChangePacketD0Ev = 0x3d91a0
_ZN30TextureAndGeometryChangePacket11getPacketIdEv = 0x3d91c4
_ZN24TextureAndGeometryPacket11getPacketIdEv = 0x3d91cc
_ZN19TextureChangePacketD2Ev = 0x3d91d4
_ZN19TextureChangePacketD0Ev = 0x3d9218
_ZN19TextureChangePacket11getPacketIdEv = 0x3d923c
_ZN13TexturePacket11getPacketIdEv = 0x3d9244
_ZN17ThornsEnchantmentD0Ev = 0x3d92e0
_ZN8TntBlockD0Ev = 0x3d9600
_ZN10TorchBlockD0Ev = 0x3d9648
_ZN15TradeItemPacketD2Ev = 0x3d966c
_ZN15TradeItemPacketD0Ev = 0x3d9694
_ZN15TradeItemPacket11getPacketIdEv = 0x3d96b8
_ZN16TransparentBlockD0Ev = 0x3d9724
_ZN13TrapDoorBlockD0Ev = 0x3d9748
_ZN13TripWireBlockD0Ev = 0x3d97e8
_ZN17TripWireHookBlockD0Ev = 0x3d980c
_ZN21UntouchingEnchantmentD0Ev = 0x3d9830
_ZN28UpdateGameRuleProgressPacketD2Ev = 0x3d9854
_ZN28UpdateGameRuleProgressPacketD0Ev = 0x3d9898
_ZN28UpdateGameRuleProgressPacket11getPacketIdEv = 0x3d98bc
_ZN20UpdateProgressPacketD2Ev = 0x3d98c4
_ZN20UpdateProgressPacketD0Ev = 0x3d98ec
_ZN20UpdateProgressPacket11getPacketIdEv = 0x3d9910
_ZN25VanishingCurseEnchantmentD0Ev = 0x3d9918
_ZN9VineBlockD0Ev = 0x3d9ef0
_ZN11VoronoiZoomD0Ev = 0x3d9f88
_ZN10VotePacketD2Ev = 0x3d9fac
_ZN10VotePacketD0Ev = 0x3d9fd4
_ZN10VotePacket11getPacketIdEv = 0x3d9ff8
_ZN9WallBlockD0Ev = 0x3da000
_ZN13WallSignBlockD0Ev = 0x3da024
_ZN14WaterlilyBlockD0Ev = 0x3da124
_ZN16WaterlilyFeatureD0Ev = 0x3da16c
_ZN22WaterWorkerEnchantmentD0Ev = 0x3da190
_ZN8WebBlockD0Ev = 0x3da1d8
_ZN26WeightedPressurePlateBlockD0Ev = 0x3da1fc
_ZN15WoodButtonBlockD0Ev = 0x3da51c
_ZN13WoodSlabBlockD0Ev = 0x3da684
_ZN15WoolCarpetBlockD0Ev = 0x3da6a8
_ZN8XZPacket11getPacketIdEv = 0x3da714
_ZN17YellowFlowerBlockD0Ev = 0x3da71c
_ZN9ZoomLayerD0Ev = 0x3da800
_ZNSt3__110shared_ptrI20UpdateProgressPacketEC2IS1_EERKNS_8weak_ptrIT_EENS_9enable_ifIXsr14is_convertibleIPS5_PS1_EE5valueENS2_5__natEE4typeE = 0x3ee318
_ZNSt3__110shared_ptrI10VotePacketEC2IS1_EERKNS_8weak_ptrIT_EENS_9enable_ifIXsr14is_convertibleIPS5_PS1_EE5valueENS2_5__natEE4typeE = 0x3ef738
_ZNSt6vectorIP20BorderChangeListenerSaIS1_EE9push_backERKS1_ = 0x3f17f8
_ZNSt3__110shared_ptrI8XZPacketEC2IS1_EERKNS_8weak_ptrIT_EENS_9enable_ifIXsr14is_convertibleIPS5_PS1_EE5valueENS2_5__natEE4typeE = 0x3f19c4
_ZN11SoundEngineC1Ev = 0x3f35f4
_ZN11ColourTable10staticCtorEv = 0x3faa70
_ZN10DLCManagerC1Ev = 0x3fca24
_ZN10DLCManager15LanguageChangedEv = 0x3fce1c
_ZN7DLCPack9GetPackIdEv = 0x3fd000
_ZN7DLCPack16hasPurchasedPackEv = 0x3fd234
_ZN10FJ_FuiNode8getStageEv = 0x400a80
_ZN10FJ_FuiNode16addEventListenerE12eFJEventTypePS_PFvS1_P8FJ_EventEb = 0x400a9c
_ZN10FJ_FuiNode11asMovieClipEv = 0x400bec
_ZN10FJ_FuiNode10getChildAtEi = 0x400f58
_ZN7FJ_Base16getObjListParentEv = 0x401218
_ZN7FJ_Base5getIdEv = 0x401240
_ZN7FJ_Base15getLabelTooWideEv = 0x401250
_ZN7FJ_Base11getOldWidthEv = 0x401260
_ZN10FJ_FuiNode8getWidthEv = 0x401278
_ZN10FJ_FuiNodeC1EP13fuiRenderNode = 0x401364
_ZN10FJ_FuiNode14getNumChildrenEv = 0x401680
_ZN10FJ_FuiNode9getHeightEv = 0x401c60
_ZN10FJ_FuiNode9setScaleXEf = 0x401c78
_ZN10FJ_FuiNode9setScaleYEf = 0x401c80
_ZN10FJ_FuiNode8setWidthEf = 0x402c70
_ZN7FJ_Base7getTypeEv = 0x402d74
_ZN10FJ_FuiNode13dispatchEventEP8FJ_Event = 0x40310c
_ZN15FJ_FuiNodeStage14getStageHeightEv = 0x4038a0
_ZN11FJ_Document8SetFocusEi = 0x404560
_ZN10FJ_FuiNode9asFJ_BaseEv = 0x4046e8
_ZN15FJ_FuiNodeStage8setFocusEP10FJ_FuiNode = 0x404714
_ZN10FJ_FuiNode11getTabIndexEv = 0x4047b0
_ZN15FJ_FuiNodeStage8getFocusEv = 0x404d24
_ZN10FJ_FuiNode9asFJ_ListEv = 0x404d50
_ZN8FJ_EventC1E12eFJEventTypebb = 0x406414
_ZN16FJ_KeyboardEventC1Ebibb = 0x40642c
_ZN17FJ_MouseMoveEventC1Effbb = 0x406464
_ZN15FJ_FuiNodeStage11removeFocusEP10FJ_FuiNode = 0x4064c4
_ZN10FJ_FuiNodeD0Ev = 0x406520
_ZN10FJ_FuiNode13ASConstructorEv = 0x406544
_ZN10FJ_FuiNode20asFJ_List_MenuButtonEv = 0x4067dc
_ZN10FJ_FuiNode20asFJ_List_ListButtonEv = 0x406808
_ZN10FJ_FuiNode30asFJ_List_ListButtonPlayerListEv = 0x406850
_ZN10FJ_FuiNode13asFJ_DocumentEv = 0x406c74
_ZN10FJ_FuiNode13isFJ_DocumentEv = 0x406ca0
_ZN10FJ_FuiNode4setXEf = 0x406f2c
_ZN10FJ_FuiNode4setYEf = 0x406f8c
_ZN10FJ_FuiNode9setHeightEf = 0x406f9c
_ZN10FJ_FuiNode10setVisibleEb = 0x406ffc
_ZN10FJ_FuiNode11eventListenEP8FJ_Eventb = 0x407148
_ZN10FJ_FuiNode7getTypeEv = 0x407228
_ZN10FJ_FuiNode16setCallbackSceneEP7UIScene = 0x407230
_ZN15FJ_FuiNodeStageC1EP13fuiRenderNode = 0x407284
_ZN7FJ_List4InitEi = 0x407e14
_ZNSt3__1plIcNS_11char_traitsIcEENS_9allocatorIcEEEENS_12basic_stringIT_T0_T1_EERKS9_PKS6_ = 0x40d280
_ZN7FJ_BaseD0Ev = 0x437900
_ZN7FJ_BaseD2Ev = 0x438244
_ZN10FJ_FuiNodeD2Ev = 0x43868c
_ZN10DLCManager24IsDlcPackTemporarilyFreeEi = 0x43c740
_ZN13fuiRenderNode9setScaleXEf = 0x442e84
_ZN13fuiRenderNode9setScaleYEf = 0x442ee0
_ZN13fuiRenderNode8setAlphaEf = 0x4431bc
_ZN10FJ_Factory12createObjectEPKcP13fuiRenderNodebPKc = 0x4439f8
_ZN18FJ_List_MenuButton10addNewItemEv = 0x445f5c
_ZN17FJ_Panel9GridFadeC1EP13fuiRenderNode = 0x448e28
_ZN18FJ_DynamicHtmlText4InitEv = 0x44a494
_ZN18FJ_DynamicHtmlText15_keyDownHandlerEP10FJ_FuiNodeP8FJ_Event = 0x44a858
_ZN18FJ_DynamicHtmlText13_keyUpHandlerEP10FJ_FuiNodeP8FJ_Event = 0x44a85c
_ZN10FJ_Factory10initialiseEv = 0x44c1cc
_ZN13fuiRenderNode4getYEv = 0x48458c
_ZN13fuiRenderNode4getXEv = 0x4856e0
_ZN13fuiRenderNode10asTimelineEv = 0x486280
_ZN3fuiC1Ev = 0x487ad0
_ZN3fui13setScreenSizeEff = 0x487be4
_ZN3fui4loadE15arrayWithLengthIhEbi = 0x487c14
_ZN7fuiFile4loadE15arrayWithLengthIhEi = 0x487eec
_ZN7fuiFile8setIndexEi = 0x488120
_ZN3fui26allocatePermanentFileIndexEi = 0x488128
_ZN7fuiFile17resolveReferencesEPS_ = 0x4881a4
_ZN18fuiRenderNodeStage8addChildEP13fuiRenderNode = 0x4882ac
_ZN3fui11unloadSceneEP7fuiFile = 0x4882b4
_ZN3fui13setResolutionEi = 0x4883d8
_ZN3fui13getResolutionEv = 0x488408
_ZN3fui4tickEv = 0x488410
_ZN3fui6renderEP7fuiFileffff = 0x488588
_ZN3fui9preRenderEP7fuiFile = 0x4887c4
_ZN3fui21dispatchKeyboardEventEP7fuiFilebi = 0x48882c
_ZN3fui22dispatchMouseMoveEventEP7fuiFileff = 0x488894
_ZN3fui23dispatchEnterFrameEventEv = 0x4888fc
_ZN13fuiRenderNode11disableCtorEv = 0x4889b8
_ZN7fuiFile20createNodeFromSymbolEPKcP13fuiRenderNodei = 0x4889c8
fuiRenderNodeTimeline__addFrameAction = 0x488b00
_ZN3fui22addDirectEventListenerERK16FJ_EventListener = 0x488c6c
_ZN3fui25removeDirectEventListenerERK16FJ_EventListener = 0x488cd8
_ZN3fui26removeEventListenerForNodeEP10FJ_FuiNode = 0x488da0
fui__setCustomTextureFn = 0x488e60
_ZN3fui13manageTextureEP7fuiFileP9fuiBitmap = 0x488ea8
_ZN3fui20removeManagedTextureEP7fuiFileP9fuiBitmap = 0x488f94
_ZN17fuiTextureManager20removeManagedTextureEP7fuiFileP9fuiBitmap = 0x488f9c
_ZN3fui18setFontIndirectionEPKcS1_ = 0x489294
_ZN13fuiBitmapFontC1ER9SFontDatat = 0x489694
_ZN13fuiBitmapFont12registerFontEv = 0x489854
_ZN7fuiFileC1Ev = 0x489f04
_ZN7fuiFileD1Ev = 0x489f18
_ZN7fuiFile13addDataRegionEjjPPhPFvPvE = 0x489fd8
_ZN16fuiTimelineEventaSERK25fuiTimelineEvent_version0 = 0x489ff8
_ZN7fuiFile23initialiseRenderTextureEP9fuiBitmapb = 0x48a07c
_ZN7fuiFile11getRootNodeEv = 0x48a2b0
_ZN7fuiFile21setCustomDrawCallbackEPFvPvPKcP7fuiRectES0_ = 0x48a2b8
_ZN7fuiFile13getStageWidthEv = 0x48a2c0
_ZN7fuiFile14getStageHeightEv = 0x48a2c8
_ZN13fuiRenderNodeC1EPS_S0_P9fuiObjectj14eFuiObjectTypehP7fuiRGBAhbP7fuiFile = 0x48a2d0
_ZN13fuiRenderNodeD2Ev = 0x48a3dc
_ZN13fuiRenderNodeD0Ev = 0x48a420
_ZN13fuiRenderNode8shutdownEv = 0x48a444
_ZN13fuiRenderNode18handleAddedToStageEv = 0x48a448
_ZN13fuiRenderNode8getStageEv = 0x48a498
_ZN13fuiRenderNode10pushMatrixEv = 0x48a4b0
_ZN9fuiMatrix3mulERKS_S1_RS_ = 0x48a5a0
_ZN13fuiRenderNode9pushColorEv = 0x48a5a8
_ZN13fuiRenderNode8popColorEv = 0x48a674
_ZN13fuiRenderNode15pushFilterFlagsEv = 0x48a690
_ZN13fuiRenderNode14popFilterFlagsEv = 0x48a6cc
_ZN13fuiRenderNode9popMatrixEv = 0x48a6e8
_ZN13fuiRenderNode13setVisibilityEb = 0x48a718
_ZN13fuiRenderNode9isVisibleEv = 0x48a734
_ZN13fuiRenderNode4setXEf = 0x48a748
_ZN13fuiRenderNode15progogateBoundsEv = 0x48a778
_ZN13fuiRenderNode4setYEf = 0x48a79c
_ZN13fuiRenderNode8setWidthEf = 0x48a7cc
_ZN13fuiRenderNode9getScaleXEv = 0x48a858
_ZN13fuiRenderNode9setHeightEf = 0x48a8a4
_ZN13fuiRenderNode9getScaleYEv = 0x48a904
_ZN13fuiRenderNode8getWidthEv = 0x48a950
_ZN13fuiRenderNode9getHeightEv = 0x48a980
_ZN13fuiRenderNode20getParentSpaceBoundsEP7fuiRect = 0x48a9b0
_ZN13fuiRenderNode8findNodeEPKc = 0x48aa14
_ZN13fuiRenderNode15getNodeFromPathEPKc = 0x48aa40
_ZN13fuiRenderNode20generateGlobalMatrixEv = 0x48aa88
_ZN21fuiRenderNodeTimeline24progogateBoundsFromChildEv = 0x48aaf4
_ZN19fuiRenderNodeBitmapC1EP13fuiRenderNodeS1_P9fuiObjectjhP7fuiRGBAhbP7fuiFile = 0x48acf0
_ZN19fuiRenderNodeBitmap6renderEP7fuiRectP9fuiMatrix = 0x48ada4
_ZN18fuiRenderNodeStageC1EP7fuiFile = 0x48ef10
_ZN21fuiRenderNodeTimelineC1EP13fuiRenderNodeS1_P9fuiObjectjhP7fuiRGBAhbP7fuiFile = 0x48f040
_ZN21fuiRenderNodeTimeline21expandBoundsFromChildER7fuiRect = 0x490108
_ZN21fuiRenderNodeTimeline17updateBoundsLocalEv = 0x4918dc
_ZN17fuiTextureManagerC1Ev = 0x491974
_ZN17fuiTextureManager10initialiseEv = 0x4919a0
_ZN14MasterGameMode16BlockDestroyedAtERK8BlockPos = 0x495028
_ZN20ClientMasterGameModeC1Ev = 0x497a68
_ZN11MiniGameDef21GetCustomGameModeByIdE11EMiniGameIdb = 0x4992d4
_ZNK20CommonMasterGameMode15GetNextGameModeEv = 0x4992e8
_ZN20ClientMasterGameMode13IsPlayerReadyEj = 0x499968
_ZNK20ClientMasterGameMode16IsWaitingToStartEv = 0x49a230
_ZNK20ClientMasterGameMode15IsRoundStartingEv = 0x49a240
_ZNK20ClientMasterGameMode16IsInScoringStateEv = 0x49a280
_ZN20ClientMasterGameMode21isWaitingToTransitionEv = 0x49af9c
_ZN20ClientMasterGameMode13popTransitionEv = 0x49b014
_ZN19_LoadingInputParams21_LoadingInputParams_2Ev = 0x49bca0
_ZN19GameModeConstraints14isInputAllowedEi = 0x4a27b4
_ZN15GhostController11GhostRecordD2Ev = 0x4aadd0
_ZN15GhostControllerD2Ev = 0x4ab5bc
_ZN15GhostController4tickEv = 0x4abe64
_ZN15GhostController12canBeDeletedEv = 0x4ac064
_ZN8GameModeD1Ev = 0x4acf84
_ZN13GhostGameModeD1Ev = 0x4acf88
_ZN13GhostGameModeD0Ev = 0x4acf8c
_ZN13GhostGameMode17startDestroyBlockERK8BlockPosPK9Direction = 0x4acfb0
_ZN13GhostGameMode4tickEv = 0x4acfb8
_ZN13GhostGameMode7useItemENSt3__110shared_ptrI6PlayerEEP5LevelN15InteractionHand16EInteractionHandEb = 0x4acfbc
_ZN13GhostGameMode11SetGameTypeEPK8GameType = 0x4acfc4
_ZN13GhostGameMode11GetGameTypeEv = 0x4acfc8
_ZN13GhostGameMode11GetMiniGameEv = 0x4acfd0
_ZN13GhostGameMode9GetPlayerEv = 0x4acfe8
_ZN13GhostGameMode8GetLevelEv = 0x4ad068
_ZN13GhostGameMode20RecordLastCheckpointEiibbb = 0x4ad070
_ZN13GhostGameMode18RecordLapCompletedEv = 0x4ad094
_ZN13GhostGameMode14RecordProgressEdddd = 0x4ad0d0
_ZN14MasterGameMode10StaticCtorEv = 0x4b0bb0
_ZN11MiniGameDef10StaticCtorEv = 0x4c3858
_ZN11MiniGameDefC1E11EMiniGameId = 0x4c3ac8
_ZN11MiniGameDef15LockedInventoryEv = 0x4c917c
_ZNK11MiniGameDef8CanCraftEv = 0x4ca29c
_ZNK11MiniGameDef30HasFeatureDirectionalFireworksEv = 0x4cd0e0
_ZN14MiniGameMedals10staticCtorEv = 0x4cd854
_ZN36CollisionExceptionGameRuleDefinition17ShouldCollideWithEP5Block = 0x4d8c74
_ZN8GameMode12RecordDamageENSt3__110shared_ptrI6EntityEEP11CombatEntryNS1_I21ClientboundChatPacketEE = 0x4dae18
_ZN8GameMode11RecordDeathENSt3__110shared_ptrI6EntityEE = 0x4dae1c
_ZN8GameMode10RecordItemE12not_null_ptrI12ItemInstanceE = 0x4dae20
_ZN8GameMode15RecordContainerEiiii = 0x4dae24
_ZN8GameMode10RecordWalkEibb = 0x4dae28
_ZN8GameMode10RecordSwimEib = 0x4dae2c
_ZN8GameMode11RecordClimbEi = 0x4dae30
_ZN8GameMode13RecordUseItemE12not_null_ptrI12ItemInstanceE = 0x4dae34
_ZN8GameMode10RecordJumpEv = 0x4dae38
_ZN8GameMode16RecordGainPointsEi = 0x4dae3c
_ZN8GameMode15ResetTempPointsEv = 0x4dae40
_ZN8GameMode28RecordSecondaryTargetReachedERKNSt3__112basic_stringIwNS0_11char_traitsIwEENS0_9allocatorIwEEEEiN18GlideRingGenerator14eGlideRingSizeE = 0x4dae44
_ZN8GameMode20RecordThermalEnteredEv = 0x4dae4c
_ZN8GameMode25RecordSpawnedAtCheckpointEi = 0x4dae50
_ZN8GameMode17RecordBlockPlacedERK8BlockPosi = 0x4dae54
_ZN8GameMode20RecordBlockDestroyedERK8BlockPosi = 0x4dae58
_ZN8GameMode18RecordBlockPresentERK8BlockPosi = 0x4dae5c
_ZN8GameMode15RecordLayerTimeEv = 0x4dae60
_ZN8GameMode17RecordSnowballHitEv = 0x4dae64
_ZN8GameMode19RecordHitBySnowballEv = 0x4dae68
_ZN8GameMode13RecordLandingERK8BlockPos = 0x4dae6c
_ZN8GameMode11OnMouseDownEv = 0x4dae70
_ZN7fuiFile24dumpUnresolvedReferencesEv = 0x4e2978
_ZN11Compression7SetTypeENS_17ECompressionTypesE = 0x4fceac
_ZN23NamedAreaRuleDefinition7getAreaEv = 0x4ffea8
_ZNSt3__110to_wstringEf = 0x504864
_ZN15GameRuleManager13saveGameRulesEPPhPj = 0x5073ac
_ZN12LevelRuleset14getStringTableEv = 0x50760c
_ZN15GameRuleManager13writeRuleFileEP16DataOutputStream = 0x507614
_ZN15GameRuleManager25getLevelGenerationOptionsEv = 0x5079cc
_ZN22LevelGenerationOptions20getRequiredGameRulesEv = 0x508c70
_Z9_toStringIlENSt3__112basic_stringIwNS0_11char_traitsIwEENS0_9allocatorIwEEEET_ = 0x50db5c
_ZN22LevelGenerationOptions16getBiomeOverrideEiPN5Biome9BlockPairES2_ = 0x50eb18
requiresBaseSave__22LevelGenerationOptionsFv = 0x50f358
info__22LevelGenerationOptionsFv = 0x50f4a0
deleteBaseSaveData__22LevelGenerationOptionsFv = 0x50f880
getBaseSaveData__22LevelGenerationOptionsFRUi = 0x50f8b0
_ZN22LevelGenerationOptions14getFogDistanceEv = 0x50f918
_ZN12LevelRuleset11getRuleTypeEv = 0x50fd60
_ZN12LevelRuleset13getNamedAreasEiPNSt3__16vectorI4AABBNS0_9allocatorIS2_EEEE = 0x510ca8
_ZN12LevelRuleset19getActiveChunkAreasEPNSt3__16vectorI4AABBNS0_9allocatorIS2_EEEE = 0x510d44
__CPR129__getKillboxes__12LevelRulesetFPQ2_3std90vector__tm__76_P21KillboxRuleDefinitionQ2_3std42allocator__tm__25_PJ55J = 0x51124c
_ZN12LevelRuleset17ShouldCollideWithEP5Block = 0x5114a8
_ZN14InfoBarManager19StartTimingCategoryENS_15eTimingCagegoryE = 0x5149ec
_ZN14InfoBarManager17EndTimingCategoryENS_15eTimingCagegoryE = 0x5149f0
_ZN19CGameNetworkManager10InitialiseEv = 0x515370
_ZN19CGameNetworkManager6DoWorkEv = 0x515464
_ZN19CGameNetworkManager6IsHostEv = 0x515580
_ZN19CGameNetworkManager13IsLeavingGameEv = 0x516060
_ZN19CGameNetworkManager11IsInSessionEv = 0x5162c0
_ZN19ConsoleUIController15IsReloadingSkinEv = 0x5163c8
_ZN19ConsoleUIController17CleanUpSkinReloadEv = 0x51644c
_ZN19CGameNetworkManager14GetPlayerCountEv = 0x5165b8
_ZN19CGameNetworkManager11IsLocalGameEv = 0x5165d0
_ZN19CGameNetworkManager12SetLocalGameEb = 0x5167a0
_ZN19ConsoleUIController19RequestErrorMessageEiiPijjPFiPviN10C4JStorage14EMessageResultEES1_Pwb = 0x516f30
_ZN19ConsoleUIController14IsSceneInStackEi8EUIScene = 0x517b00
_ZN19ConsoleUIController15NavigateToSceneEi8EUIScenePv8EUILayer8EUIGroup = 0x517ea4
_ZN19ConsoleUIController4tickEv = 0x519300
_ZN19ConsoleUIController6renderEv = 0x5195d0
_ZN19ConsoleUIController16GetMenuDisplayedEi = 0x51b064
_ZN8TutorialC1EiP19GameModeConstraintsbb = 0x51e798
_ZN8Tutorial17setStateCompletedE15eTutorial_State = 0x5209e4
_ZN8Tutorial4tickEv = 0x520c50
_ZN8Tutorial10staticCtorEv = 0x524554
_ZN8Tutorial8AddHintsEv = 0x52946c
_ZN8TutorialD0Ev = 0x52ff2c
_ZN8Tutorial16isStateCompletedE15eTutorial_State = 0x52ff50
_ZN19ConsoleUIController20IsPauseMenuDisplayedEi = 0x530174
_ZN8Tutorial9useItemOnE12not_null_ptrI12ItemInstanceEb = 0x530968
_ZN8Tutorial8onLookAtEPK10BlockState = 0x531314
_ZN8Tutorial13onLookAtSkullEP5LevelRK8BlockPosPK10BlockState = 0x5313e0
_ZN8Tutorial16onGameModeChangeE18eTutorial_GameMode = 0x5317e0
_ZN8Tutorial19changeTutorialStateE15eTutorial_StateP7UIScene = 0x531a44
_ZN19ConsoleUIController9PlayUISFXEPK10SoundEvent = 0x53546c
_ZN19ConsoleUIController11SetTooltipsEjiiiiiiiiiiiiiiiibb = 0x5354fc
_ZN19ConsoleUIController12NavigateBackEib8EUIScene8EUILayer = 0x5356bc
_ZN20UIControl_ButtonList7addItemERKNSt3__112basic_stringIwNS0_11char_traitsIwEENS0_9allocatorIwEEEEi = 0x54371c
_ZN14UIControl_List19setCurrentSelectionEibb = 0x543ef4
_ZN7UISceneC2EiP7UILayer = 0x544a5c
_ZN7UIScene4tickEv = 0x545370
_ZN19ConsoleUIController15TouchBoxRebuildEP7UIScene = 0x545fac
_ZN7UIScene12navigateBackEv = 0x5475bc
_ZN16UIComponent_ChatC1EiP7UILayer = 0x54b62c
_ZN7UIScene15initialiseMovieEv = 0x54b8dc
_ZN15UIControl_Label4initE8UIString = 0x54b924
_ZN7UILayer11getViewportEv = 0x54bab4
_ZN7UIScene6renderEiiN9C4JRender13eViewportTypeE = 0x54bf60
_ZN26UIComponent_DebugUIConsoleC1EiP7UILayer = 0x54bfe4
_ZN33UIComponent_DebugUIMarketingGuideC1EiP7UILayer = 0x54c19c
_ZN16UIComponent_LogoC1EiP7UILayer = 0x54c214
_ZN26UIComponent_MenuBackgroundC1EiP7UILayer = 0x54c2f8
_ZN20UIComponent_PanoramaC1EiP7UILayer = 0x54c540
_ZN28UIComponent_PressStartToPlayC1EiP7UILayer = 0x54c91c
_ZN9UIControl10setVisibleEb = 0x54cabc
_ZN28UIComponent_PressStartToPlay10handleHoldEiibbbRb = 0x54d67c
_ZN28UIComponent_PressStartToPlay31GetHoldToShowAchievementsActiveEb = 0x54d788
_ZN19ConsoleUIController21CloseAllPlayersScenesEb = 0x54d7d8
_ZN20UIComponent_TooltipsC1EiP7UILayer = 0x54db94
_ZN7UIScene16sendInputToMovieEibbb = 0x54f940
_ZN25UIComponent_TutorialPopupC1EiP7UILayer = 0x54f9a8
_ZN7UILayer13showComponentEi8EUISceneb = 0x55270c
_ZN9UIControlC1Ev = 0x553084
_ZN9UIControl12setupControlEP7UISceneP13fuiRenderNodeRKNSt3__112basic_stringIcNS4_11char_traitsIcEENS4_9allocatorIcEEEE = 0x5530e8
_ZN9UIControl13UpdateControlEv = 0x553194
_ZN9UIControl6ReInitEv = 0x5531f4
_ZN9UIControl7getXPosEv = 0x553244
_ZN9UIControl7getYPosEv = 0x55324c
_ZN9UIControl10getVisibleEb = 0x5532a8
_ZN9UIControl15removeUINodeRefEv = 0x5532d8
_ZN19ConsoleUIController4initEii = 0x553380
_ZN19ConsoleUIController7preInitEii = 0x5533ec
_ZN19ConsoleUIController8postInitEv = 0x553408
_ZN19ConsoleUIControllerC1Ev = 0x553648
ConsoleUIController__TextureSubstitutionCreateCallbackFui = 0x553aa8
_ZN19ConsoleUIController37TextureSubstitutionDestroyCallbackFuiEi = 0x553ba8
_ZN19ConsoleUIController9SetupFontEv = 0x553bd0
_ZN19ConsoleUIController9loadSkinsEv = 0x553e84
_ZN19ConsoleUIController18getFontForLanguageEi = 0x554688
_ZN19ConsoleUIController10createFontEN19ConsoleUIController5EFontE = 0x5546cc
_ZN19ConsoleUIController17updateCurrentFontEv = 0x554a44
_ZN19ConsoleUIController18getCleanupOnReloadEv = 0x554ab8
_ZN7UIGroup14closeAllScenesEv = 0x554ae4
_ZN7UIGroup13ClearTooltipsEv = 0x554b7c
_ZN19ConsoleUIController9tickInputEv = 0x554c08
_ZN7UIGroup4tickEv = 0x554c50
_ZN7UIGroup15ReloadAllLayersEv = 0x554dd8
_ZN19ConsoleUIController6setUnkEb = 0x554e50
_ZN19ConsoleUIController12getMovieDataERKNSt3__112basic_stringIwNS0_11char_traitsIwEENS0_9allocatorIwEEEE = 0x555278
_ZN19ConsoleUIController16_CachedMovieDataC2Ev = 0x555340
_ZNSt3__113unordered_mapINS_12basic_stringIwNS_11char_traitsIwEENS_9allocatorIwEEEEN19ConsoleUIController16_CachedMovieDataENS_4hashIS6_EENS_8equal_toIS6_EENS4_INS_4pairIKS6_S8_EEEEEixERSE_ = 0x555344
_ZN19ConsoleUIController11handleInputEv = 0x555634
_ZN19ConsoleUIController14handleKeyPressEjj = 0x555a4c
_ZN7UIGroup15getCurrentSceneEi = 0x555fb4
_ZN19ConsoleUIController11TouchBoxHitEP7UISceneii = 0x55605c
_ZN19ConsoleUIController16HandleTouchInputEjjbbb = 0x5561c8
_ZN7UIGroup11handleInputEiibbbRb = 0x556d04
_ZN19ConsoleUIController19setupRenderPositionEN9C4JRender13eViewportTypeE = 0x557044
_ZN19ConsoleUIController16SetMenuDisplayedEib = 0x5576c0
_ZN7UIGroup15NavigateToSceneEi8EUIScenePv8EUILayer = 0x557898
_ZN19ConsoleUIController8GetGroupEi = 0x557c34
_ZN7UIGroup14IsSceneInStackE8EUIScene = 0x55812c
_ZN19ConsoleUIController18CheckMenuDisplayedEv = 0x5581d0
_ZN19ConsoleUIController15AnimateKeyPressEiibbb = 0x558558
_ZN19ConsoleUIController10GetHotBarXEj = 0x558a90
_ZN19ConsoleUIController10GetHotBarYEj = 0x558b3c
_ZN19ConsoleUIController14GetHotBarWidthEj = 0x558be8
_ZN19ConsoleUIController15GetHotBarHeightEj = 0x558c94
_ZN19ConsoleUIController21GetQuickSelectVisibleEj = 0x558d40
_ZN19ConsoleUIController21HideAllGameUIElementsEv = 0x5595d4
_ZN19ConsoleUIController25ShowOtherPlayersBaseSceneEjb = 0x55961c
_ZN19ConsoleUIController14ShowTrialTimerEb = 0x559620
_ZN19ConsoleUIController16UpdateTrialTimerEj = 0x55966c
_ZN19ConsoleUIController22SetAchievementUnlockedEiiii = 0x559ca0
_ZN19ConsoleUIController26GetAchievementToastShowingEi = 0x559d30
_ZN19ConsoleUIController31GetHoldToShowAchievementsActiveEb = 0x559d60
_ZN19ConsoleUIController22GetHoldActionCancelledEi = 0x559d90
_ZN19ConsoleUIController11TouchBoxAddEP9UIControlP7UIScene = 0x55a124
_ZN19ConsoleUIController25updateViewportTouchOffsetEN9C4JRender13eViewportTypeE = 0x55a4b4
_ZN7UIScene21getCachedSlotDrawDataEv = 0x55a844
_ZN25UIControl_TexturePackList13SetTouchFocusEiib = 0x55ab44
_ZN14UIControl_BaseC1Ev = 0x55ae20
_ZN9UIControl4tickEv = 0x55af08
_ZN16UIControl_ButtonC1Ev = 0x55b324
_ZN16UIControl_Button4initE8UIStringi = 0x55b3a8
_ZN20UIControl_ButtonListC1Ev = 0x55b5bc
_ZN14UIControl_ListC2Ev = 0x55b5ec
_ZN20UIControl_ButtonList12setupControlEP7UISceneP13fuiRenderNodeRKNSt3__112basic_stringIwNS0_11char_traitsIwEENS0_9allocatorIwEEEE = 0x55b648
_ZN7UIScene10getFuiFileEv = 0x55b69c
_ZN14UIControl_List10addElementEN9UIControl14eUIControlTypeEi = 0x55b6a4
_ZN22UIControl_DynamicLabelC1Ev = 0x55bdec
_ZN15UIControl_LabelC1Ev = 0x55be1c
_ZNSt3__113unordered_mapIiN9UIControl14eUIControlTypeENS_4hashIiEENS_8equal_toIiEENS_9allocatorINS_4pairIKiS2_EEEEEixEOi = 0x55cd70
_ZNSt3__113unordered_mapIibNS_4hashIiEENS_8equal_toIiEENS_9allocatorINS_4pairIKibEEEEEixEOi = 0x55cf9c
_ZN14UIControl_List4initEi = 0x55e054
_ZN19UIControl_MultiListC2Ev = 0x55e9a4
_ZN7UIGroupC1E8EUIGroupi = 0x561930
_ZN7UILayer12addComponentEi8EUIScenePv = 0x561af8
_ZN7UILayer9ReloadAllEb = 0x561e20
_ZN7UILayer4tickEv = 0x561ea8
_ZN7UILayer15NavigateToSceneEi8EUIScenePv = 0x562384
_ZN7UILayer14IsSceneInStackE8EUIScene = 0x563174
_ZN7UILayer11handleInputEiibbbRb = 0x563258
_ZN7UILayer15removeComponentE8EUIScene = 0x5634e8
_ZN7UILayer16updateFocusStateEb = 0x563810
_ZN7UILayerC1EP7UIGroup = 0x563aec
_ZN7UILayer19getRenderDimensionsERiS0_ = 0x563bc0
_ZN20UIScene_CreativeMenuC1EiPvP7UILayer = 0x563bc8
_ZN21UIScene_ContainerMenuC1EiPvP7UILayer = 0x563fac
_ZN24UIScene_BrewingStandMenuC1EiPvP7UILayer = 0x5644bc
_ZN21UIScene_DispenserMenuC1EiPvP7UILayer = 0x5648a4
_ZN22UIScene_EnchantingMenuC1EiPvP7UILayer = 0x564bac
_ZN19UIScene_FurnaceMenuC1EiPvP7UILayer = 0x564e7c
_ZN17UIScene_AnvilMenuC1EiPvP7UILayer = 0x5652b4
_ZN18UIScene_HopperMenuC1EiPvP7UILayer = 0x56580c
_ZN18UIScene_BeaconMenuC1EiPvP7UILayer = 0x565b58
_ZN26UIScene_HorseInventoryMenuC1EiPvP7UILayer = 0x565eb8
_ZN27UIScene_ClassicCraftingMenuC1EiPvP7UILayer = 0x56630c
_ZN23UIScene_CreateWorldMenuC1EiPvP7UILayer = 0x5665d0
_ZN7UIScene12setBackSceneEP7UIScene = 0x566a0c
_ZN7UISceneD0Ev = 0x5670d8
_ZNK7UIScene15getSubSceneTypeEv = 0x5670fc
_ZN7UIScene11reloadMovieEb = 0x567104
_ZN7UIScene13needsReloadedEv = 0x56726c
_ZN7UIScene8hasMovieEv = 0x5672c0
_ZN7UIScene21getSafeZoneHalfHeightEv = 0x5672d0
_ZN7UIScene20getSafeZoneHalfWidthEv = 0x5672f0
_ZN7UIScene14updateSafeZoneEv = 0x567310
_ZN7UIScene9loadMovieEv = 0x567520
_ZN7UIScene17SetFocusToElementEi = 0x567690
_ZN7UIScene19mapElementsAndNamesEv = 0x56771c
_ZN7UIScene13customDrawFuiEPvPKcP7fuiRect = 0x567724
_ZN7UIScene10tickTimersEv = 0x567730
_ZN7UIScene12GetMainPanelEv = 0x5677bc
_ZN7UIScene23doHorizontalResizeCheckEv = 0x567b24
_ZN7UIScene10customDrawEPKcP7fuiRect = 0x567b64
_ZN7UIScene15handleGainFocusEb = 0x567b68
_ZN7UIScene14updateTooltipsEv = 0x567b6c
_ZN7UIScene29convertGameActionToFuiKeycodeEi = 0x567bf8
_ZN7UIScene11allowRepeatEi = 0x567c18
_ZN7UIScene25updateViewportTouchOffsetEv = 0x568004
_ZN7UIScene13HandleMessageE10EUIMessagePv = 0x56802c
_ZN7UIScene15isReadyToDeleteEv = 0x568068
_ZN7UIScene21handleCheckboxToggledEib = 0x568070
_ZN24UIScene_AchievementsMenuC1EiPvP7UILayer = 0x569130
_ZN21UIScene_BedrockUpsellC1EiPvP7UILayer = 0x56c840
_ZN24UIScene_BiomePreviewMenuC1EiPvP7UILayer = 0x56cd00
_ZN24UIScene_BiomePreviewMenu4tickEv = 0x56d458
_ZN24UIScene_BiomePreviewMenu11onMouseTickEv = 0x56d570
_ZN24UIScene_BiomePreviewMenu18UpdatePreviewImageERK15arrayWithLengthIhEb = 0x56d6f8
_ZN26UIScene_ConnectingProgressC1EiPvP7UILayer = 0x56f3f0
_ZN7UIScene12handleReloadEv = 0x56fa28
_ZN20UIScene_ControlsMenuC1EiPvP7UILayer = 0x57048c
_ZN20UIScene_CraftingMenuC1EiPvP7UILayer = 0x5749e8
_ZN20UIScene_CreativeMenu10staticCtorEv = 0x577878
_ZN11MenuBuilder10ITEM_BLOCKEP5Block = 0x57c628
_ZN11MenuBuilder8ADD_ITEMEP4Itemi = 0x57ca2c
_ZN15UIScene_CreditsC1EiPvP7UILayer = 0x57f480
_ZN17UIScene_DeathMenuC1EiPvP7UILayer = 0x5802d0
_ZN19UIScene_DLCMainMenuC1EiPvP7UILayer = 0x580fdc
_ZN21UIScene_DLCOffersMenuC1EiPvP7UILayer = 0x581668
_ZN15UIScene_EndPoemC1EiPvP7UILayer = 0x5831cc
_ZN12UIScene_EULAC1EiPvP7UILayer = 0x583ed8
_ZN26UIScene_FullscreenProgressC1EiPvP7UILayer = 0x58459c
_ZN30UIScene_GameModeScoreboardMenuC1EiPvP7UILayer = 0x585de0
_ZN26UIScene_HelpAndOptionsMenuC1EiPvP7UILayer = 0x5885b4
_ZN17UIScene_HowToPlayC1EiPvP7UILayer = 0x58a3cc
_ZN26UIScene_HelpAndOptionsMenu11handleInputEiibbbRb = 0x58b8fc
_ZN21UIScene_HowToPlayMenuC1EiPvP7UILayer = 0x58d974
_ZN21UIScene_HowToPlayMenu12getMoviePathEv = 0x58da54
_ZN21UIScene_HowToPlayMenu14updateTooltipsEv = 0x58dab4
_ZN21UIScene_HowToPlayMenu16updateComponentsEv = 0x58db2c
_ZN21UIScene_HowToPlayMenu12handleReloadEv = 0x58dbac
_ZN21UIScene_HowToPlayMenu11handleInputEiibbbRb = 0x58dc68
_ZN21UIScene_HowToPlayMenu11handlePressEii = 0x58dd28
_ZN11UIScene_HUDC1EiP7UILayer = 0x58ddb0
_ZN29UIScene_InGameHostOptionsMenuC1EiPvP7UILayer = 0x593e04
_ZN22UIScene_InGameInfoMenuC1EiPvP7UILayer = 0x595084
_ZN9UIControlD2Ev = 0x596ab0
_ZN9UIControl8setFocusEv = 0x596ad4
_ZN9UIControl8hasFocusEv = 0x596ad8
_ZN8TutorialD1Ev = 0x596d28
_ZN7UIScene11stealsFocusEv = 0x597744
_ZN7UIScene8hasFocusEi = 0x59774c
_ZN7UIScene16updateComponentsEv = 0x59776c
_ZN7UIScene15handleLoseFocusEv = 0x597770
_ZN7UIScene16hidesLowerScenesEv = 0x597774
_ZN7UIScene11blocksInputEv = 0x59777c
_ZN7UIScene11handleInputEiibbbRb = 0x597784
_ZN7UIScene13handleDestroyEv = 0x597788
_ZN7UIScene24handlePreUnloadForReloadEv = 0x59778c
_ZN7UIScene15handlePreReloadEv = 0x597790
_ZN7UIScene11handlePressEii = 0x597794
_ZN7UIScene17handleFocusChangeEii = 0x597798
_ZN7UIScene15handleInitFocusEii = 0x59779c
_ZN7UIScene28handleCheckboxElementToggledEiib = 0x5977a0
_ZN7UIScene23handleSliderElementMoveEiii = 0x5977a4
_ZN7UIScene18handleAnimationEndEv = 0x5977a8
_ZN7UIScene21handleRequestMoreDataEib = 0x5977ac
_ZN7UIScene18HandleDLCInstalledEv = 0x5977b0
_ZN7UIScene22HandleDLCLicenseChangeEv = 0x5977b4
_ZN7UIScene25HandleTMSBanFileRetrievedEv = 0x5977b8
_ZN7UIScene23HandleSaveDeviceRemovedEi = 0x5977bc
_ZN7UIScene23handleUnlockFullVersionEv = 0x5977c0
_ZN7UIScene16handleTouchInputEjiiibbb = 0x5977c4
_ZN7UIScene16handleSliderMoveEii = 0x598680
_ZN7UIScene22handleSelectionChangedEi = 0x598684
_ZN7UIScene21handleTouchBoxRebuildEv = 0x598688
_ZN7UIScene25HandleDLCMountingCompleteEv = 0x59868c
_ZN7UIScene19handleTimerCompleteEi = 0x598c90
_ZN7UISceneD2Ev = 0x598cac
_ZN14UIControl_BaseD1Ev = 0x59a008
_ZN21UIScene_HowToPlayMenu19mapElementsAndNamesEv = 0x5a2e1c
_ZN21UIScene_HowToPlayMenuD1Ev = 0x5a2ed0
_ZN21UIScene_HowToPlayMenuD2Ev = 0x5a2f08
_ZN21UIScene_HowToPlayMenu12getSceneTypeEv = 0x5a2f2c
_ZN8GameMode18RecordLapCompletedEv = 0x5a4ccc
_ZN8GameMode14RecordProgressEdddd = 0x5a4cd4
_ZN9UIControlD1Ev = 0x5a4dac
_ZN11MenuBuilder15ITEM_BLOCKSTATEEPK10BlockState = 0x5a697c
_ZNSt3__112__hash_tableINS_17__hash_value_typeINS_12basic_stringIwNS_11char_traitsIwEENS_9allocatorIwEEEEN19ConsoleUIController16_CachedMovieDataEEENS_22__unordered_map_hasherIS7_SA_NS_4hashIS7_EELb1EEENS_21__unordered_map_equalIS7_SA_NS_8equal_toIS7_EELb1EEENS5_ISA_EEE4findIS7_EENS_15__hash_iteratorIPNS_11__hash_nodeISA_PvEEEERKT_ = 0x5b62d8
_ZNSt3__112__hash_tableINS_17__hash_value_typeINS_12basic_stringIwNS_11char_traitsIwEENS_9allocatorIwEEEEN19ConsoleUIController16_CachedMovieDataEEENS_22__unordered_map_hasherIS7_SA_NS_4hashIS7_EELb1EEENS_21__unordered_map_equalIS7_SA_NS_8equal_toIS7_EELb1EEENS5_ISA_EEE21__construct_node_hashIRKNS_21piecewise_construct_tEJNS_5tupleIJRKS7_EEENSP_IJEEEEEENS_10unique_ptrINS_11__hash_nodeISA_PvEENS_22__hash_node_destructorINS5_ISX_EEEEEEmOT_DpOT0_ = 0x5b64a0
_ZNSt3__112__hash_tableINS_17__hash_value_typeIiN9UIControl14eUIControlTypeEEENS_22__unordered_map_hasherIiS4_NS_4hashIiEELb1EEENS_21__unordered_map_equalIiS4_NS_8equal_toIiEELb1EEENS_9allocatorIS4_EEE21__construct_node_hashIRKNS_21piecewise_construct_tEJNS_5tupleIJOiEEENSK_IJEEEEEENS_10unique_ptrINS_11__hash_nodeIS4_PvEENS_22__hash_node_destructorINSD_ISR_EEEEEEmOT_DpOT0_ = 0x5b7e98
_ZNSt3__112__hash_tableINS_17__hash_value_typeIiN9UIControl14eUIControlTypeEEENS_22__unordered_map_hasherIiS4_NS_4hashIiEELb1EEENS_21__unordered_map_equalIiS4_NS_8equal_toIiEELb1EEENS_9allocatorIS4_EEE6rehashEm = 0x5b7ef4
_ZNSt3__112__hash_tableINS_17__hash_value_typeIibEENS_22__unordered_map_hasherIiS2_NS_4hashIiEELb1EEENS_21__unordered_map_equalIiS2_NS_8equal_toIiEELb1EEENS_9allocatorIS2_EEE21__construct_node_hashIRKNS_21piecewise_construct_tEJNS_5tupleIJOiEEENSI_IJEEEEEENS_10unique_ptrINS_11__hash_nodeIS2_PvEENS_22__hash_node_destructorINSB_ISP_EEEEEEmOT_DpOT0_ = 0x5b8228
_ZNSt3__112__hash_tableINS_17__hash_value_typeIibEENS_22__unordered_map_hasherIiS2_NS_4hashIiEELb1EEENS_21__unordered_map_equalIiS2_NS_8equal_toIiEELb1EEENS_9allocatorIS2_EEE6rehashEm = 0x5b8288
_ZN31UIScene_InGamePlayerOptionsMenuC1EiPvP7UILayer = 0x5bd1d4
_ZN13CMinecraftApp17GetGameHostOptionE15eGameHostOption = 0x5bdbdc
_ZN4L10N9GetStringEi = 0x5bdbec
CMinecraftApp__GetPlayerGameType = 0x5bdc14
_ZN13CMinecraftApp19GetLocalPlayerCountEv = 0x5be004
_ZN20ClientPacketListener4sendESt10shared_ptrI6PacketE = 0x5bf198
_ZN32UIScene_InGameSaveManagementMenuC1EiPvP7UILayer = 0x5bf524
_ZN30UIScene_InGameSettingsListMenuC1EiPvP7UILayer = 0x5c060c
_ZN13UIScene_IntroC1EiPvP7UILayer = 0x5c64c4
_ZN12GameSettings15GetGameSettingsEi12eGameSetting = 0x5c66d4
_ZN21UIScene_InventoryMenuC1EiPvP7UILayer = 0x5c70c0
_ZN16UIScene_JoinMenuC1EiPvP7UILayer = 0x5c7fec
_ZN13CMinecraftApp17SetGameHostOptionE15eGameHostOptionj = 0x5c9564
_ZN13CMinecraftApp17GetGameHostOptionEj15eGameHostOption = 0x5c9584
_ZN16UIScene_KeyboardC1EiPvP7UILayer = 0x5c9770
_ZN24UIScene_LanguageSelectorC1EiPvP7UILayer = 0x5c9c0c
_ZN12GameSettings24CheckGameSettingsChangedEbi = 0x5ca004
_ZN29UIScene_LaunchMoreOptionsMenuC1EiPvP7UILayer = 0x5ca33c
_GLOBAL__sub_I_UnityClient9.cpp = 0x5cf7d8
_ZN24UIScene_LeaderboardsMenu10staticCtorEv = 0x5cf94c
_ZN24UIScene_LeaderboardsMenuC1EiPvP7UILayer = 0x5d0018
_ZN13CMinecraftApp14GetGameStartedEv = 0x5d0808
_ZN26UIScene_LoadCreateJoinMenuC1EiPvP7UILayer = 0x5d24a8
_Z20EnterCriticalSectionPN2nn2os9MutexTypeE = 0x5d29e4
_Z20LeaveCriticalSectionPN2nn2os9MutexTypeE = 0x5d29e8
_ZN26UIScene_LoadCreateJoinMenu4tickEv = 0x5d3530
_ZN12GameSettings15SetGameSettingsEi12eGameSettingh = 0x5d3bfc
_ZN26UIScene_LoadCreateJoinMenu16handleTouchInputEjiiibbb = 0x5d40f4
_ZN26UIScene_LoadCreateJoinMenu12GetMainPanelEv = 0x5d4194
_ZN20CConsoleMinecraftApp19GetCommerceInstanceEv = 0x5d4750
__CPR69__CurrentImageTextData__13CMinecraftAppFPQ2_J22J10PngTagData = 0x5d529c
__CPR72__CreateImageTextData__13CMinecraftAppFPUcPCQ2_J21J10PngTagData = 0x5d5390
_ZN16UIScene_LoadMenuC1EiPvP7UILayer = 0x5d6350
_ZN16UIScene_MainMenuC1EiPvP7UILayer = 0x5d8954
_ZN13CMinecraftApp14hasArchiveFileERKNSt3__112basic_stringIwNS0_11char_traitsIwEENS0_9allocatorIwEEEEb = 0x5d8ecc
_ZN13CMinecraftApp14getArchiveFileERKNSt3__112basic_stringIwNS0_11char_traitsIwEENS0_9allocatorIwEEEEb = 0x5d8f7c
__debugbreak__Fv = 0x5da12c
_ZN20CConsoleMinecraftApp8ExitGameEv = 0x5dafc0
_ZN20CConsoleMinecraftApp20ReleaseSaveThumbnailEv = 0x5dafc4
_ZN12GameSettings24ApplyGameSettingsChangedEi = 0x5db06c
_ZN13CMinecraftApp20SetAutosaveTimerTimeEv = 0x5db754
_ZN21UIScene_MapSelectMenuC1EiPvP7UILayer = 0x5db7e0
_ZN19UIScene_MapVoteMenuC1EiPvP7UILayer = 0x5dcef4
_ZN18UIScene_MessageBoxC1EiPvP7UILayer = 0x5de18c
_ZN24UIScene_NewUpdateMessageC1EiPvP7UILayer = 0x5de838
_ZN24UIScene_NewUpdateMessageD2Ev = 0x5debcc
_ZN24UIScene_NewUpdateMessageD0Ev = 0x5dec24
_ZN24UIScene_NewUpdateMessage12getMoviePathEv = 0x5dec48
_ZN24UIScene_NewUpdateMessage14updateTooltipsEv = 0x5dec88
_ZN24UIScene_NewUpdateMessage11handleInputEiibbbKb = 0x5decfc
_ZN24UIScene_NewUpdateMessage11handlePressEii = 0x5dee24
_ZN17UIScene_PauseMenuC1EiPvP7UILayer = 0x5deec4
_ZN13CMinecraftApp9SetActionEi10eXuiActionPv = 0x5e0c40
_ZN17UIScene_PauseMenu19SaveWorldThreadProcEPv = 0x5e1018
_ZN13CMinecraftApp22GetChangingSessionTypeEv = 0x5e11a0
_ZN22UIScene_QuadrantSigninC1EiPvP7UILayer = 0x5e17d8
_ZN21UIScene_ReinstallMenuC1EiPvP7UILayer = 0x5e2334
_ZN19UIScene_SaveMessageC1EiPvP7UILayer = 0x5e25b4
_ZN24UIScene_SettingsListMenuC1EiPvP7UILayer = 0x5e2aac
_ZN20UIScene_SettingsMenuC1EiPvP7UILayer = 0x5e41a4
_ZN12GameSettings21SetDefaultGameOptionsEPN10C4JStorage15PROFILESETTINGSEib = 0x5e49f4
_ZN21UIScene_SignEntryMenuC1EiPvP7UILayer = 0x5e4da8
_ZN13CMinecraftApp21IsConsoleChatCensoredEv = 0x5e5418
_ZN22UIScene_SkinSelectMenuC1EiPvP7UILayer = 0x5e580c
_ZN26UIScene_SuperFlatEditLayerC1EiPvP7UILayer = 0x5ea3cc
_ZN21UIScene_SuperFlatMenuC1EiPvP7UILayer = 0x5ec1dc
_ZN24UIScene_SuperFlatPresetsC1EiPvP7UILayer = 0x5eeb9c
_ZN20UIScene_TeleportMenuC1EiPvP7UILayer = 0x5ef758
_ZN13UIScene_TimerC1EiPvP7UILayer = 0x5f04d0
_ZN19UIScene_TradingMenuC1EiPvP7UILayer = 0x5f058c
_ZN20CConsoleMinecraftApp22SetRichPresenceContextEii = 0x5f099c
_ZN23UIScene_TrialExitUpsellC1EiPvP7UILayer = 0x5f23e8
_ZN24UIScene_WritableBookMenuC1EiPvP7UILayer = 0x5f2624
_ZN8UIString18setCurrentLanguageEv = 0x5f4a80
_ZN8UIString18getCurrentLanguageEv = 0x5f4b8c
_ZN8UIString12UIStringCoreC1ERKNSt3__112basic_stringIwNS1_11char_traitsIwEENS1_9allocatorIwEEEE = 0x5f4d24
_ZN8UIStringC1Ev = 0x5f4ee0
_ZN8UIStringC1EPKw = 0x5f538c
_ZN8UIStringD0Ev = 0x5f5434
_Z11CreateFileAPKcjjPvjji = 0x5f5a08
_Z12GetLastErrorv = 0x5f5ba0
_Z11GetFileSizeiPj = 0x5f5ba8
_Z8ReadFileiPvjPjP11_OVERLAPPED = 0x5f5be8
_ZN20CConsoleMinecraftApp14FatalLoadErrorEPKwz = 0x5f5c90
_Z11CloseHandlei = 0x5f5d2c
_ZN9UITTFFont11getFontNameEv = 0x5f5d88
_ZN13CMinecraftAppC2Ev = 0x5f7b1c
_ZN13CMinecraftApp15SetBanListCheckEii = 0x5f8054
_Z25InitializeCriticalSectionPN2nn2os9MutexTypeE = 0x5f8064
_ZN13CMinecraftApp21LocaleAndLanguageInitEv = 0x5f8098
_ZN13CMinecraftApp25StartReloadingTexturePackEv = 0x5fab68
_ZN13CMinecraftApp12GetXuiActionEi = 0x5fabdc
_ZN13CMinecraftApp17SetActionInternalEi10eXuiActionPv = 0x5fabe8
_ZN13CMinecraftApp10StaticCtorEv = 0x5faf28
_ZN13CMinecraftApp11IsAppPausedEv = 0x5faf2c
_ZN13CMinecraftApp12SetAppPausedEb = 0x5fafb0
_ZN13CMinecraftApp17LoadInventoryMenuEiN3std10shared_ptrI11LocalPlayerEEb = 0x5fb374
_ZN13CMinecraftApp16LoadCreativeMenuEiN3std10shared_ptrI11LocalPlayerEEb = 0x5fb444
_ZN13CMinecraftApp19LoadCrafting2x2MenuEiN3std10shared_ptrI11LocalPlayerEE = 0x5fb50c
_ZN13CMinecraftApp11IsUUIDLocalERKSt12basic_stringIwSt11char_traitsIwESt9allocatorIwEE = 0x5fc544
_ZN13CMinecraftApp16InitGameSettingsEv = 0x5fc660
_ZN12GameSettings16InitGameSettingsEv = 0x5fc674
_ZN13CMinecraftApp21SetDefaultHostOptionsEv = 0x5fc78c
_ZN13CMinecraftApp16HandleXuiActionsEv = 0x5fc864
_ZN13CMinecraftApp18GetGlobalXuiActionEv = 0x5feec4
_ZN13CMinecraftApp18SetGlobalXuiActionE10eXuiAction = 0x5feecc
_ZN13CMinecraftApp16loadMediaArchiveEv = 0x6003a4
_ZN13CMinecraftApp22UpsellReturnedCallbackEPv11eUpsellType15eUpsellResponsei = 0x600d88
_ZN13CMinecraftApp8InitTimeEv = 0x6019ec
_Z25QueryPerformanceFrequencyP14_LARGE_INTEGER = 0x601a34
_Z23QueryPerformanceCounterP14_LARGE_INTEGER = 0x601a48
_ZN13CMinecraftApp10UpdateTimeEv = 0x601a80
_ZN13CMinecraftApp15StoreLaunchDataEv = 0x602054
_ZN13CMinecraftApp8ExitGameEv = 0x602058
_ZN13CMinecraftApp14FatalLoadErrorEPKwz = 0x6021a0
_ZN13CMinecraftApp14InitialiseTipsEv = 0x6022b0
SetExtraGameData__13CMinecraftAppCFRUi14eGameExtraDataUi = 0x6035d0
GetExtraGameData__13CMinecraftAppF14eGameExtraData = 0x60366c
_ZN13CMinecraftApp17processSchematicsEP10LevelChunk = 0x603840
_ZN13CMinecraftApp20loadDefaultGameRulesEv = 0x603850
_ZN13CMinecraftApp25getLevelGenerationOptionsEv = 0x603868
_ZN13CMinecraftApp17ShouldCollideWithEP5Block = 0x603870
__ct__Q2_13CMinecraftApp10PngTagDataFv = 0x6038b4
__CPR73__ParseImageTextData__13CMinecraftAppFPCUcUiPQ2_J20J10PngTagData = 0x6038f4
_ZN11ArchiveFile7hasFileERKNSt3__112basic_stringIwNS0_11char_traitsIwEENS0_9allocatorIwEEEE = 0x604fa8
_ZN11ArchiveFile7getFileERKNSt3__112basic_stringIwNS0_11char_traitsIwEENS0_9allocatorIwEEEE = 0x604fc8
_Z12GetTickCountv = 0x605280
_ZN13CMinecraftApp28GetReallyChangingSessionTypeEv = 0x605ac4
_ZN13CMinecraftApp16TickOpacityTimerEi = 0x605ae8
_ZN13CMinecraftApp22UpdateTrialPausedTimerEv = 0x605b54
_ZN13CMinecraftApp15GetBanListCheckEi = 0x605b68
_ZN13CMinecraftApp24GetTMSGlobalFileListReadEv = 0x605bcc
_ZN13CMinecraftApp17GetTMSDLCInfoReadEv = 0x605bd4
_ZN13CMinecraftApp19GetTMSXUIDsFileReadEv = 0x605bdc
_ZN13CMinecraftApp14GetFileFromTPDE12eTPDFileTypePhjPS1_Pj = 0x605bec
_ZN13CMinecraftApp20GetFirstMiniGameTypeEv = 0x605bf8
_ZN9CustomSetEv = 0x605c4c
malloc = 0x605c94
free = 0x605d1c
_ZN9CustomSet4findERK8ChunkPos = 0x605d38
_ZN9CustomSet6insertERK8ChunkPos = 0x605db4
_ZN9CustomSet6resizeEv = 0x605e54
realloc = 0x605ee4
_ZN12GameSettings18SetDefaultControlsEPN10C4JStorage15PROFILESETTINGSEib = 0x605f18
_ZN12GameSettings23SetDefaultActionMappingEhih = 0x606f54
_ZN12GameSettings28ClearGameSettingsChangedFlagEi = 0x606f94
_ZN4L10N15loadStringTableEv = 0x607078
_ZN15ShutdownManager10HasStartedENS_9EThreadIdE = 0x60715c
__CPR77__HasStarted__15ShutdownManagerSFQ2_J12J9EThreadIdP13C4JJEventArray = 0x607160
_ZN15ShutdownManager9ShouldRunENS_9EThreadIdE = 0x607164
_ZN15ShutdownManager11HasFinishedENS_9EThreadIdE = 0x60716c
InitializeCriticalSectionAndSpinCount__FP11OSFastMutexUl = 0x607fa0
_Z23TryEnterCriticalSectionPN2nn2os9MutexTypeE = 0x607fa4
_Z16CreateDirectoryAPKcPv = 0x608024
OpenDir = 0x60802c
ReadDir = 0x60819c
CloseDir = 0x6081d4
_Z18GetFileAttributesAPKc = 0x6081f8
_Z9MoveFileAPKcS0_ = 0x608360
_Z14FindFirstFileAPKcP17_WIN32_FIND_DATAA = 0x60851c
_Z13FindNextFileAiP17_WIN32_FIND_DATAA = 0x608548
_Z8TlsAllocv = 0x608560
_Z11TlsGetValuej = 0x608644
_ZN11TlsSetValueEjPv = 0x6086b0
VirtualAlloc__FPvUlUiT3 = 0x608864
VirtualFree__FPvUlUi = 0x6088b4
_ZN13CMinecraftAppD2Ev = 0x60895c
_ZN20CConsoleMinecraftAppC1Ev = 0x608a34
_ZN20CConsoleMinecraftApp16ReadProductCodesEv = 0x608a84
_ZN20CConsoleMinecraftApp15StoreLaunchDataEv = 0x608ccc
_ZN20CConsoleMinecraftApp20CaptureSaveThumbnailEv = 0x608d00
_ZN20CConsoleMinecraftApp16GetSaveThumbnailEPPhPj = 0x608d20
_ZN20CConsoleMinecraftApp13GetScreenshotEiPPhPj = 0x608e44
_ZN20CConsoleMinecraftApp20GetLocalTMSFileIndexEPwb18eFileExtensionType = 0x608e48
_ZN20CConsoleMinecraftApp16LoadLocalTMSFileEPw = 0x608e50
_ZN20CConsoleMinecraftApp16LoadLocalTMSFileEPw18eFileExtensionType = 0x608e58
_ZN20CConsoleMinecraftApp17FreeLocalTMSFilesE12eTMSFileType = 0x608e60
_ZN20CConsoleMinecraftApp24TemporaryCreateGameStartEv = 0x608e64
_ZN20CConsoleMinecraftApp12CommerceInitEv = 0x608e68
_ZN20CConsoleMinecraftApp27Callback_SaveGameIncompleteEPvN10C4JStorage19ESaveIncompleteTypeE = 0x608f04
_ZN20CConsoleMinecraftApp22RequestSignInUIChoicesEi = 0x6090a8
_ZN20CConsoleMinecraftApp17InitialiseDLCInfoEv = 0x6092d8
_Z13DefineActionsv = 0x609328
_Z7MemSecti = 0x609ed0
_Z10PopupToastv = 0x60a210
calloc = 0x60a234
aligned_alloc = 0x60a294
nninitStartup = 0x60a2a8
nnMain = 0x60a3e4
_ZN11LocalPlayer10isPickableEv = 0x60b9bc
_ZN11LocalPlayer10isCreativeEv = 0x60ba44
_ZN11ArchiveFile10readHeaderEP15DataInputStream = 0x60e95c
_ZN11ArchiveFileC1E4File = 0x60ee08
_ZN13BufferBuilder5beginEv = 0x610924
_ZN13BufferBuilder8vertexUVEfffff = 0x610984
_ZN13BufferBuilder3endEv = 0x6109d8
_ZN13BufferBuilder5beginEi = 0x610e50
_ZN19BlockEntityRenderer11bindTextureEP16ResourceLocation = 0x611628
_ZN14BeaconRenderer16renderBeaconBeamEddddddii15arrayWithLengthIKfE = 0x612ce0
_ZN14BeaconRenderer16renderBeaconBeamEddddddii15arrayWithLengthIKfEdd = 0x612ce4
_ZN13BufferBuilder5colorEffff = 0x6134b8
_ZN11BlockColors13createDefaultEv = 0x614d1c
_ZN11BlockColors8getColorEPK10BlockStateP11LevelSourcePK8BlockPosi = 0x615608
_ZN27BlockEntityRenderDispatcher10staticCtorEv = 0x615d0c
_ZN21BlockRenderDispatcherC1EP11BlockColors = 0x616d20
_ZN13BlockRenderer18getShadeBrightnessEP5BlockP11LevelSourceRK8BlockPos = 0x618878
setMipmapEnable__13BufferBuilderFb = 0x6194e0
_ZN13BlockRenderer53tesselateBlockInWorldWithAmbienceOcclusionTexLightingEPK10BlockStateRK8BlockPosfffib = 0x629804
color__13BufferBuilderFi = 0x6312c8
_ZN17BossHealthOverlayC1EP9Minecraft = 0x637140
Boxed__Boxed = 0x6376ac
_ZN13BufferBuilderC1Ei = 0x638220
_ZN13BufferBuilder15finaliseShadersEv = 0x638310
_ZN13BufferBuilder5clearEv = 0x6383a4
_ZN13BufferBuilder19useProjectedTextureEb = 0x6383d8
_ZN13BufferBuilder3texEff = 0x6383f0
_ZN13BufferBuilder5colorEiiii = 0x63840c
_ZN13BufferBuilder6vertexEfff = 0x638480
_ZN13BufferBuilder6Bounds7addVertEfff = 0x6388a8
_ZN13BufferBuilder12vertexDoubleEddd = 0x63890c
_ZN13BufferBuilder14vertexNoBoundsEfff = 0x63891c
_ZN13BufferedImageC1Eiii = 0x638dac
BufferedImage__BufferedImage = 0x638e24
_ZN13BufferedImageD2Ev = 0x639710
_ZN13BufferedImage8getWidthEv = 0x6397ac
_ZN13BufferedImage9getHeightEv = 0x6397b4
_ZN13BufferedImage6getRGBEiiii15arrayWithLengthIiEiii = 0x6397bc
_ZN13BufferedImage7getDataEv = 0x63989c
_ZN14CensoredStringC1Ev = 0x63ac50
__ct__5ChunkFv = 0x63d7d0
makeCopyForRebuild__5ChunkFP5Chunk = 0x63d7d8
rebuild__5ChunkFv = 0x63d86c
clearDirty__5ChunkFv = 0x63ee5c
ClientPacketListener__ClientPacketListener = 0x641280
_ZN20ClientPacketListener10staticCtorEv = 0x6413f4
_ZN20ClientPacketListenerD2Ev = 0x641400
_ZN20ClientPacketListenerD0Ev = 0x641474
_ZN20CConsoleMinecraftApp14ReadBannedListEi10eTMSActionb = 0x642530
_ZN20ClientPacketListener12onDisconnectEN16DisconnectPacket17eDisconnectReasonEPv = 0x647858
_ZN20ClientPacketListener21canHandleAsyncPacketsEv = 0x64e54c
_ZN20ClientPacketListener22isServerPacketListenerEv = 0x64f3bc
_ZN16ClientScoreboard13GetWinnerNameEi = 0x6537cc
_ZN17CreateWorldScreen6renderEiif = 0x655c4c
_ZN7EditBox6renderEv = 0x655fcc
_ZN10DataFixers9addFixersEP14DataFixerUpper = 0x658378
_ZN10DataFixers16createFixerUpperEv = 0x658f30
_ZN14DataFixerUpperC1Ei = 0x659374
_ZN19DefaultVertexFormat10staticCtorEv = 0x65a0c8
_ZN18DispenserBootstrap10StaticCtorEv = 0x65a928
_ZN13CMinecraftAppD0Ev = 0x6626d4
_ZN13CMinecraftApp17CaptureScreenshotEi = 0x6626f8
_ZN13CMinecraftApp8RunFrameEv = 0x6626fc
_ZN26UIScene_LoadCreateJoinMenu12getSceneTypeEv = 0x664ac4
_ZNK26UIScene_LoadCreateJoinMenu15getSubSceneTypeEv = 0x664acc
_ZN24UIScene_NewUpdateMessage19mapElementsAndNamesEv = 0x665f54
_ZNK24UIScene_NewUpdateMessage12getSceneTypeEv = 0x666094
_ZN24UIScene_NewUpdateMessage8hasFocusEi = 0x66609c
_ZN20CConsoleMinecraftAppD0Ev = 0x66a414
_ZN14EntityRenderer12SetItemFrameEb = 0x66a508
_ZN14EntityRendererD1Ev = 0x66a6ac
_ZN14EntityRenderer8getModelEv = 0x66a6d4
_ZN20LivingEntityRendererD1Ev = 0x66a950
_ZN6ScreenD2Ev = 0x66b00c
_ZN14PacketListenerC2Ev = 0x66c280
_ZN5BoxedD1Ev = 0x679d10
_ZN9Minecraft11GetInstanceEv = 0x67db90
_ZN9Minecraft11GetMiniGameEv = 0x67dba0
_ZN9Minecraft14getColourTableEv = 0x67df84
_ZN14GlStateManager10AlphaState14createInstanceEv = 0x680024
_ZN14GlStateManager18ColorMaterialState14createInstanceEv = 0x680090
_ZN14GlStateManager10BlendState14createInstanceEv = 0x6800c4
_ZN14GlStateManager10DepthState14createInstanceEv = 0x6800f8
_ZN14GlStateManager8FogState14createInstanceEv = 0x68012c
_ZN14GlStateManager9CullState14createInstanceEv = 0x680160
_ZN14GlStateManager18PolygonOffsetState14createInstanceEv = 0x680194
_ZN14GlStateManager15ColorLogicState14createInstanceEv = 0x6801c8
_ZN14GlStateManager11TexGenState14createInstanceEv = 0x6801fc
_ZN14GlStateManager10ClearState14createInstanceEv = 0x680230
_ZN14GlStateManager12StencilState14createInstanceEv = 0x680264
_ZN14GlStateManager9ColorMask14createInstanceEv = 0x680308
_ZN14GlStateManager5Color14createInstanceEv = 0x68033c
Options__create = 0x681300
_ZN14GlStateManager10pushMatrixEv = 0x6824c4
_ZN14GlStateManager10translatefEfff = 0x6824dc
_ZN14GlStateManager7rotatefEffff = 0x6824f4
_ZN14GlStateManager10enableCullEv = 0x682518
_ZN14GlStateManager9popMatrixEv = 0x68252c
_ZN14GlStateManager10matrixModeEi = 0x682798
_ZN14GlStateManager6scalefEfff = 0x6827b8
_ZN14GlStateManager19enableRescaleNormalEv = 0x6827d0
_ZN14GlStateManager7color4fEffff = 0x6827e0
_ZN14GlStateManager20disableRescaleNormalEv = 0x682818
_ZN14EntityRendererC1EP22EntityRenderDispatcher = 0x682dd0
_ZN14GlStateManager19enableColorMaterialEv = 0x683038
_ZN14GlStateManager20disableColorMaterialEv = 0x68305c
_ZN14EntityRenderer6renderERNSt3__110shared_ptrI6EntityEEdddff = 0x68335c
_ZN14EntityRenderer12shouldRenderERNSt3__110shared_ptrI6EntityEEP6Cullerddd = 0x6833e8
_ZN14EntityRenderer12shouldRenderERNSt3__110shared_ptrI6EntityEEP6Cullerd = 0x683578
_ZN8Lighting7turnOffEv = 0x683a6c
_ZN14GlStateManager14disableTextureEv = 0x683a90
_ZN14GlStateManager10shadeModelEi = 0x683ab0
_ZN14GlStateManager11enableBlendEv = 0x683acc
_ZN14GlStateManager9blendFuncEii = 0x683ae0
_ZN14GlStateManager16disableAlphaTestEv = 0x683b18
_ZN14GlStateManager9depthMaskEb = 0x683b2c
_ZN14GlStateManager11disableCullEv = 0x683b58
_ZN14GlStateManager12disableBlendEv = 0x683b6c
_ZN14GlStateManager13enableTextureEv = 0x683b80
_ZN14GlStateManager15enableAlphaTestEv = 0x683ba0
_ZN8Lighting6turnOnEv = 0x683bb4
_ZN14GlStateManager15disableLightingEv = 0x683f08
_ZN14GlStateManager9depthFuncEi = 0x683f18
_ZN14GlStateManager14enableLightingEv = 0x683f48
_ZN14GlStateManager9alphaFuncEif = 0x68448c
_ZN20LivingEntityRenderer19setupForTexturePackEP11TexturePack = 0x6847a4
_ZN19EntityBlockRendererC1Ev = 0x68757c
_ZN22EntityRenderDispatcherC1EP8TexturesP12ItemRenderer = 0x689064
_ZN14EntityRenderer6renderEP4AABBddd = 0x68b698
_ZN14EntityRenderer10renderNameERNSt3__110shared_ptrI6EntityEEddd = 0x68b73c
_ZN14EntityRenderer14shouldShowNameERNSt3__110shared_ptrI6EntityEE = 0x68b788
_ZN14EntityRenderer14renderNameTagsERNSt3__110shared_ptrI6EntityEEdddRKNS0_12basic_stringIwNS0_11char_traitsIwEENS0_9allocatorIwEEEEdi = 0x68b7a0
_ZN14EntityRenderer11bindTextureERNSt3__110shared_ptrI6EntityEE = 0x68b7f0
_ZN14EntityRenderer11bindTextureEPK16ResourceLocation = 0x68b7fc
_ZN14GlStateManager11bindTextureEi = 0x68b840
_ZN14EntityRenderer11bindTextureERKNSt3__112basic_stringIwNS0_11char_traitsIwEENS0_9allocatorIwEEEEi = 0x68b87c
_ZN14EntityRenderer18getTextureLocationERNSt3__110shared_ptrI6EntityEE = 0x68b8c0
_ZN14EntityRenderer11renderFlameERNSt3__110shared_ptrI6EntityEEdddf = 0x68bbd0
_ZN14EntityRenderer12renderShadowERNSt3__110shared_ptrI6EntityEEdddff = 0x68bf7c
_ZN14EntityRenderer8getLevelEv = 0x68bf88
_ZN14EntityRenderer17renderBlockShadowEPK10BlockStatedddRK8BlockPosffddd = 0x68c26c
_ZN14EntityRenderer10postRenderERNSt3__110shared_ptrI6EntityEEdddffb = 0x68c63c
_ZN14EntityRenderer7getFontEv = 0x68c7c4
_ZN14EntityRenderer11bindTextureERKNSt3__112basic_stringIwNS0_11char_traitsIwEENS0_9allocatorIwEEEES8_ = 0x68c7cc
_ZN14EntityRenderer13renderNameTagERNSt3__110shared_ptrI6EntityEERKNS0_12basic_stringIwNS0_11char_traitsIwEENS0_9allocatorIwEEEEdddii = 0x68c7d4
GameRenderer__renderNameTagInWorld = 0x68ca74
_ZN9Minecraft10InMiniGameE11EMiniGameIdb = 0x68cfb4
_ZN14EntityRenderer13hasSecondPassEv = 0x68d048
_ZN14EntityRenderer16renderSecondPassERNSt3__110shared_ptrI6EntityEEdddff = 0x68d050
_ZN14EntityRenderer19setupForTexturePackEP11TexturePack = 0x68d054
_ZN14EntityRenderer12getModelNameEv = 0x68d1ec
_ZN14EntityRenderer11createModelERK15ModelDefinition = 0x68d22c
_ZN25EntityRidingShoulderLayerC1EP22EntityRenderDispatcher = 0x68d234
_ZN13EntityTrackerC1EP11ServerLevel = 0x68dd8c
_ZN15MinecraftServer10getPlayersEv = 0x68dde4
_ZN12GuiComponent18drawCenteredStringEP4FontRKNSt3__112basic_stringIwNS2_11char_traitsIwEENS2_9allocatorIwEEEEiii = 0x68fdd0
_Z18PIXBeginNamedEventfPKcz = 0x69109c
_ZN16PIXEndNamedEventEv = 0x6910c8
_Z10XMemSet128Pvij = 0x691100
_Z14XPhysicalAllocmmmj = 0x691104
_Z13XPhysicalFreePv = 0x691108
_Z28XMemCreateCompressionContext15_XMEMCODEC_TYPEPKvjPPv = 0x691118
_Z30XMemCreateDecompressionContext15_XMEMCODEC_TYPEPKvjPPv = 0x691120
_Z29XMemDestroyCompressionContextPv = 0x691128
_Z31XMemDestroyDecompressionContextPv = 0x69112c
_ZN8FaceInfo10staticCtorEv = 0x69113c
_ZN9Minecraft16getBlockRendererEv = 0x6915a8
_ZN9Minecraft15getCameraEntityEv = 0x6931f8
_ZN4FontC1EP7OptionsRKNSt3__112basic_stringIwNS2_11char_traitsIwEENS2_9allocatorIwEEEEP8TexturesbP16ResourceLocationiiiiPt = 0x694684
_ZN4Font14cacheCharacterEi = 0x694a34
_ZN4Font15renderCharacterEwP13BufferBuilder = 0x694b24
_ZN4Font10drawShadowERKNSt3__112basic_stringIwNS0_11char_traitsIwEENS0_9allocatorIwEEEEiii = 0x694c0c
_ZN4Font4drawERKNSt3__112basic_stringIwNS0_11char_traitsIwEENS0_9allocatorIwEEEEiiibb = 0x694c78
_ZN4Font8sanitizeERKNSt3__112basic_stringIwNS0_11char_traitsIwEENS0_9allocatorIwEEEEb = 0x695448
color3f__14GlStateManagerSFfN21 = 0x695754
_ZN4Font5widthERKNSt3__112basic_stringIwNS0_11char_traitsIwEENS0_9allocatorIwEEEE = 0x69576c
_ZN14GlStateManager9getMatrixEiP11FloatBuffer = 0x697144
_ZN8GameModeC2Ev = 0x697548
_ZN8GameMode11isSpectatorEv = 0x697624
_ZN8GameMode29CanRecordStatsAndAchievementsEv = 0x69765c
_ZN8GameMode10MayDestroyERK8BlockPos = 0x69769c
_ZN8GameMode8MayPlaceERK8BlockPosP9BlockItem = 0x6979f0
_ZN8GameMode6MayUseERK8BlockPosP4Item = 0x697af8
_ZN8GameMode15handleCraftItemEiiNSt3__110shared_ptrI6PlayerEE = 0x697c08
_ZN8GameMode22handleStackedCraftItemERNSt3__16vectorINS0_4pairIiiEENS0_9allocatorIS3_EEEEiNS0_10shared_ptrI6PlayerEE = 0x6980ac
_ZN8GameMode21handleCustomCraftItemERNSt3__16vectorIiNS0_9allocatorIiEEEENS0_10shared_ptrI6PlayerEE = 0x698750
_ZN12GameRendererC1EP9MinecraftP15ResourceManager = 0x698da4
_ZN9Minecraft21getItemInHandRendererEv = 0x6992d8
runUpdate__12GameRendererSFPv = 0x6992e0
_ZN12GameRenderer4tickEb = 0x6996ec
_ZN12GameRenderer4pickEf = 0x69a1c0
getCamera__12GameRendererFv = 0x69a950
_ZN12GameRenderer11setupCameraEfi = 0x69b82c
_ZN14GlStateManager12loadIdentityEv = 0x69bb4c
_ZN12GameRenderer15getLightTextureEiP5Level = 0x69c630
_ZN12GameRenderer18updateLightTextureEf = 0x69c654
_ZN12GameRenderer6renderEfxb = 0x69cbf0
_ZN12GameRenderer11fjGetFpsCapEi = 0x69ce18
_ZN9Minecraft13getAverageFpsEv = 0x69ce38
_ZN12GameRenderer11renderLevelEfx = 0x69ce48
_ZN3Gui6renderEfbii = 0x69cf5c
_ZN12GameRenderer14setupGuiScreenEi = 0x69daa8
_ZN14GlStateManager5clearEi = 0x69db38
updateDirtyChunks__13LevelRendererFv = 0x69dd58
_ZN14GlStateManager10disableFogEv = 0x69f97c
_ZN14GlStateManager9enableFogEv = 0x69fa88
_ZN9Minecraft25getEntityRenderDispatcherEv = 0x6a010c
_ZN14GlStateManager8cullFaceEi = 0x6a0270
_ZN14GlStateManager15enableDepthTestEv = 0x6a0ba4
_ZN14GlStateManager9colorMaskEbbbb = 0x6a0bb8
_ZN12GameRenderer13renderEyePassEifxb = 0x6a0c14
_ZN12GameRenderer15setupClearColorEf = 0x6a1544
renderSky__13LevelRendererFf = 0x6a2100
renderHaloRing__13LevelRendererFf = 0x6a2a98
_ZN14GlStateManager5orthoEdddddd = 0x6a5b10
clearColor__14GlStateManagerSFfN31 = 0x6a5b40
_ZN12GameRenderer13resetFogColorEb = 0x6a5bb0
fogMode__14GlStateManagerSFi = 0x6a5bf0
fogStart__14GlStateManagerSFf = 0x6a5c20
fogEnd__14GlStateManagerSFf = 0x6a5c48
_ZN14GlStateManager16disableDepthTestEv = 0x6a5d68
_ZN12GameRenderer29renderItemActivationAnimationEiif = 0x6a5e10
_ZN9Minecraft15getItemRendererEv = 0x6a60a4
_ZN14GlStateManager12BooleanStateC2Ei = 0x6a72f8
_ZN14GlStateManager11enableStateEi = 0x6a732c
_ZN14GlStateManager12disableStateEi = 0x6a7438
_ZN14GlStateManager9ColorMaskC1Ev = 0x6a7560
_ZN14GlStateManager5ColorC1Ev = 0x6a756c
_ZN14GlStateManager12TextureStateC2Ev = 0x6a758c
_ZN14GlStateManager10AlphaStateC1Ev = 0x6a75c4
_ZN14GlStateManager18ColorMaterialStateC1Ev = 0x6a7600
_ZN14GlStateManager10BlendStateC1Ev = 0x6a7638
_ZN14GlStateManager10DepthStateC1Ev = 0x6a7678
_ZN14GlStateManager8FogStateC1Ev = 0x6a76bc
_ZN14GlStateManager9CullStateC1Ev = 0x6a7704
_ZN14GlStateManager18PolygonOffsetStateC1Ev = 0x6a7740
_ZN14GlStateManager15ColorLogicStateC1Ev = 0x6a778c
_ZN14GlStateManager10ClearStateC1Ev = 0x6a77c4
_ZN14GlStateManager11StencilFuncC1Ev = 0x6a7810
_ZN14GlStateManager12StencilStateC1Ev = 0x6a7824
_ZN14GlStateManager11TexGenStateC1Ev = 0x6a78a8
_ZN14GlStateManager12disableLightEi = 0x6a7948
_ZN14GlStateManager12enableTexGenEN14GlStateManager6TexGenE = 0x6a7a78
_ZN14GlStateManager13disableTexGenEN14GlStateManager6TexGenE = 0x6a7b00
_ZN14GlStateManager10texGenModeEN14GlStateManager6TexGenEi = 0x6a7b18
_ZN14GlStateManager11texGenParamEN14GlStateManager6TexGenEiP11FloatBuffer = 0x6a7b48
_ZN14GlStateManager13activeTextureEi = 0x6a7bc0
_ZN14GlStateManager10clearDepthEd = 0x6a7d30
_ZN14GlStateManager8callListEi = 0x6a7dec
newList__14GlStateManagerSFiT1 = 0x6a7e14
endList__14GlStateManagerSFi = 0x6a7e38
_ZN14GlStateManager10staticCtorEv = 0x6a7e98
_ZN14GlStateManager18disableClientStateEi = 0x6a8020
_ZN3GuiC1EP9Minecraft = 0x6a9b8c
_ZN12GuiComponentC2Ev = 0x6a9d74
_ZN9Minecraft16useFancyGraphicsEv = 0x6a9d7c
_ZN3Gui13renderPumpkinEii = 0x6a9ddc
_ZN3Gui19renderPortalOverlayEfii = 0x6a9f34
_ZN3Gui20renderThermalOverlayEP25ThermalAreaRuleDefinitionfiif = 0x6aa144
_ZN12GuiComponent4fillEiiiii = 0x6aa3dc
_ZN3Gui4tickEv = 0x6aa510
_ZN12GuiComponent10drawStringEP4FontRKNSt3__112basic_stringIwNS2_11char_traitsIwEENS2_9allocatorIwEEEEiii = 0x6ab3b4
_ZN20LivingEntityRenderer5scaleERNSt3__110shared_ptrI12LivingEntityEEf = 0x6adec8
_ZN20LivingEntityRenderer6renderEP4AABBddd = 0x6af344
_ZN5InputC2Ev = 0x6af8f0
_ZN5Input4tickEP11LocalPlayer = 0x6af90c
_ZN19MultiPlayerGameMode14isInputAllowedEi = 0x6afcbc
_ZN5Input13getMoveVectorEv = 0x6afe58
_ZN10ItemColors13createDefaultEP11BlockColors = 0x6b0490
_ZN18ItemEntityRenderer6renderERNSt3__110shared_ptrI6EntityEEdddff = 0x6b0fa0
_ZN14ItemTransforms13getTransformsEPK12ItemInstanceP12LivingEntity = 0x6b18d8
_ZN14ItemTransforms5applyEP13ItemTransformb = 0x6b3034
_ZN18ItemEntityRenderer19renderItemBillboardENSt3__110shared_ptrI10ItemEntityEEP18TextureAtlasSpriteiffff = 0x6b31a4
_ZN18ItemEntityRenderer11bindTextureERKNSt3__112basic_stringIwNS0_11char_traitsIwEENS0_9allocatorIwEEEES8_ = 0x6b36e8
_ZN18ItemInHandRenderer12renderItem3DEP10TesselatorffffiifN18ItemInHandRenderer15eItemRenderModeE = 0x6b36f4
_ZN13MemoryTracker8genListsEi = 0x6b4310
_ZN9ItemIdFix10staticCtorEv = 0x6b4748
_ZN18ItemInHandRenderer10renderItemENSt3__110shared_ptrI12LivingEntityEE12not_null_ptrI12ItemInstanceEibib = 0x6b71b8
_ZN18ItemInHandRendererC1EP9Minecraft = 0x6b7314
_ZN18ItemInHandRenderer16calculateMapTiltEf = 0x6b8780
_ZN18ItemInHandRenderer17renderArmWithItemENSt3__110shared_ptrI11LocalPlayerEEffN15InteractionHand16EInteractionHandEf12not_null_ptrI12ItemInstanceEf = 0x6b9488
staticCtor__13ItemPotionFixSFv = 0x6bc4b4
_ZN12ItemRendererC1EP22EntityRenderDispatcherP8TexturesP10ItemColors = 0x6bd0bc
_ZN14ItemTransformsC1Ev = 0x6bff6c
_ZN14ItemTransforms25set_thirdperson_righthandEfffffffff = 0x6c0564
_ZN14ItemTransforms24set_thirdperson_lefthandEfffffffff = 0x6c059c
_ZN14ItemTransforms25set_firstperson_righthandEfffffffff = 0x6c05d4
_ZN14ItemTransforms24set_firstperson_lefthandEfffffffff = 0x6c060c
_ZN14ItemTransforms10set_groundEfffffffff = 0x6c06b4
_ZN14ItemTransforms8set_headEfffffffff = 0x6c0774
_ZN9Minecraft9setScreenEP6Screen = 0x6c0f78
_ZN7Options4saveEv = 0x6c10e8
_ZN10KeyMappingC1ERKNSt3__112basic_stringIwNS0_11char_traitsIwEENS0_9allocatorIwEEEEi = 0x6c1e54
_ZN13LevelRendererC1EP9MinecraftP8Textures = 0x6c355c
getGlobalChunkCount__13LevelRendererSFv = 0x6c3af8
renderStars__13LevelRendererFv = 0x6c3b08
createCloudMesh__13LevelRendererFv = 0x6c3ee0
allChanged__13LevelRendererFi = 0x6c480c
updatedChunkAt__Q2_13LevelRenderer21DestroyedBlockManagerFP5LevelRC8BlockPosi = 0x6c5e28
getGlobalIndexForChunk__13LevelRendererSFiN21P5Level = 0x6c6230
getDimensionIndexFromId__13LevelRendererSFi = 0x6c95c4
getChunkIndex__FiN31 = 0x6c95f0
clearGlobalChunkFlag__13LevelRendererFiN21P5LevelUcT5 = 0x6c990c
__ct__Q2_13LevelRenderer21DestroyedBlockManagerFv = 0x6c9ab8
_ZN13LevelRenderer21DestroyedBlockManager4tickEv = 0x6c9db4
_ZN20LivingEntityRenderer8getModelEv = 0x6ca764
_ZN20LivingEntityRenderer8getModelERNSt3__110shared_ptrI12LivingEntityEE = 0x6ca76c
_ZN20LivingEntityRenderer7rotlerpEfff = 0x6ca774
_ZN20LivingEntityRenderer19translateWeaponItemEv = 0x6ca7cc
_ZN20LivingEntityRenderer6renderERNSt3__110shared_ptrI6EntityEEdddff = 0x6ca7d0
_ZN20LivingEntityRenderer11renderModelERNSt3__110shared_ptrI12LivingEntityEEffffff = 0x6caf34
_ZN20LivingEntityRenderer9isVisibleERNSt3__110shared_ptrI12LivingEntityEE = 0x6cb060
_ZN20LivingEntityRenderer13setupPositionERNSt3__110shared_ptrI12LivingEntityEEddd = 0x6cb330
_ZN20LivingEntityRenderer14setupRotationsERNSt3__110shared_ptrI12LivingEntityEEfff = 0x6cb340
_ZN20LivingEntityRenderer13getAttackAnimERNSt3__110shared_ptrI12LivingEntityEEf = 0x6cb5b0
_ZN20LivingEntityRenderer6getBobERNSt3__110shared_ptrI12LivingEntityEEf = 0x6cb5c0
_ZN20LivingEntityRenderer12renderLayersERNSt3__110shared_ptrI12LivingEntityEEfffffffb = 0x6cb5d4
_ZN20LivingEntityRenderer14getFlipDegreesERNSt3__110shared_ptrI12LivingEntityEE = 0x6cb7ac
_ZN20LivingEntityRenderer15getOverlayColorERNSt3__110shared_ptrI12LivingEntityEEff = 0x6cb7b8
_ZN20LivingEntityRenderer10renderNameERNSt3__110shared_ptrI6EntityEEddd = 0x6cb7ec
_ZN11LocalPlayer4hurtEP12DamageSourcef = 0x6cd510
_ZN11LocalPlayer4healEf = 0x6cd518
_ZN11LocalPlayer11startRidingESt10shared_ptrIS_Eb = 0x6cd51c
_ZN11LocalPlayer10stopRidingEv = 0x6cd6a8
_ZN11LocalPlayer13getViewVectorEf = 0x6cd6d4
_ZN11LocalPlayer11isInvisibleEv = 0x6cd6dc
_ZN11LocalPlayer4tickEv = 0x6cd714
_ZN11LocalPlayer11isSprintingEv = 0x6cdf28
_ZN11LocalPlayer5swingEN15InteractionHand16EInteractionHandE = 0x6ce488
_ZN11LocalPlayer12actuallyHurtE12DamageSourcef = 0x6ce564
_ZN11LocalPlayer12checkInBlockEddd = 0x6ceaa8
_ZN11LocalPlayer12setSprintingEb = 0x6cee60
_ZN11LocalPlayer17handleEntityEventEhi = 0x6ceea8
_ZN11LocalPlayer9playSoundEPK10SoundEventff = 0x6cef10
_ZN11LocalPlayer13isEffectiveAiEv = 0x6cef9c
_ZN11LocalPlayer14startUsingItemEN15InteractionHand16EInteractionHandE = 0x6cefa4
_ZN11LocalPlayer11isUsingItemEv = 0x6cf01c
_ZN11LocalPlayer13stopUsingItemEv = 0x6cf024
_ZN11LocalPlayer15getUsedItemHandEv = 0x6cf048
_ZN11LocalPlayer19onSyncedDataUpdatedEPK23EntityDataAccessor_Base = 0x6cf050
_ZN11LocalPlayer10isSneakingEv = 0x6cfe04
_ZN11LocalPlayer12serverAiStepEv = 0x6cfe38
_ZN11LocalPlayer12tickHeadTurnEff = 0x6cff90
_ZN11LocalPlayer6aiStepEv = 0x6d005c
_ZN11LocalPlayer8rideTickEv = 0x6d0e40
_ZN11LocalPlayer20removeEffectNoUpdateE9MobEffect = 0x6d0f8c
_ZN11LocalPlayer4moveE9MoverTypedddb = 0x6d0fa8
_ZN11LocalPlayer15changeDimensionEi = 0x6d168c
_ZN19MultiPlayerGameMode11getTutorialEv = 0x6d28ec
_ZN11LocalPlayer15handleMouseDownEib = 0x6d29f4
_ZN11LocalPlayer28creativeModeHandleMouseClickEib = 0x6d334c
_ZN11LocalPlayer16handleMouseClickEi = 0x6d3704
_ZN19MultiPlayerGameMode9useItemOnEN3std10shared_ptrI6PlayerEEP5LevelRK8BlockPosPK9DirectionP4Vec3N15InteractionHand16EInteractionHandEbPb = 0x6d45cc
_ZN19MultiPlayerGameMode16hasInfiniteItemsEv = 0x6d47ac
_ZN9Minecraft23GetClientMasterGameModeEv = 0x6d55c8
_ZN11LocalPlayer22IsWaitingForScoreboardEv = 0x6d593c
_ZN11LocalPlayer23SetWaitingForScoreboardEb = 0x6d5944
_ZN11MapRendererC1EP4FontP7OptionsP8Textures = 0x6d5978
_ZN13MemoryTracker16createByteBufferEi = 0x6d65d8
_ZN13MemoryTracker15createIntBufferEi = 0x6d65dc
_ZN9MinecraftC1EP9ComponentP6CanvasP15MinecraftAppletiib = 0x6d7390
_ZN9Minecraft4initEv = 0x6d777c
_ZN9Minecraft13getFixerUpperEv = 0x6d7e44
_ZN9Minecraft17setupStatsCounterEv = 0x6d7e4c
_ZN9Minecraft3runEv = 0x6d87bc
_ZN9Minecraft17setLocalPlayerIdxEi = 0x6d87c8
_ZN9Minecraft10run_middleEv = 0x6da2f0
_ZN9Minecraft10isTutorialEv = 0x6dbcbc
_ZN9Minecraft4tickEbb = 0x6dc02c
_ZN19MultiPlayerGameMode16releaseUsingItemEN3std10shared_ptrI6PlayerEE = 0x6de598
_ZN19MultiPlayerGameMode27isServerControlledInventoryEv = 0x6de640
_ZN9Minecraft18tickAllConnectionsEv = 0x6dedd8
_ZN9Minecraft5startERKNSt3__112basic_stringIwNS0_11char_traitsIwEENS0_9allocatorIwEEEES8_ = 0x6dff3c
_ZN9Minecraft17startAndConnectToERKNSt3__112basic_stringIwNS0_11char_traitsIwEENS0_9allocatorIwEEEES8_S8_ = 0x6dffa4
_ZN9Minecraft13getConnectionEi = 0x6e019c
_ZN9Minecraft4mainEv = 0x6e01ac
_ZN9Minecraft18isUsingDefaultSkinEv = 0x6e0688
getCurrentTexturePackId__9MinecraftFv = 0x6e06a0
_ZN15MinecraftServerC1Ev = 0x6e0d98
_ZN15MinecraftServer10initServerExP20_NetworkGameInitDatajb = 0x6e102c
_ZN15MinecraftServer9loadLevelEP18LevelStorageSourceRKNSt3__112basic_stringIwNS2_11char_traitsIwEENS2_9allocatorIwEEEExP9LevelTypeP20_NetworkGameInitData = 0x6e1574
_ZN15MinecraftServer13saveGameRulesEv = 0x6e2e00
_ZN15MinecraftServer8getLevelEi = 0x6e301c
_ZN19MultiPlayerGameMode19GetTutorialsEnabledEv = 0x6e8990
_ZN19MultiPlayerGameMode24ensureHasSentCarriedItemEv = 0x6e9220
_ZN19MultiPlayerGameMode10_useItemOnEN3std10shared_ptrI6PlayerEEP5LevelRK8BlockPosPK9DirectionP4Vec3N15InteractionHand16EInteractionHandEbPb = 0x6e93f4
_ZN7Options6OptionC1ERKNSt3__112basic_stringIwNS1_11char_traitsIwEENS1_9allocatorIwEEEEbb = 0x6f113c
_ZNK7Options6Option10isProgressEv = 0x6f1154
_ZNK7Options6Option5getIdEv = 0x6f1164
_ZNK7Options6Option12getCaptionIdEv = 0x6f1178
_ZN7Options4initEv = 0x6f1184
_ZN7OptionsC1EP9Minecraft4File = 0x6f16ec
_ZN7Options17getKeyDescriptionEi = 0x6f179c
_ZN7Options13getKeyMessageEi = 0x6f17d8
_ZN7Options6setKeyEii = 0x6f18b0
_ZN7Options16getProgressValueEPKNS_6OptionE = 0x6f1be0
_ZN7Options10getMessageEPKNS_6OptionE = 0x6f1d48
_ZN13OptionsScreenC1EP6ScreenP7Options = 0x6f2360
_ZN14ParticleEngineC1EP5LevelP8Textures = 0x6f512c
_ZN14EntityRendererD0Ev = 0x6f730c
_ZN20LivingEntityRendererD0Ev = 0x6f739c
_ZN8GameModeD0Ev = 0x6f7a7c
_ZN8GameMode20RecordLastCheckpointEiibbb = 0x6f7aa0
_ZN5InputD2Ev = 0x6f7e50
_ZN5InputD0Ev = 0x6f7e54
_ZN18ItemEntityRendererD0Ev = 0x6f7f54
_ZN18ItemEntityRenderer12SetItemFrameEb = 0x6f7f78
_ZN10Tesselator11getInstanceEv = 0x70521c
_ZNK10Tesselator10getBuilderEv = 0x70522c
_ZN10PlayerList15getViewDistanceEv = 0x70753c
_ZN10PlayerListC1EP15MinecraftServerP14MasterGameMode = 0x709f9c
_ZN10PlayerList11getMaxRangeEv = 0x70cd34
_ZN11ServerLevel25getDimensionSpecificSpawnEv = 0x70fcac
_ZN11ServerLevel15getPortalForcerEv = 0x70fcbc
_ZN10PlayerList15isTrackingBlockERK8BlockPosPK9Dimension = 0x710368
_ZN16ProgressRendererC1EP9Minecraft = 0x715948
_ZN6ScreenC1Ev = 0x717814
_ZN6Screen6renderEiif = 0x717860
_ZN6Rect2iC1Eiiii = 0x7178c4
_ZN6Screen12mouseClickedEiii = 0x7182a4
_ZNK16ResourceLocation4initERK16ResourceLocation = 0x7184e8
_ZN16ResourceLocationC1ERK16ResourceLocation = 0x7185cc
_ZN16ResourceLocation4__asERK16ResourceLocation = 0x718624
_ZN16ResourceLocationC1Ev = 0x718648
_ZN16ResourceLocationC1ERKNSt3__112basic_stringIwNS0_11char_traitsIwEENS0_9allocatorIwEEEE = 0x718778
_ZN16ResourceLocation9decomposeERKSt12basic_stringIwSt11char_traitsIwESt9allocatorIwEE = 0x718910
_ZN16ResourceLocationD1Ev = 0x718c40
_ZNK16ResourceLocation12getNamespaceEv = 0x718cd8
_ZNK16ResourceLocation7getPathEv = 0x718ce0
_ZNK16ResourceLocation10getTextureEv = 0x718ce8
_ZNK16ResourceLocation8toStringEv = 0x718d40
_ZNK16ResourceLocationeqEPKS_ = 0x718e04
_ZN6Screen10keyPressedEwi = 0x719194
_ZN6Screen13mouseReleasedEiii = 0x7191ac
_ZN6Screen13buttonClickedEP6Button = 0x7191e4
_ZN6Screen4initEP9Minecraftii = 0x7191e8
_ZN6Screen4initEv = 0x719278
_ZN6Screen7setSizeEii = 0x719280
_ZN6Screen12updateEventsEv = 0x719284
_ZN6Screen10mouseEventEv = 0x719288
_ZN6Screen13keyboardEventEv = 0x71928c
_ZN6Screen4tickEv = 0x719290
_ZN6Screen7removedEv = 0x719294
_ZN6Screen16renderBackgroundEv = 0x719298
_ZN6Screen16renderBackgroundEi = 0x7192a8
_ZN6Screen20renderDirtBackgroundEi = 0x7192e8
_ZN6Screen13isPauseScreenEv = 0x7192ec
_ZN6Screen13confirmResultEbi = 0x7192f4
_ZN6Screen10tabPressedEv = 0x7192f8
_ZN20ScreenSizeCalculator4initEP7Optionsiii = 0x7192fc
_ZN20ScreenSizeCalculatorC1EP7Optionsi = 0x7193b0
_ZN20ScreenSizeCalculatorC1EP7Optionsiii = 0x7193fc
_ZN20ScreenSizeCalculator8getWidthEv = 0x719400
_ZN20ScreenSizeCalculator9getHeightEv = 0x719408
_ZN21ScrolledSelectionListC1EP9Minecraftiiiii = 0x719410
_ZN21ScrolledSelectionList14getMaxPositionEv = 0x719448
_ZN17SelectWorldScreenC1Ev = 0x719588
_ZN17SelectWorldScreen7setSizeEii = 0x7195fc
_ZN17SelectWorldScreen8postInitEv = 0x719ab4
_ZN17SelectWorldScreen13buttonClickedEP6Button = 0x719ed4
_ZN17SelectWorldScreen13confirmResultEbi = 0x71a3e0
_ZN17SelectWorldScreen6renderEiif = 0x71a478
inBounds__16ServerChunkCacheFiT1 = 0x71b78c
computeIdx__16ServerChunkCacheFiT1 = 0x71b7c0
_ZN28ServerGamePacketListenerImplD2Ev = 0x720460
_ZN28ServerGamePacketListenerImplD0Ev = 0x720504
_ZN28ServerGamePacketListenerImpl14handleInteractESt10shared_ptrI25ServerboundInteractPacketE = 0x7205cc
_ZN28ServerGamePacketListenerImpl16handlePaddleBoatESt10shared_ptrI27ServerboundPaddleBoatPacketE = 0x72079c
_ZN28ServerGamePacketListenerImpl26handleAcceptTeleportPacketESt10shared_ptrI36ServerboundAcceptTeleportationPacketE = 0x720dc0
_ZN28ServerGamePacketListenerImpl19handleClientCommandESt10shared_ptrI30ServerboundClientCommandPacketE = 0x720e5c
_ZN28ServerGamePacketListenerImpl26handleContainerButtonClickESt10shared_ptrI37ServerboundContainerButtonClickPacketE = 0x7219c4
_ZN28ServerGamePacketListenerImpl16handleSignUpdateESt10shared_ptrI27ServerboundSignUpdatePacketE = 0x721ed0
_ZN28ServerGamePacketListenerImpl15handleUseItemOnESt10shared_ptrI26ServerboundUseItemOnPacketE = 0x7228d0
_ZN28ServerGamePacketListenerImpl13handleUseItemESt10shared_ptrI24ServerboundUseItemPacketE = 0x72299c
_ZN28ServerGamePacketListenerImpl26handleResourcePackResponseESt10shared_ptrI29ServerboundResourcePackPacketE = 0x722ed8
_ZN28ServerGamePacketListenerImpl21canHandleAsyncPacketsEv = 0x722f78
_ZN28ServerGamePacketListenerImpl19handlePlayerCommandESt10shared_ptrI30ServerboundPlayerCommandPacketE = 0x7231c8
_ZN28ServerGamePacketListenerImpl23handleBlockRegionUpdateESt10shared_ptrI23BlockRegionUpdatePacketE = 0x72323c
_ZN28ServerGamePacketListenerImpl20handleUpdateProgressESt10shared_ptrI20UpdateProgressPacketE = 0x723240
_ZN28ServerGamePacketListenerImpl20handleContainerClickESt10shared_ptrI31ServerboundContainerClickPacketE = 0x723294
_ZN28ServerGamePacketListenerImpl22handleContainerContentESt10shared_ptrI36ClientboundContainerSetContentPacketE = 0x723634
_ZN28ServerGamePacketListenerImpl21handleDamageIndicatorESt10shared_ptrI32ClientboundDamageIndicatorPacketE = 0x7236d4
_ZN28ServerGamePacketListenerImpl18handlePlayerCombatESt10shared_ptrI29ClientboundPlayerCombatPacketE = 0x72391c
_ZN28ServerGamePacketListenerImpl22handleChangeDifficultyESt10shared_ptrI33ClientboundChangeDifficultyPacketE = 0x723a4c
_ZN28ServerGamePacketListenerImpl15handleSetBorderESt10shared_ptrI26ClientboundSetBorderPacketE = 0x723ce0
_ZN28ServerGamePacketListenerImpl15handleSetTitlesESt10shared_ptrI26ClientboundSetTitlesPacketE = 0x723f34
_ZN28ServerGamePacketListenerImpl21handleUpdateMobEffectESt10shared_ptrI32ClientboundUpdateMobEffectPacketE = 0x724174
_ZN28ServerGamePacketListenerImpl16handleKickPlayerESt10shared_ptrI16KickPlayerPacketE = 0x7243e8
_ZN28ServerGamePacketListenerImpl17handleGameCommandESt10shared_ptrI17GameCommandPacketE = 0x724448
_ZN28ServerGamePacketListenerImpl10handleVoteESt10shared_ptrI10VotePacketE = 0x7244bc
_ZN28ServerGamePacketListenerImpl17handleMoveVehicleESt10shared_ptrI28ServerboundMoveVehiclePacketE = 0x724574
_ZN28ServerGamePacketListenerImpl34handleUpdateGameRuleProgressPacketESt10shared_ptrI28UpdateGameRuleProgressPacketE = 0x7245a4
_ZN28ServerGamePacketListenerImpl17handlePlayerReadyESt10shared_ptrI17PlayerReadyPacketE = 0x724778
_ZN28ServerGamePacketListenerImpl19handleMapSelectInfoESt10shared_ptrI19MapSelectInfoPacketE = 0x724824
_ZN28ServerGamePacketListenerImpl14handleGameModeESt10shared_ptrI14GameModePacketE = 0x72529c
_ZN28ServerGamePacketListenerImpl17handlePlayerInputESt10shared_ptrI28ServerboundPlayerInputPacketE = 0x7253a0
_ZN28ServerGamePacketListenerImpl22handleScoreboardPacketESt10shared_ptrI16ScoreboardPacketE = 0x7259a4
_ZN28ServerGamePacketListenerImpl25handleSetCreativeModeSlotESt10shared_ptrI36ServerboundSetCreativeModeSlotPacketE = 0x725aac
_ZN28ServerGamePacketListenerImpl40handleMiniGamePlayerSettingsUpdatePacketESt10shared_ptrI39ClientboundMGPlayerSettingsUpdatePacketE = 0x725d24
_ZN28ServerGamePacketListenerImpl16handleLevelEventESt10shared_ptrI27ClientboundLevelEventPacketE = 0x725d90
_ZN28ServerGamePacketListenerImpl23handleClientInformationESt10shared_ptrI34ServerboundClientInformationPacketE = 0x726240
_ZN28ServerGamePacketListenerImpl13handlePowerupESt10shared_ptrI24ClientboundPowerupPacketE = 0x7263d8
_ZN28ServerGamePacketListenerImpl18handleDebugOptionsESt10shared_ptrI18DebugOptionsPacketE = 0x726ebc
_ZN28ServerGamePacketListenerImpl15handleCraftItemESt10shared_ptrI15CraftItemPacketE = 0x726ecc
_ZN28ServerGamePacketListenerImpl15handleTradeItemESt10shared_ptrI15TradeItemPacketE = 0x727188
_ZN28ServerGamePacketListenerImpl18handleItemCooldownESt10shared_ptrI25ClientboundCooldownPacketE = 0x727538
_ZN28ServerGamePacketListenerImpl36handleClientboundSetPlayerTeamPacketESt10shared_ptrI30ClientboundSetPlayerTeamPacketE = 0x72762c
_ZN28ServerGamePacketListenerImpl15handleRotateMobESt10shared_ptrI27ClientboundRotateHeadPacketE = 0x727630
_ZN11ServerLevel10staticCtorEv = 0x72770c
_ZN11ServerLevelD0Ev = 0x72852c
_ZN11ServerLevel4tickEv = 0x728550
_ZN11ServerLevel21allPlayersAreSleepingEv = 0x728960
_ZN11ServerLevel13validateSpawnEv = 0x72910c
_ZN11ServerLevel17fetchTicksInChunkEP10LevelChunkb = 0x72aa94
_ZN11ServerLevel15setInitialSpawnEP13LevelSettings = 0x72b304
_ZN21TexturePackRepository11getSelectedEv = 0x72b8cc
_ZN11ServerLevel13atEntityLimitESt10shared_ptrI6EntityE = 0x72e174
_ZN12ServerPlayer10addWalkersEP14DataFixerUpper = 0x72fc60
_ZN8Settings10getBooleanE14EServerSettingb = 0x73aa54
_ZN12StatsCounterC1Ev = 0x747150
_ZN12StatsCounter4tickEi = 0x747b20
_ZN12StatsCounter5clearEv = 0x747f00
_ZN12StatsCounter5parseEPv = 0x747f24
_ZN11StringTableC1E15arrayWithLengthIhEbb = 0x74a7b0
_ZN11StringTableD1Ev = 0x74a904
_ZN11StringTable7getDataEPPhPj = 0x74bb54
_ZN11StringTable9getStringEi = 0x74bbb8
_ZN11StringTable17copyStringToTableERKNSt3__112basic_stringIwNS0_11char_traitsIwEENS0_9allocatorIwEEEEPS_ = 0x74bd40
_ZN10Tesselator22CreateNewThreadStorageEi = 0x74dca8
_ZN10TesselatorC1Ei = 0x74dcf4
_ZN7Texture4initERKNSt3__112basic_stringIwNS0_11char_traitsIwEENS0_9allocatorIwEEEEiiiiiiiib = 0x74dd48
_ZN7Texture4initERKNSt3__112basic_stringIwNS0_11char_traitsIwEENS0_9allocatorIwEEEEiiiiiiiiP13BufferedImageb = 0x74def4
_ZN7Texture11updateOnGPUEv = 0x74e0f8
_ZN7Texture17transferFromImageEP13BufferedImage = 0x74e310
_ZN7TextureC1ERKNSt3__112basic_stringIwNS0_11char_traitsIwEENS0_9allocatorIwEEEEiiiiiiiP13BufferedImageb = 0x74ea50
_ZN7TextureC1ERKNSt3__112basic_stringIwNS0_11char_traitsIwEENS0_9allocatorIwEEEEiiiiiiiiP13BufferedImageb = 0x74eaa8
_ZN7TextureD1Ev = 0x74ead8
_ZN7Texture7getDataEj = 0x74ec04
_ZN7Texture9getHeightEv = 0x74ec10
_ZN7Texture8getWidthEv = 0x74ec18
_ZN7Texture10crispBlendEii = 0x74ec20
_ZN7Texture12getManagerIdEv = 0x74eca8
_ZN7Texture4bindEi = 0x74ecb8
_ZN12TextureAtlasC1EiRKNSt3__112basic_stringIwNS0_11char_traitsIwEENS0_9allocatorIwEEEES8_P13BufferedImageb = 0x74ed04
_ZN12TextureAtlas6stitchEv = 0x74ee74
_ZN12TextureAtlas7loadUVsEv = 0x74f3f4
_ZN12TextureAtlas18getStitchedTextureEv = 0x75daec
vtbl_710112B5F0_func_2 = 0x75daf4
vtbl_710112B5F0_func_3 = 0x75db50
_ZN12TextureAtlas7addIconEbiiRKNSt3__112basic_stringIwNS0_11char_traitsIwEENS0_9allocatorIwEEEE = 0x75db60
_ZN18TextureAtlasSpriteC1ERKNSt3__112basic_stringIwNS0_11char_traitsIwEENS0_9allocatorIwEEEES8_ffff = 0x75e378
_ZN18TextureAtlasSprite17freeFrameTexturesEv = 0x75e410
_ZN18TextureAtlasSpriteD2Ev = 0x75e510
_ZN18TextureAtlasSpriteD0Ev = 0x75e5a4
_ZNK18TextureAtlasSprite4getXEv = 0x75e5c8
_ZNK18TextureAtlasSprite4getYEv = 0x75e5d0
_ZNK18TextureAtlasSprite8getWidthEv = 0x75e5d8
_ZNK18TextureAtlasSprite9getHeightEv = 0x75e5e0
_ZNK18TextureAtlasSprite5getU0Eb = 0x75e5e8
_ZNK18TextureAtlasSprite5getU1Eb = 0x75e604
_ZNK18TextureAtlasSprite4getUEd = 0x75e620
_ZNK18TextureAtlasSprite5getV0Eb = 0x75e6a0
_ZNK18TextureAtlasSprite5getV1Eb = 0x75e6bc
_ZNK18TextureAtlasSprite4getVEd = 0x75e6d8
_ZNK18TextureAtlasSprite7getNameEv = 0x75e7a8
_ZNK18TextureAtlasSprite14getSourceWidthEv = 0x75e7b4
_ZNK18TextureAtlasSprite15getSourceHeightEv = 0x75e7c8
_ZN18TextureAtlasSprite11cycleFramesEv = 0x75e7dc
_ZN18TextureAtlasSprite9getFramesEv = 0x75ecec
_ZN18TextureAtlasSprite8setFlagsEi = 0x75ed0c
_ZNK18TextureAtlasSprite8getFlagsEv = 0x75ed14
_ZN18TextureAtlasSprite10hasOwnDataEv = 0x75ed1c
_ZN14TextureManager14createInstanceEv = 0x75ed24
_ZN14TextureManagerC1Ev = 0x75ed58
_ZN21TexturePackRepositoryC1E4FileP9Minecraft = 0x75f270
_ZN21TexturePackRepository13addDebugPacksEv = 0x75f59c
_ZN21TexturePackRepository24clearInvalidTexturePacksEv = 0x75f9b8
_ZN8TexturesC1EP21TexturePackRepositoryP7Options = 0x75fb00
_ZN8Textures19loadIndexedTexturesEv = 0x75fcc4
_ZN8Textures17loadTexturePixelsE13_TEXTURE_NAMERKNSt3__112basic_stringIwNS1_11char_traitsIwEENS1_9allocatorIwEEEE = 0x760468
_ZN8Textures9readImageE13_TEXTURE_NAMERKNSt3__112basic_stringIwNS2_11char_traitsIwEENS2_9allocatorIwEEEE = 0x760814
_ZN8Textures17loadTexturePixelsEP13BufferedImage = 0x760aa0
_ZN8Textures11loadTextureEi = 0x760b70
_ZN8Textures11bindTextureEPK16ResourceLocation = 0x760c38
_ZN8Textures20replaceTextureDirectE15arrayWithLengthIiEiii = 0x761788
_ZN8Textures14releaseTextureEi = 0x761818
_ZN8Textures4tickEbbb = 0x762158
_ZN8Textures9reloadAllEv = 0x762268
_ZN8Textures10freeStitchEv = 0x762368
_ZN8Textures6stitchEv = 0x762390
_ZN8Textures9IsTUImageE13_TEXTURE_NAMERKNSt3__112basic_stringIwNS1_11char_traitsIwEENS1_9allocatorIwEEEE = 0x7623d0
_ZN20TheEndPortalRenderer9getBufferEffff = 0x763168
_ZN5TimerC1Ef = 0x7636e4
_ZN5Timer11advanceTimeEv = 0x763728
_ZN11TitleScreenC1Ev = 0x7638f4
_ZN8Tooltips10staticCtorEv = 0x764454
_ZN8TooltipsL19SetInteractTooltipsEN3std10shared_ptrI22MultiplayerLocalPlayerEEP16MultiPlayerLevelPK9HitResultN17InteractionResult18EInteractionResultE = 0x7644ac
_ZN8Tooltips12ResetTooltipEi18EControllerActions = 0x7652c0
_ZN4User10staticCtorEv = 0x76b2e8
_ZN4UserC1ERKNSt3__112basic_stringIwNS0_11char_traitsIwEENS0_9allocatorIwEEEES8_ = 0x76ba88
_ZN6ScreenD0Ev = 0x773434
_ZN17SelectWorldScreenD2Ev = 0x773590
_ZN17SelectWorldScreenD0Ev = 0x7735dc
vtbl_710112B5F0_func_0 = 0x773f58
vtbl_710112B5F0_func_1 = 0x773fb4
_ZN11Compression13ThreadStorageC1Ev = 0x780284
_ZN11Compression13ThreadStorageD1Ev = 0x7802b8
_ZN11Compression22CreateNewThreadStorageEv = 0x7802f0
_ZN11Compression23UseDefaultThreadStorageEv = 0x780350
_ZN11Compression20ReleaseThreadStorageEv = 0x78036c
_ZN11Compression14getCompressionEv = 0x7803c8
_ZN11Compression19internalCompressRleEPvPjS0_j = 0x7803ec
_ZN11Compression21internalDecompressRleEPvPjS0_j = 0x7805c0
_ZN11Compression14CompressLZXRLEEPvPjS0_j = 0x7806a8
_ZN11Compression8CompressEPvPjS0_j = 0x780758
_ZN11Compression16DecompressLZXRLEEPvPjS0_j = 0x7807c4
_ZN11Compression10DecompressEPvPjS0_j = 0x7808d0
_ZN11Compression18DecompressWithTypeEPvPjS0_j = 0x7809f4
_ZN11Compression21VitaVirtualDecompressEPvPjS0_j = 0x780a48
_ZN11CompressionC1Ev = 0x780af0
_ZN11CompressionD1Ev = 0x780b78
_ZN11Compression20SetDecompressionTypeE13ESavePlatform = 0x780bd0
stbi_image_free = 0x780cc0
_ZL9stbi__errPKc = 0x780cc4
_ZL31stbi__load_and_postprocess_8bitP13stbi__contextPiS1_S1_i = 0x780cd0
stbi_load_from_memory = 0x780e68
_ZL15stbi__start_memP13stbi__contextPKhi = 0x780ed8
stbi_load_from_callbacks = 0x780ef0
_ZL21stbi__start_callbacksP13stbi__contextP17stbi_io_callbacksPv = 0x780f60
_ZL14stbi__hdr_testP13stbi__context = 0x780fb8
_ZL12stbi__mallocm = 0x781010
_ZL13stbi__do_zlibP10stbi__zbufPciii = 0x781014
stbi_zlib_decode_malloc_guesssize_headerflag = 0x78102c
_ZN11TextureUtil10decodeJpegEPviPiS1_ = 0x781104
_ZN11TextureUtil26insertZlibAlphaChannelDataEPviiPvi = 0x781154
TextureUtil__ByteFlipRGBAToARGB = 0x781288
TextureUtil__LoadTextureData = 0x7812a0
_ZN8StbiFile3eofEPv = 0x78136c
_ZN8StbiFile4skipEPvi = 0x7813d4
_ZN8StbiFile4readEPvPci = 0x781420
GetFileSize = 0x7814d0
ProcessLoadedTextureData = 0x7814d4
CloseHandle_thunk = 0x781590
_ZL15stbi__load_mainP13stbi__contextPiS1_S1_iP17stbi__result_infoi = 0x7815f0
_ZL21stbi__convert_16_to_8Ptiii = 0x781884
_ZL15stbi__jpeg_testP13stbi__context = 0x78193c
_ZL15stbi__jpeg_loadP13stbi__contextPiS1_S1_iP17stbi__result_info = 0x781998
_ZL14stbi__png_testP13stbi__context = 0x781a10
_ZL14stbi__png_loadP13stbi__contextPiS1_S1_iP17stbi__result_info = 0x781a40
_ZL14stbi__bmp_testP13stbi__context = 0x781a64
_ZL14stbi__bmp_loadP13stbi__contextPiS1_S1_iP17stbi__result_info = 0x781a94
_ZL14stbi__gif_testP13stbi__context = 0x7824cc
_ZL14stbi__gif_loadP13stbi__contextPiS1_S1_iP17stbi__result_info = 0x7824fc
