@sdk:1017

_init = 0x24
_fini = 0x160
__nnDetailNintendoSdkRuntimeObjectFileRefer = 0x1ac
_ZN2nn6crypto16DecryptAes128CbcEPvmPKvmS3_mS3_m = 0x1b0
_ZN2nn6crypto16EncryptAes128CbcEPvmPKvmS3_mS3_m = 0x2c0
_ZN2nn6crypto16DecryptAes128CcmEPvmS1_mPKvmS3_mS3_mS3_mm = 0x3dc
_ZN2nn6crypto6detail11CcmModeImplINS0_12AesEncryptorILm16EEEE10InitializeEPKS4_PKvmllm = 0x5a8
_ZN2nn6crypto6detail11CtrModeImplINS0_12AesEncryptorILm16EEEE16IncrementCounterEv = 0x80c
_ZN2nn6crypto6detail10CbcMacImplINS0_12AesEncryptorILm16EEEE6UpdateEPKvm = 0x948
_ZN2nn6crypto6detail10CbcMacImplINS0_12AesEncryptorILm16EEEE12ProcessBlockEPKv = 0xc58
_ZN2nn6crypto6detail11CtrModeImplINS0_12AesEncryptorILm16EEEE6UpdateEPvmPKvm = 0xd8c
_ZN2nn6crypto6detail11CcmModeImplINS0_12AesEncryptorILm16EEEE11GenerateMacEv = 0x10d0
_ZN2nn6crypto16EncryptAes128CcmEPvmS1_mPKvmS3_mS3_mS3_mm = 0x1234
_ZN2nn6crypto16DecryptAes128CtrEPvmPKvmS3_mS3_m = 0x1400
_ZN2nn6crypto16EncryptAes128CtrEPvmPKvmS3_mS3_m = 0x14b4
_ZN2nn6crypto11IsSameBytesEPKvS2_m = 0x1568
_ZN2nn6crypto19GenerateHmacSha1MacEPvmPKvmS3_m = 0x156c
_ZN2nn6crypto6detail8HmacImplINS0_13Sha1GeneratorEE10InitializeEPKvm = 0x15e4
_ZN2nn6crypto6detail8HmacImplINS0_13Sha1GeneratorEE6GetMacEPvm = 0x1730
_ZN2nn6crypto21GenerateHmacSha256MacEPvmPKvmS3_m = 0x1878
_ZN2nn6crypto6detail8HmacImplINS0_15Sha256GeneratorEE10InitializeEPKvm = 0x18f0
_ZN2nn6crypto6detail8HmacImplINS0_15Sha256GeneratorEE6GetMacEPvm = 0x1a3c
_ZN2nn6crypto16GenerateSha1HashEPvmPKvm = 0x1b80
_ZN2nn6crypto18GenerateSha256HashEPvmPKvm = 0x1be4
_ZN2nn6crypto15GenerateMd5HashEPvmPKvm = 0x1c48
_ZN2nn6crypto6detail6BigNumC2Ev = 0x1cac
_ZN2nn6crypto6detail6BigNum3SetEPKvm = 0x1cb8
_ZNK2nn6crypto6detail6BigNum3GetEPvm = 0x1d28
_ZNK2nn6crypto6detail6BigNum7GetSizeEv = 0x1d3c
_ZN2nn6crypto6detail6BigNum13ReserveStaticEPji = 0x1d90
_ZNK2nn6crypto6detail6BigNum6ModExpEPvPKvRKS2_m = 0x1da0
_ZN2nn6crypto6detail6BigNumD2Ev = 0x1e80
_ZN2nn6crypto6detail6BigNum7CleanseEv = 0x1e84
_ZN2nn6crypto6detail17bigint_digit_multEPjjj = 0x1e94
_ZN2nn6crypto6detail11bigint_copyEPjPKji = 0x1ea4
_ZN2nn6crypto6detail11bigint_zeroEPji = 0x1f28
_ZN2nn6crypto6detail13bigint_digitsEPKji = 0x1f50
_ZN2nn6crypto6detail11bigint_multEPjPKjS4_i = 0x1f74
_ZN2nn6crypto6detail10bigint_cmpEPKjS3_i = 0x2080
_ZN2nn6crypto6detail10bigint_divEPjS2_PKjiS4_i = 0x20d0
_ZN2nn6crypto6detail10bigint_modEPjPKjiS4_i = 0x2844
_ZN2nn6crypto6detail15bigint_mod_multEPjPKjS4_S4_i = 0x2894
_ZN2nn6crypto6detail14bigint_mod_expEPjPKjS4_iS4_i = 0x29d4
_ZN2nn6crypto6detail13bigint_iszeroEPKji = 0x2cb8
_ZN2nn6crypto6detail14bigint_mod_invEPjPKjS4_i = 0x2cf4
_ZN2nn6crypto6detail14bigint_add_modEPjPKjS4_S4_i = 0x2fa4
_ZN2nn6crypto6detail14bigint_sub_modEPjPKjS4_S4_i = 0x3034
_ZN2nn6crypto6detail21OctetStringFromDigitsEPvmPKjm = 0x30ec
_ZN2nn6crypto6detail21DigitsFromOctetStringEPjmPKvm = 0x3170
_ZNK2nn6crypto6detail10EccP256Key8SignHashEPvmPKvmS5_m = 0x3200
_ZNK2nn6crypto6detail10EccP256Key10VerifyHashEPKvmS4_m = 0x32ac
_ZNK2nn6crypto6detail10EccP256Key20GenerateSharedSecretEPvmRKS2_ = 0x333c
_ZN2nn6crypto6detail28alg_p256_generate_public_keyEPNS1_10p256_pointEPNS1_10p256_curveEPjS3_ = 0x33a4
_ZN2nn6crypto6detail28alg_p256_generate_shared_keyEPjPKNS1_10p256_pointEPKNS1_10p256_curveES5_PKj = 0x33fc
_ZN2nn6crypto6detail29alg_p256_generate_private_keyEPKjiPKNS1_17p256_ec_parameterEPj = 0x347c
_ZN2nn6crypto6detail26loc_p256_key_gen_primitiveEPNS1_15p256_ec_keypairEPKNS1_17p256_ec_parameterEPKji = 0x3558
_ZN2nn6crypto6detail32alg_p256_generate_shared_key_preEPNS1_10p256_pointEPNS1_10p256_curveES3_PjS6_ = 0x35ac
_ZN2nn6crypto6detail19alg_init_p256_ECDSAEPNS1_17p256_ec_parameterE = 0x362c
_ZN2nn6crypto6detail19alg_p256_ECDSA_signEPNS1_17p256_ec_signatureEPKvmPKNS1_17p256_ec_parameterEPKjSA_m = 0x363c
_ZN2nn6crypto6detail21alg_p256_ECDSA_verifyEPKNS1_17p256_ec_signatureEPKvmPKNS1_17p256_ec_parameterEPKNS1_10p256_pointE = 0x3830
_ZN2nn6crypto6detail8p256_addEPNS1_10p256_pointEPKS2_S5_PKNS1_10p256_curveE = 0x3a9c
_ZN2nn6crypto6detail8p256_mulEPNS1_10p256_pointEPKjiPKS2_PKNS1_10p256_curveE = 0x406c
_ZN2nn6crypto6detail13p256_validateEPKNS1_10p256_pointEPKNS1_10p256_curveE = 0x41b0
_ZN2nn6crypto6detail7Md5Impl10InitializeEv = 0x42d8
_ZN2nn6crypto6detail7Md5Impl6UpdateEPKvm = 0x4310
_ZN2nn6crypto6detail7Md5Impl12ProcessBlockEv = 0x43fc
_ZN2nn6crypto6detail7Md5Impl7GetHashEPvm = 0x4a9c
_ZN2nn6crypto6detail7Md5Impl16ProcessLastBlockEv = 0x4ae8
nndetailCryptoBignumMulAddWords = 0x4c30
nndetailCryptoBignumMulWords = 0x4cdc
nndetailCryptoBignumAddWords = 0x4d70
nndetailCryptoBignumSubWords = 0x4e40
nndetailCryptoBignum_mul_comba8 = 0x4f14
nndetailCryptoBignum_sqr_comba8 = 0x5288
_ZN2nn6crypto6detail11IsSameBytesEPKvS3_m = 0x558c
_ZN2nn6crypto6detail7AesImplILm16EE10InitializeEPKvmb = 0x55cc
_ZN2nn6crypto6detail7AesImplILm24EE10InitializeEPKvmb = 0x57b4
_ZNK2nn6crypto6detail7AesImplILm24EE12EncryptBlockEPvmPKvm = 0x59b0
_ZNK2nn6crypto6detail7AesImplILm24EE12DecryptBlockEPvmPKvm = 0x5a38
_ZN2nn6crypto6detail7AesImplILm32EE10InitializeEPKvmb = 0x5ac0
_ZNK2nn6crypto6detail7AesImplILm32EE12EncryptBlockEPvmPKvm = 0x5cd0
_ZNK2nn6crypto6detail7AesImplILm32EE12DecryptBlockEPvmPKvm = 0x5d6c
_ZNK2nn6crypto6detail7AesImplILm16EE12EncryptBlockEPvmPKvm = 0x5e08
_ZNK2nn6crypto6detail7AesImplILm16EE12DecryptBlockEPvmPKvm = 0x5e90
_ZN2nn6crypto6detail19CbcModeAes128Helper13EncryptBlocksEPvS3_PKviPKNS0_12AesEncryptorILm16EEE = 0x5f18
_ZN2nn6crypto6detail19CbcModeAes128Helper13DecryptBlocksEPvS3_PKviPKNS0_12AesDecryptorILm16EEE = 0x5fb0
_ZN2nn6crypto6detail11CtrModeImplINS0_12AesEncryptorILm16EEEE21ProcessBlocksUnrolledEPvPKvm = 0x6194
_ZN2nn6crypto6detail8Sha1Impl10InitializeEv = 0x63a8
_ZN2nn6crypto6detail8Sha1Impl6UpdateEPKvm = 0x63e8
_ZN2nn6crypto6detail8Sha1Impl12ProcessBlockEPKv = 0x6890
_ZN2nn6crypto6detail8Sha1Impl7GetHashEPvm = 0x6af8
_ZN2nn6crypto6detail8Sha1Impl16ProcessLastBlockEv = 0x6bd4
_ZN2nn6crypto6detail10Sha256Impl10InitializeEv = 0x70a4
_ZN2nn6crypto6detail10Sha256Impl6UpdateEPKvm = 0x70fc
_ZN2nn6crypto6detail10Sha256Impl13ProcessBlocksEPKhm = 0x7568
_ZN2nn6crypto6detail10Sha256Impl7GetHashEPvm = 0x773c
_ZN2nn6crypto6detail10Sha256Impl16ProcessLastBlockEv = 0x7c7c
_ZN2nn6crypto6detail10Sha256Impl21InitializeWithContextEPKNS0_13Sha256ContextE = 0x809c
_ZNK2nn6crypto6detail10Sha256Impl10GetContextEPNS0_13Sha256ContextE = 0x80d0
_ZN2nn6crypto6detail11XtsModeImplINS1_20XtsModeGenericHelperEEC2Ev = 0x8100
_ZN2nn6crypto6detail11XtsModeImplINS1_20XtsModeGenericHelperEE6UpdateEPvmPKvm = 0x8108
_ZN2nn6crypto6detail11XtsModeImplINS1_20XtsModeGenericHelperEE8FinalizeEPvm = 0x81e4
_ZN2nn6crypto6detail11XtsModeImplINS1_19XtsModeAes128HelperEEC2Ev = 0x8218
_ZN2nn6crypto6detail11XtsModeImplINS1_19XtsModeAes128HelperEE6UpdateEPvmPKvm = 0x8220
_ZN2nn6crypto6detail19XtsModeAes128Helper15ProcessUnrolledE12__Uint8x16_tRPhRPKhRiPKvb = 0x8328
_ZN2nn6crypto6detail11XtsModeImplINS1_19XtsModeAes128HelperEE8FinalizeEPvm = 0x8704
_ZN2nn6crypto6detail11GcmModeImplINS1_20GcmModeGenericHelperEEC2Ev = 0x8738
_ZN2nn6crypto6detail11GcmModeImplINS1_20GcmModeGenericHelperEED2Ev = 0x8740
_ZN2nn6crypto6detail11GcmModeImplINS1_20GcmModeGenericHelperEE5ResetEPKvm = 0x874c
_ZN2nn6crypto6detail11GcmModeImplINS1_20GcmModeGenericHelperEE8Block1284ZeroEv = 0x8848
_ZN2nn6crypto6detail11GcmModeImplINS1_20GcmModeGenericHelperEE9UpdateAadEPKvm = 0x8850
_ZN2nn6crypto6detail11GcmModeImplINS1_20GcmModeGenericHelperEE10ComputeMacEb = 0x8b94
_ZN2nn6crypto6detail11GcmModeImplINS1_20GcmModeGenericHelperEE13EncryptUpdateEPvmPKvm = 0x8cdc
_ZN2nn6crypto6detail11GcmModeImplINS1_20GcmModeGenericHelperEE13DecryptUpdateEPvmPKvm = 0x8fa8
_ZN2nn6crypto6detail11GcmModeImplINS1_20GcmModeGenericHelperEE6GetMacEPvm = 0x926c
_ZN2nn6crypto6detail11GcmModeImplINS1_20GcmModeGenericHelperEE17InitializeHashKeyEv = 0x9344
_ZN2nn6crypto6detail11GcmModeImplINS1_20GcmModeGenericHelperEE7GfMultHEPNS4_5BlockE = 0x93bc
_ZN2nn6crypto6detail11GcmModeImplINS1_19GcmModeAes128HelperEEC2Ev = 0x93c0
_ZN2nn6crypto6detail11GcmModeImplINS1_19GcmModeAes128HelperEED2Ev = 0x93c8
_ZN2nn6crypto6detail11GcmModeImplINS1_19GcmModeAes128HelperEE5ResetEPKvm = 0x93d4
_ZN2nn6crypto6detail11GcmModeImplINS1_19GcmModeAes128HelperEE8Block1284ZeroEv = 0x94d0
_ZN2nn6crypto6detail11GcmModeImplINS1_19GcmModeAes128HelperEE9UpdateAadEPKvm = 0x94d8
_ZN2nn6crypto6detail11GcmModeImplINS1_19GcmModeAes128HelperEE10ComputeMacEb = 0x981c
_ZN2nn6crypto6detail11GcmModeImplINS1_19GcmModeAes128HelperEE13EncryptUpdateEPvmPKvm = 0x98b8
_ZN2nn6crypto6detail19GcmModeAes128Helper7EncryptE12__Uint8x16_tPNS1_11GcmModeImplIS2_EE = 0x9e10
_ZN2nn6crypto6detail11GcmModeImplINS1_19GcmModeAes128HelperEE13DecryptUpdateEPvmPKvm = 0x9e94
_ZN2nn6crypto6detail11GcmModeImplINS1_19GcmModeAes128HelperEE6GetMacEPvm = 0xa404
_ZN2nn6crypto6detail11GcmModeImplINS1_19GcmModeAes128HelperEE17InitializeHashKeyEv = 0xa4cc
_ZN2nn6crypto6detail11GcmModeImplINS1_19GcmModeAes128HelperEE7GfMultHEPNS4_5BlockE = 0xa530
_ZN2nn4cstd5IsNanEe = 0xa534
_ZN2nn4cstd5IsNanEd = 0xa550
_ZN2nn4cstd5IsNanEf = 0xa568
_ZN2nn4cstd5IsInfEe = 0xa580
_ZN2nn4cstd5IsInfEd = 0xa59c
_ZN2nn4cstd5IsInfEf = 0xa5b4
_ZN2nn5image6detail4jpeg19jpeg_CreateCompressEPNS2_20jpeg_compress_structEim = 0xa5cc
_ZN2nn5image6detail4jpeg21jpeg_destroy_compressEPNS2_20jpeg_compress_structE = 0xa6f8
_ZN2nn5image6detail4jpeg19jpeg_abort_compressEPNS2_20jpeg_compress_structE = 0xa6fc
_ZN2nn5image6detail4jpeg20jpeg_suppress_tablesEPNS2_20jpeg_compress_structEb = 0xa700
_ZN2nn5image6detail4jpeg20jpeg_finish_compressEPNS2_20jpeg_compress_structE = 0xa798
_ZN2nn5image6detail4jpeg17jpeg_write_markerEPNS2_20jpeg_compress_structEiPKhj = 0xa908
_ZN2nn5image6detail4jpeg19jpeg_write_m_headerEPNS2_20jpeg_compress_structEij = 0xa9b0
_ZN2nn5image6detail4jpeg17jpeg_write_m_byteEPNS2_20jpeg_compress_structEi = 0xaa30
_ZN2nn5image6detail4jpeg17jpeg_write_tablesEPNS2_20jpeg_compress_structE = 0xaa3c
_ZN2nn5image6detail4jpeg19jpeg_start_compressEPNS2_20jpeg_compress_structEb = 0xaad0
_ZN2nn5image6detail4jpeg20jpeg_write_scanlinesEPNS2_20jpeg_compress_structEPPhi = 0xab84
_ZN2nn5image6detail4jpeg19jpeg_write_raw_dataEPNS2_20jpeg_compress_structEPPPhi = 0xac98
_ZN2nn5image6detail4jpeg19jinit_arith_encoderEPNS2_20jpeg_compress_structE = 0xadc4
_ZN2nn5image6detail4jpeg23jinit_c_coef_controllerEPNS2_20jpeg_compress_structEb = 0xc7a8
_ZN2nn5image6detail4jpeg21jinit_color_converterEPNS2_20jpeg_compress_structE = 0xd28c
_ZN2nn5image6detail4jpeg17jinit_forward_dctEPNS2_20jpeg_compress_structE = 0xdacc
_ZN2nn5image6detail4jpeg18jinit_huff_encoderEPNS2_20jpeg_compress_structE = 0xde94
_ZN2nn5image6detail4jpeg21jinit_compress_masterEPNS2_20jpeg_compress_structE = 0x11824
_ZN2nn5image6detail4jpeg23jinit_c_main_controllerEPNS2_20jpeg_compress_structEb = 0x118e8
_ZN2nn5image6detail4jpeg19jinit_marker_writerEPNS2_20jpeg_compress_structE = 0x11b18
_ZN2nn5image6detail4jpeg25jpeg_calc_jpeg_dimensionsEPNS2_20jpeg_compress_structE = 0x143c0
_ZN2nn5image6detail4jpeg22jinit_c_master_controlEPNS2_20jpeg_compress_structEb = 0x143d8
_ZN2nn5image6detail4jpeg10jpeg_abortEPNS2_18jpeg_common_structE = 0x14f4c
_ZN2nn5image6detail4jpeg12jpeg_destroyEPNS2_18jpeg_common_structE = 0x14fa0
_ZN2nn5image6detail4jpeg22jpeg_alloc_quant_tableEPNS2_18jpeg_common_structE = 0x14fd8
_ZN2nn5image6detail4jpeg21jpeg_alloc_huff_tableEPNS2_18jpeg_common_structE = 0x15000
_ZN2nn5image6detail4jpeg20jpeg_add_quant_tableEPNS2_20jpeg_compress_structEiPKjib = 0x15028
_ZN2nn5image6detail4jpeg20jpeg_default_qtablesEPNS2_20jpeg_compress_structEb = 0x151cc
_ZN2nn5image6detail4jpeg23jpeg_set_linear_qualityEPNS2_20jpeg_compress_structEib = 0x1546c
_ZN2nn5image6detail4jpeg20jpeg_quality_scalingEi = 0x1570c
_ZN2nn5image6detail4jpeg16jpeg_set_qualityEPNS2_20jpeg_compress_structEib = 0x15740
_ZN2nn5image6detail4jpeg17jpeg_set_defaultsEPNS2_20jpeg_compress_structE = 0x1577c
_ZN2nn5image6detail4jpeg23jpeg_default_colorspaceEPNS2_20jpeg_compress_structE = 0x15968
_ZN2nn5image6detail4jpeg19jpeg_set_colorspaceEPNS2_20jpeg_compress_structENS2_13J_COLOR_SPACEE = 0x15ccc
_ZN2nn5image6detail4jpeg23jinit_c_prep_controllerEPNS2_20jpeg_compress_structEb = 0x160d4
_ZN2nn5image6detail4jpeg17jinit_downsamplerEPNS2_20jpeg_compress_structE = 0x169a8
_ZN2nn5image6detail4jpeg21jpeg_CreateDecompressEPNS2_22jpeg_decompress_structEim = 0x1791c
_ZN2nn5image6detail4jpeg23jpeg_destroy_decompressEPNS2_22jpeg_decompress_structE = 0x17a24
_ZN2nn5image6detail4jpeg21jpeg_abort_decompressEPNS2_22jpeg_decompress_structE = 0x17a28
_ZN2nn5image6detail4jpeg16jpeg_read_headerEPNS2_22jpeg_decompress_structEb = 0x17a2c
_ZN2nn5image6detail4jpeg18jpeg_consume_inputEPNS2_22jpeg_decompress_structE = 0x17ad0
_ZN2nn5image6detail4jpeg19jpeg_input_completeEPNS2_22jpeg_decompress_structE = 0x17d4c
_ZN2nn5image6detail4jpeg23jpeg_has_multiple_scansEPNS2_22jpeg_decompress_structE = 0x17da8
_ZN2nn5image6detail4jpeg22jpeg_finish_decompressEPNS2_22jpeg_decompress_structE = 0x17e04
_ZN2nn5image6detail4jpeg21jpeg_start_decompressEPNS2_22jpeg_decompress_structE = 0x17ef4
_ZN2nn5image6detail4jpeg19jpeg_read_scanlinesEPNS2_22jpeg_decompress_structEPPhi = 0x18088
_ZN2nn5image6detail4jpeg18jpeg_read_raw_dataEPNS2_22jpeg_decompress_structEPPPhi = 0x18178
_ZN2nn5image6detail4jpeg17jpeg_start_outputEPNS2_22jpeg_decompress_structEi = 0x18290
_ZN2nn5image6detail4jpeg18jpeg_finish_outputEPNS2_22jpeg_decompress_structE = 0x18384
_ZN2nn5image6detail4jpeg19jinit_arith_decoderEPNS2_22jpeg_decompress_structE = 0x18440
_ZN2nn5image6detail4jpeg12jpeg_mem_srcEPNS2_22jpeg_decompress_structEPhm = 0x19668
_ZN2nn5image6detail4jpeg23jinit_d_coef_controllerEPNS2_22jpeg_decompress_structEb = 0x197e8
_ZN2nn5image6detail4jpeg23jinit_color_deconverterEPNS2_22jpeg_decompress_structE = 0x1a098
_ZN2nn5image6detail4jpeg17jinit_inverse_dctEPNS2_22jpeg_decompress_structE = 0x1a7f0
_ZN2nn5image6detail4jpeg18jinit_huff_decoderEPNS2_22jpeg_decompress_structE = 0x1adec
_ZN2nn5image6detail4jpeg27jpeg_core_output_dimensionsEPNS2_22jpeg_decompress_structE = 0x1e81c
_ZN2nn5image6detail4jpeg22jinit_input_controllerEPNS2_22jpeg_decompress_structE = 0x1eb44
_ZN2nn5image6detail4jpeg23jinit_d_main_controllerEPNS2_22jpeg_decompress_structEb = 0x1f464
_ZN2nn5image6detail4jpeg22jpeg_resync_to_restartEPNS2_22jpeg_decompress_structEi = 0x1fd0c
_ZN2nn5image6detail4jpeg19jinit_marker_readerEPNS2_22jpeg_decompress_structE = 0x1ffdc
_ZN2nn5image6detail4jpeg17jpeg_save_markersEPNS2_22jpeg_decompress_structEij = 0x214f8
_ZN2nn5image6detail4jpeg25jpeg_set_marker_processorEPNS2_22jpeg_decompress_structEiPFbS4_E = 0x21924
_ZN2nn5image6detail4jpeg27jpeg_calc_output_dimensionsEPNS2_22jpeg_decompress_structE = 0x21f98
_ZN2nn5image6detail4jpeg17jpeg_new_colormapEPNS2_22jpeg_decompress_structE = 0x222a0
_ZN2nn5image6detail4jpeg23jinit_master_decompressEPNS2_22jpeg_decompress_structE = 0x22348
_ZN2nn5image6detail4jpeg22jinit_merged_upsamplerEPNS2_22jpeg_decompress_structE = 0x228c0
_ZN2nn5image6detail4jpeg23jinit_d_post_controllerEPNS2_22jpeg_decompress_structEb = 0x22ed0
_ZN2nn5image6detail4jpeg15jinit_upsamplerEPNS2_22jpeg_decompress_structE = 0x230a4
_ZN2nn5image6detail4jpeg14jpeg_std_errorEPNS2_14jpeg_error_mgrE = 0x23830
_ZN2nn5image6detail4jpeg15jpeg_fdct_ifastEPiPPhi = 0x23934
_ZN2nn5image6detail4jpeg15jpeg_fdct_islowEPiPPhi = 0x23b20
_ZN2nn5image6detail4jpeg15jpeg_idct_ifastEPNS2_22jpeg_decompress_structEPNS2_19jpeg_component_infoEPsPPhi = 0x23d98
_ZN2nn5image6detail4jpeg15jpeg_idct_islowEPNS2_22jpeg_decompress_structEPNS2_19jpeg_component_infoEPsPPhi = 0x24118
_ZN2nn5image6detail4jpeg13jpeg_idct_7x7EPNS2_22jpeg_decompress_structEPNS2_19jpeg_component_infoEPsPPhi = 0x24508
_ZN2nn5image6detail4jpeg13jpeg_idct_6x6EPNS2_22jpeg_decompress_structEPNS2_19jpeg_component_infoEPsPPhi = 0x2481c
_ZN2nn5image6detail4jpeg13jpeg_idct_5x5EPNS2_22jpeg_decompress_structEPNS2_19jpeg_component_infoEPsPPhi = 0x24a14
_ZN2nn5image6detail4jpeg13jpeg_idct_4x4EPNS2_22jpeg_decompress_structEPNS2_19jpeg_component_infoEPsPPhi = 0x24bc8
_ZN2nn5image6detail4jpeg13jpeg_idct_3x3EPNS2_22jpeg_decompress_structEPNS2_19jpeg_component_infoEPsPPhi = 0x24fac
_ZN2nn5image6detail4jpeg13jpeg_idct_2x2EPNS2_22jpeg_decompress_structEPNS2_19jpeg_component_infoEPsPPhi = 0x251c8
_ZN2nn5image6detail4jpeg13jpeg_idct_1x1EPNS2_22jpeg_decompress_structEPNS2_19jpeg_component_infoEPsPPhi = 0x25268
_ZN2nn5image6detail4jpeg13jpeg_idct_9x9EPNS2_22jpeg_decompress_structEPNS2_19jpeg_component_infoEPsPPhi = 0x25298
_ZN2nn5image6detail4jpeg15jpeg_idct_10x10EPNS2_22jpeg_decompress_structEPNS2_19jpeg_component_infoEPsPPhi = 0x255d4
_ZN2nn5image6detail4jpeg15jpeg_idct_11x11EPNS2_22jpeg_decompress_structEPNS2_19jpeg_component_infoEPsPPhi = 0x25948
_ZN2nn5image6detail4jpeg15jpeg_idct_12x12EPNS2_22jpeg_decompress_structEPNS2_19jpeg_component_infoEPsPPhi = 0x25dcc
_ZN2nn5image6detail4jpeg15jpeg_idct_13x13EPNS2_22jpeg_decompress_structEPNS2_19jpeg_component_infoEPsPPhi = 0x261e8
_ZN2nn5image6detail4jpeg15jpeg_idct_14x14EPNS2_22jpeg_decompress_structEPNS2_19jpeg_component_infoEPsPPhi = 0x2676c
_ZN2nn5image6detail4jpeg15jpeg_idct_15x15EPNS2_22jpeg_decompress_structEPNS2_19jpeg_component_infoEPsPPhi = 0x26c3c
_ZN2nn5image6detail4jpeg15jpeg_idct_16x16EPNS2_22jpeg_decompress_structEPNS2_19jpeg_component_infoEPsPPhi = 0x27178
_ZN2nn5image6detail4jpeg14jpeg_idct_16x8EPNS2_22jpeg_decompress_structEPNS2_19jpeg_component_infoEPsPPhi = 0x277a0
_ZN2nn5image6detail4jpeg14jpeg_idct_14x7EPNS2_22jpeg_decompress_structEPNS2_19jpeg_component_infoEPsPPhi = 0x27ca4
_ZN2nn5image6detail4jpeg14jpeg_idct_12x6EPNS2_22jpeg_decompress_structEPNS2_19jpeg_component_infoEPsPPhi = 0x28080
_ZN2nn5image6detail4jpeg14jpeg_idct_10x5EPNS2_22jpeg_decompress_structEPNS2_19jpeg_component_infoEPsPPhi = 0x283a0
_ZN2nn5image6detail4jpeg13jpeg_idct_8x4EPNS2_22jpeg_decompress_structEPNS2_19jpeg_component_infoEPsPPhi = 0x28654
_ZN2nn5image6detail4jpeg13jpeg_idct_6x3EPNS2_22jpeg_decompress_structEPNS2_19jpeg_component_infoEPsPPhi = 0x2889c
_ZN2nn5image6detail4jpeg13jpeg_idct_4x2EPNS2_22jpeg_decompress_structEPNS2_19jpeg_component_infoEPsPPhi = 0x28bc0
_ZN2nn5image6detail4jpeg13jpeg_idct_2x1EPNS2_22jpeg_decompress_structEPNS2_19jpeg_component_infoEPsPPhi = 0x28d60
_ZN2nn5image6detail4jpeg14jpeg_idct_8x16EPNS2_22jpeg_decompress_structEPNS2_19jpeg_component_infoEPsPPhi = 0x28db0
_ZN2nn5image6detail4jpeg14jpeg_idct_7x14EPNS2_22jpeg_decompress_structEPNS2_19jpeg_component_infoEPsPPhi = 0x29224
_ZN2nn5image6detail4jpeg14jpeg_idct_6x12EPNS2_22jpeg_decompress_structEPNS2_19jpeg_component_infoEPsPPhi = 0x29600
_ZN2nn5image6detail4jpeg14jpeg_idct_5x10EPNS2_22jpeg_decompress_structEPNS2_19jpeg_component_infoEPsPPhi = 0x29930
_ZN2nn5image6detail4jpeg13jpeg_idct_4x8EPNS2_22jpeg_decompress_structEPNS2_19jpeg_component_infoEPsPPhi = 0x29bf8
_ZN2nn5image6detail4jpeg13jpeg_idct_3x6EPNS2_22jpeg_decompress_structEPNS2_19jpeg_component_infoEPsPPhi = 0x29ed8
_ZN2nn5image6detail4jpeg13jpeg_idct_2x4EPNS2_22jpeg_decompress_structEPNS2_19jpeg_component_infoEPsPPhi = 0x2a1e0
_ZN2nn5image6detail4jpeg13jpeg_idct_1x2EPNS2_22jpeg_decompress_structEPNS2_19jpeg_component_infoEPsPPhi = 0x2a398
_ZN2nn5image6detail4jpeg14jpeg_get_smallEPNS2_18jpeg_common_structEm = 0x2a3f0
_ZN2nn5image6detail4jpeg15jpeg_free_smallEPNS2_18jpeg_common_structEPvm = 0x2a420
_ZN2nn5image6detail4jpeg14jpeg_get_largeEPNS2_18jpeg_common_structEm = 0x2a424
_ZN2nn5image6detail4jpeg15jpeg_free_largeEPNS2_18jpeg_common_structEPvm = 0x2a454
_ZN2nn5image6detail4jpeg18jpeg_mem_availableEPNS2_18jpeg_common_structElll = 0x2a458
_ZN2nn5image6detail4jpeg23jpeg_open_backing_storeEPNS2_18jpeg_common_structEPNS2_20backing_store_structEl = 0x2a460
_ZN2nn5image6detail4jpeg13jpeg_mem_initEPNS2_18jpeg_common_structE = 0x2a478
_ZN2nn5image6detail4jpeg13jpeg_mem_termEPNS2_18jpeg_common_structE = 0x2a488
_ZN2nn5image6detail4jpeg13jdiv_round_upEll = 0x2a494
_ZN2nn5image6detail4jpeg9jround_upEll = 0x2a4a4
_ZN2nn5image6detail4jpeg17jcopy_sample_rowsEPPhiS4_iii = 0x2a4b8
_ZN2nn5image6detail4jpeg15jcopy_block_rowEPA64_sS4_i = 0x2a50c
_ZN2nn5image6detail4jpeg9jzero_farEPvm = 0x2a520
_ZN2nn5image6detail4jpeg13jpeg_mem_destEPNS2_20jpeg_compress_structEPPhPm = 0x2a530
_ZN2nn5image6detail4jpeg16jinit_memory_mgrEPNS2_18jpeg_common_structE = 0x2a680
_ZN2nn5image6detail18HandleLibjpegErrorEPNS1_4jpeg18jpeg_common_structE = 0x2ba54
_ZN2nn5image6detail14ReadTiffHeaderEPNS1_8BinaryIoEPtPKht = 0x2bae8
_ZN2nn5image6detail13ReadIfdHeaderEPNS1_9IfdHeaderEtRKNS1_10ExifBinaryE = 0x2bbfc
_ZN2nn5image6detail13SearchIfdTagsEPNS1_6IfdTagEtRKNS1_9IfdHeaderERKNS1_10ExifBinaryE = 0x2bcd4
_ZN2nn5image6detail20InitializeTiffHeaderEPNS1_10TiffHeaderENS1_6EndianE = 0x2bf90
_ZN2nn5image6detail15WriteTiffHeaderEPhtRKNS1_10TiffHeaderE = 0x2c024
_ZN2nn5image6detail19InitializeIfdHeaderEPNS1_9IfdHeaderEPKNS1_12ValuedIfdTagEtt = 0x2c06c
_ZN2nn5image6detail8WriteIfdEPhtPKNS1_12ValuedIfdTagERKNS1_9IfdHeaderERKNS1_8BinaryIoE = 0x2c144
_ZN2nn5image6detail8CheckSoiEPKhm = 0x2c6bc
_ZN2nn5image6detail14ReadJpegHeaderEPNS1_8JpegInfoEPKhmj = 0x2c6dc
_ZN2nn5image6detail13SetJpegHeaderEPNS1_8JpegInfoEttNS0_17JpegSamplingRatioE = 0x2d6d0
_ZN2nn5image6detail11GetExifInfoEPPKvPtPKhm = 0x2d78c
_ZN2nn5image6detail15WriteExifHeaderEPvm = 0x2d86c
_ZN2nn5image6detail17ExtractExifRegionEPPKvPmS3_m = 0x2da9c
_ZN2nn5image6detail17ExtractJpegHeaderEPNS1_10JpegHeaderEPKvmi = 0x2db18
_ZN2nn5image6detail31GetBufferSizeForJpegCompressionEPmRKNS0_9DimensionENS0_17JpegSamplingRatioE = 0x2e2c8
_ZN2nn5image11JpegDecoderC2Ev = 0x2e59c
_ZN2nn5image11JpegDecoderD2Ev = 0x2e5bc
_ZN2nn5image11JpegDecoderD0Ev = 0x2e5c0
_ZN2nn5image11JpegDecoder12SetImageDataEPKvm = 0x2e5c4
_ZN2nn5image11JpegDecoder24SetResolutionDenominatorEi = 0x2e5d4
_ZN2nn5image11JpegDecoder14SetPixelFormatENS0_11PixelFormatE = 0x2e5ec
_ZN2nn5image11JpegDecoder7AnalyzeEv = 0x2e628
_ZNK2nn5image11JpegDecoder20GetAnalyzedDimensionEv = 0x2e704
_ZNK2nn5image11JpegDecoder25GetAnalyzedWorkBufferSizeEv = 0x2e70c
_ZNK2nn5image11JpegDecoder19GetAnalyzedExifDataEPm = 0x2e714
_ZN2nn5image11JpegDecoder6DecodeEPvmiS2_m = 0x2e734
_ZN2nn5image11JpegDecoder30DecodeWithPreconfiguredDecoderEPvmiPKvmRKS1_S2_m = 0x2ebe8
_ZN2nn5image11JpegDecoder11GetExifDataEPPKvPmS3_m = 0x2ec4c
_ZN2nn5image11JpegEncoderC2Ev = 0x2ec50
_ZN2nn5image11JpegEncoderD2Ev = 0x2ec74
_ZN2nn5image11JpegEncoderD0Ev = 0x2ec78
_ZN2nn5image11JpegEncoder12SetPixelDataEPKvNS0_11PixelFormatERKNS0_9DimensionEi = 0x2ec7c
_ZN2nn5image11JpegEncoder10SetQualityEi = 0x2ecc0
_ZN2nn5image11JpegEncoder16SetSamplingRatioENS0_17JpegSamplingRatioE = 0x2ecd8
_ZN2nn5image11JpegEncoder7AnalyzeEv = 0x2ecf0
_ZNK2nn5image11JpegEncoder25GetAnalyzedWorkBufferSizeEv = 0x2edac
_ZN2nn5image11JpegEncoder6EncodeEPmPvmS3_mPNS0_11ExifBuilderE = 0x2edb4
_ZN2nn5image11ExifBuilder17GetWorkBufferSizeEv = 0x2f5b8
_ZN2nn5image11ExifBuilderC2EPvm = 0x2f5c0
_ZN2nn5image11ExifBuilderD2Ev = 0x2f608
_ZN2nn5image11ExifBuilderD0Ev = 0x2f60c
_ZN2nn5image11ExifBuilder14SetOrientationENS0_15ExifOrientationE = 0x2f610
_ZN2nn5image11ExifBuilder11SetSoftwareEPKcm = 0x2f624
_ZN2nn5image11ExifBuilder11SetDateTimeEPKcm = 0x2f644
_ZN2nn5image11ExifBuilder12SetMakerNoteEPKvm = 0x2f658
_ZN2nn5image11ExifBuilder11SetUniqueIdEPKcm = 0x2f678
_ZN2nn5image11ExifBuilder12SetThumbnailEPKvm = 0x2f68c
_ZN2nn5image11ExifBuilder7AnalyzeEv = 0x2f6ac
_ZNK2nn5image11ExifBuilder21GetAnalyzedOutputSizeEv = 0x2fb70
_ZN2nn5image11ExifBuilder5BuildEPvmRKNS0_9DimensionE = 0x2fb78
_ZN2nn5image13ExifExtractor17GetWorkBufferSizeEv = 0x2fc68
_ZN2nn5image13ExifExtractorC2EPvm = 0x2fc70
_ZN2nn5image13ExifExtractorD2Ev = 0x2fc8c
_ZN2nn5image13ExifExtractorD0Ev = 0x2fc90
_ZN2nn5image13ExifExtractor11SetExifDataEPKvm = 0x2fc94
_ZN2nn5image13ExifExtractor7AnalyzeEv = 0x2fca8
_ZNK2nn5image13ExifExtractor12ExtractMakerEPm = 0x2ff54
_ZNK2nn5image13ExifExtractor12ExtractModelEPm = 0x2ffc0
_ZNK2nn5image13ExifExtractor18ExtractOrientationEPNS0_15ExifOrientationE = 0x3002c
_ZNK2nn5image13ExifExtractor15ExtractSoftwareEPm = 0x30090
_ZNK2nn5image13ExifExtractor15ExtractDateTimeEPm = 0x300fc
_ZNK2nn5image13ExifExtractor16ExtractMakerNoteEPm = 0x3026c
_ZNK2nn5image13ExifExtractor25ExtractEffectiveDimensionEPNS0_9DimensionE = 0x30294
_ZNK2nn5image13ExifExtractor15ExtractUniqueIdEPm = 0x30374
_ZNK2nn5image13ExifExtractor16ExtractThumbnailEPm = 0x303f4
nnutilZlib_adler32 = 0x304cc
nnutilZlib_adler32_combine = 0x3088c
nnutilZlib_adler32_combine64 = 0x30954
nnutilZlib_get_crc_table = 0x30a1c
nnutilZlib_crc32 = 0x30a28
nnutilZlib_crc32_combine = 0x30cf4
nnutilZlib_crc32_combine64 = 0x30fcc
nnutilZlib_deflateInit_ = 0x30fd0
nnutilZlib_deflateInit2_ = 0x30ff4
nnutilZlib_deflateEnd = 0x312f8
nnutilZlib_deflateReset = 0x313dc
nnutilZlib_deflateSetDictionary = 0x31518
nnutilZlib_deflateResetKeep = 0x31aa8
nnutilZlib_deflateSetHeader = 0x31b68
nnutilZlib_deflatePending = 0x31ba4
nnutilZlib_deflatePrime = 0x31bf0
nnutilZlib_deflateParams = 0x31ca4
nnutilZlib_deflate = 0x31d9c
nnutilZlib_deflateTune = 0x332c8
nnutilZlib_deflateBound = 0x332f4
nnutilZlib_deflateCopy = 0x333fc
nnutilZlib_inflateBackInit_ = 0x34858
nnutilZlib_inflateBack = 0x34928
nnutilZlib_inflateBackEnd = 0x358d0
nnutilZlib_inflate_fast = 0x35918
nnutilZlib_inflateResetKeep = 0x360ec
nnutilZlib_inflateReset = 0x3615c
nnutilZlib_inflateReset2 = 0x361e4
nnutilZlib_inflateInit2_ = 0x362e4
nnutilZlib_inflateInit_ = 0x363b4
nnutilZlib_inflatePrime = 0x36508
nnutilZlib_inflate = 0x36590
nnutilZlib_inflateEnd = 0x381cc
nnutilZlib_inflateGetDictionary = 0x38230
nnutilZlib_inflateSetDictionary = 0x382bc
nnutilZlib_inflateGetHeader = 0x38370
nnutilZlib_inflateSync = 0x383ac
nnutilZlib_inflateSyncPoint = 0x38678
nnutilZlib_inflateCopy = 0x386b8
nnutilZlib_inflateUndermine = 0x38804
nnutilZlib_inflateMark = 0x38830
nnutilZlib_inflate_table = 0x38894
nnutilZlib__tr_init = 0x390a0
nnutilZlib__tr_stored_block = 0x391dc
nnutilZlib__tr_flush_bits = 0x39388
nnutilZlib__tr_align = 0x39418
nnutilZlib__tr_flush_block = 0x3955c
nnutilZlib__tr_tally = 0x3aa1c
nnutilZlib_zlibVersion = 0x3af6c
nnutilZlib_zlibCompileFlags = 0x3af78
nnutilZlib_zError = 0x3af80
nnutilZlib_zcalloc = 0x3af98
nnutilZlib_zcfree = 0x3afa0
Libz_SigloMiddlewareInfo = 0x3afa8
_ZN2nn4util6Base6414ToBase64StringEPcmPKvmNS1_4ModeE = 0x3afb4
_ZN2nn4util6Base6416FromBase64StringEPmPvmPKcNS1_4ModeE = 0x3b2e4
_ZN2nn4util6Base6416FromBase64StringEPmPvmPKcmNS1_4ModeE = 0x3b2f4
_ZNK2nn4util16BinaryFileHeader7IsValidEliii = 0x3b580
_ZNK2nn4util16BinaryFileHeader16IsSignatureValidEl = 0x3b5e0
_ZNK2nn4util16BinaryFileHeader14IsVersionValidEiii = 0x3b5f0
_ZNK2nn4util16BinaryFileHeader13IsEndianValidEv = 0x3b614
_ZNK2nn4util16BinaryFileHeader16IsAlignmentValidEv = 0x3b624
_ZNK2nn4util16BinaryFileHeader15IsEndianReverseEv = 0x3b640
_ZNK2nn4util16BinaryFileHeader12GetAlignmentEv = 0x3b650
_ZNK2nn4util16BinaryFileHeader11IsRelocatedEv = 0x3b660
_ZN2nn4util16BinaryFileHeader12SetRelocatedEb = 0x3b66c
_ZN2nn4util16BinaryFileHeader16SetByteOrderMarkENS0_13ByteOrderMarkE = 0x3b67c
_ZN2nn4util16BinaryFileHeader14SetAddressSizeEv = 0x3b684
_ZNK2nn4util16BinaryFileHeader11GetFileSizeEv = 0x3b690
_ZN2nn4util16BinaryFileHeader11SetFileSizeEm = 0x3b698
_ZN2nn4util16BinaryFileHeader12SetAlignmentEm = 0x3b6a0
_ZNK2nn4util16BinaryFileHeader11GetFileNameEv = 0x3b6ec
_ZN2nn4util16BinaryFileHeader11SetFileNameERKNS0_17basic_string_viewIcNSt3__111char_traitsIcEEEE = 0x3b730
_ZN2nn4util16BinaryFileHeader18GetRelocationTableEv = 0x3b750
_ZN2nn4util16BinaryFileHeader18SetRelocationTableEPNS0_15RelocationTableE = 0x3b764
_ZN2nn4util16BinaryFileHeader13GetFirstBlockEv = 0x3b77c
_ZNK2nn4util16BinaryFileHeader13GetFirstBlockEv = 0x3b790
_ZN2nn4util16BinaryFileHeader14FindFirstBlockEi = 0x3b7a4
_ZN2nn4util17BinaryBlockHeader13FindNextBlockEi = 0x3b7d0
_ZNK2nn4util16BinaryFileHeader14FindFirstBlockEi = 0x3b7f4
_ZNK2nn4util17BinaryBlockHeader13FindNextBlockEi = 0x3b820
_ZN2nn4util16BinaryFileHeader13SetFirstBlockEPNS0_17BinaryBlockHeaderE = 0x3b844
_ZN2nn4util17BinaryBlockHeader12GetNextBlockEv = 0x3b858
_ZNK2nn4util17BinaryBlockHeader12GetNextBlockEv = 0x3b86c
_ZNK2nn4util17BinaryBlockHeader12GetBlockSizeEv = 0x3b880
_ZN2nn4util17BinaryBlockHeader12SetNextBlockEPS1_ = 0x3b888
_ZN2nn4util17BinaryBlockHeader12SetBlockSizeEm = 0x3b89c
_ZN2nn4util15RelocationTable7Section6SetPtrEPv = 0x3b8a4
_ZNK2nn4util15RelocationTable7Section6GetPtrEv = 0x3b8ac
_ZNK2nn4util15RelocationTable7Section12GetPtrInFileEPv = 0x3b8b4
_ZNK2nn4util15RelocationTable7Section10GetBasePtrEPv = 0x3b8c0
_ZNK2nn4util15RelocationTable7Section7GetSizeEv = 0x3b8d8
_ZN2nn4util15RelocationTable8RelocateEv = 0x3b8e0
_ZN2nn4util15RelocationTable10UnrelocateEv = 0x3ba48
_ZN2nn4util15RelocationTable10GetSectionEi = 0x3bbb4
_ZNK2nn4util15RelocationTable10GetSectionEi = 0x3bbc4
_ZN2nn4util15RelocationTable12SetSignatureEv = 0x3bbd4
_ZN2nn4util15RelocationTable13CalculateSizeEii = 0x3bbe4
_ZNK2nn4util10StringPool14GetStringCountEv = 0x3bbfc
_ZN2nn4util10StringPool14SetStringCountEi = 0x3bc04
_ZN2nn4util10StringPool12SetSignatureEv = 0x3bc0c
_ZN2nn4util8BitArray3setEv = 0x3bc1c
_ZN2nn4util8BitArray5resetEv = 0x3bca4
_ZN2nn4util8BitArray4flipEv = 0x3bd04
_ZNK2nn4util8BitArray5countEv = 0x3bd78
_ZNK2nn4util8BitArray4noneEv = 0x3bdf0
_ZNK2nn4util8BitArray3allEv = 0x3be3c
_ZN2nn4util8BitArray3AndEPS1_RKS1_S4_ = 0x3beb8
_ZN2nn4util8BitArray2OrEPS1_RKS1_S4_ = 0x3bf04
_ZN2nn4util8BitArray3XorEPS1_RKS1_S4_ = 0x3bf50
_ZN2nn4util8BitArray3NotEPS1_RKS1_ = 0x3bff0
_ZN2nn4util8BitArray10RightShiftEPS1_RKS1_i = 0x3c078
_ZN2nn4util8BitArray9LeftShiftEPS1_RKS1_i = 0x3c24c
_ZNK2nn4util8BitArrayeqERKS1_ = 0x3c394
_ZN2nn4util12CompressZlibEPmPvmPKvmS2_m = 0x3c3f0
_ZN2nn4util12CompressZlibEPmPvmPKvmS2_mii = 0x3c510
_ZN2nn4util12CompressGzipEPmPvmPKvmS2_m = 0x3c540
_ZN2nn4util12CompressGzipEPmPvmPKvmS2_mii = 0x3c574
_ZN2nn4util15CompressDeflateEPmPvmPKvmS2_m = 0x3c5a4
_ZN2nn4util15CompressDeflateEPmPvmPKvmS2_mii = 0x3c5d8
_ZN2nn4util6detail13ZlibAllocator8AllocateEPvjj = 0x3c608
_ZN2nn4util6detail13ZlibAllocator4FreeEPvS3_ = 0x3c630
_ZN2nn4util28GetCountryFromIso31661Alpha2EPNS0_7CountryEPKcm = 0x3c634
_ZN2nn4util23GetGzipDecompressedSizeEPKvm = 0x3c6d4
_ZN2nn4util14DecompressZlibEPvmPKvmS1_m = 0x3c6e0
_ZN2nn4util14DecompressGzipEPvmPKvmS1_m = 0x3c7e8
_ZN2nn4util17DecompressDeflateEPvmPKvmS1_m = 0x3c7f0
_ZN2nn4util16IntrusiveDicNode5EraseEPPS1_Pi = 0x3c7f8
_ZN2nn4util16IntrusiveDicNode13ExtractRefBitERKNS0_17basic_string_viewIcNSt3__111char_traitsIcEEEEi = 0x3c8a4
_ZN2nn4util16IntrusiveDicNode11InsertChildEPPS1_PiRKNS0_17basic_string_viewIcNSt3__111char_traitsIcEEEE = 0x3c8dc
_ZN2nn4util16IntrusiveDicNode10FindRefBitEPKS1_ = 0x3c9b0
_ZNK2nn4util6detail16IntrusiveDicImpl8FindImplERKNS0_17basic_string_viewIcNSt3__111char_traitsIcEEEE = 0x3ca6c
_ZN2nn4util6detail16IntrusiveDicImpl10InsertImplEPNS0_16IntrusiveDicNodeE = 0x3cad0
_ZN2nn4util6detail16IntrusiveDicImpl9EraseImplEPNS0_16IntrusiveDicNodeE = 0x3cc08
_ZNK2nn4util6detail16IntrusiveDicImpl8FindIterEv = 0x3cd6c
_ZN2nn4util6detail16IntrusiveDicImpl8MoveIterEPKNS0_16IntrusiveDicNodeEi = 0x3cda4
_ZN2nn4util6detail16IntrusiveDicImpl10FindParentEPKNS0_16IntrusiveDicNodeE = 0x3ce64
_ZN2nn4util6ResDic5BuildEv = 0x3cec4
_ZN2nn4util6ResDic10FindRefBitERKNS0_17basic_string_viewIcNSt3__111char_traitsIcEEEES8_ = 0x3d1f8
_ZN2nn4util10SwapEndianEPNS0_9ResEndianEPNS0_6ResDicE = 0x3d2b0
_ZN2nn4util10SwapEndianEPNS0_9ResEndianEPNS0_10StringPoolE = 0x3d354
_ZN2nn4util40InitializeStreamingDecompressZlibContextEPNS0_30StreamingDecompressZlibContextE = 0x3d49c
_ZN2nn4util40InitializeStreamingDecompressGzipContextEPNS0_30StreamingDecompressZlibContextE = 0x3d520
_ZN2nn4util43InitializeStreamingDecompressDeflateContextEPNS0_30StreamingDecompressZlibContextE = 0x3d5a4
_ZN2nn4util23StreamingDecompressZlibEPmS1_PvmPKvmPNS0_30StreamingDecompressZlibContextE = 0x3d628
_ZN2nn4util23StreamingDecompressGzipEPmS1_PvmPKvmPNS0_30StreamingDecompressZlibContextE = 0x3d75c
_ZN2nn4util26StreamingDecompressDeflateEPmS1_PvmPKvmPNS0_30StreamingDecompressZlibContextE = 0x3d760
_ZN2nn4util11ReferSymbolEPKv = 0x3d764
_ZN2nn4util10SdkVersionEv = 0x3d768
_ZN2nn4util6TinyMt10InitializeEj = 0x3d774
_ZN2nn4util6TinyMt22FinalizeInitializationEv = 0x3d810
_ZN2nn4util6TinyMt10InitializeEPKji = 0x3d9fc
_ZN2nn4util6TinyMt24GenerateInitialValuePlusEPjij = 0x3dc40
_ZN2nn4util6TinyMt23GenerateInitialValueXorEPji = 0x3dce0
_ZN2nn4util6TinyMt9SaveStateEPNS1_5StateE = 0x3dd7c
_ZN2nn4util6TinyMt12RestoreStateEPKNS1_5StateE = 0x3dd90
_ZN2nn4util6TinyMt17GenerateRandomU32Ev = 0x3dda4
_ZN2nn4util6TinyMt19GenerateRandomBytesEPvm = 0x3de14
_ZN2nn4util16VerifyUtf8StringEPKcm = 0x3dfb4
_ZN2nn4util29GetCodePointCountOfUtf8StringEPKcm = 0x3dfd0
_ZN2nn4util14CopyUtf8StringEPcmPKcmi = 0x3e148
_ZN2nn4util13VFormatStringEPFvmPKciEmS2_St9__va_list = 0x3e2a4
_ZN2nn4util12FormatStringEPFvmPKciEmS2_z = 0x3ef34
_ZN2nn4util9VSNPrintfEPcmPKcSt9__va_list = 0x3f004
_ZN2nn4util8SNPrintfEPcmPKcz = 0x3f0e4
_ZN2nn4util14TVFormatStringEPFvmPKciEmS2_St9__va_list = 0x3f1d8
_ZN2nn4util13TFormatStringEPFvmPKciEmS2_z = 0x3f234
_ZN2nn4util10TVSNPrintfEPcmPKcSt9__va_list = 0x3f304
_ZN2nn4util9TSNPrintfEPcmPKcz = 0x3f388
_ZN2nn4util30ConvertStringUtf8ToUtf16NativeEPtiPKci = 0x4001c
_ZN2nn4util30ConvertStringUtf8ToUtf16NativeEPtiPKc = 0x40268
_ZN2nn4util30ConvertStringUtf16NativeToUtf8EPciPKti = 0x402cc
_ZN2nn4util30ConvertStringUtf16NativeToUtf8EPciPKt = 0x404f0
_ZN2nn4util43GetLengthOfConvertedStringUtf8ToUtf16NativeEPiPKci = 0x40594
_ZN2nn4util43GetLengthOfConvertedStringUtf16NativeToUtf8EPiPKti = 0x40638
_ZN2nn4util24ConvertStringUtf8ToUtf32EPjiPKc = 0x406dc
_ZN2nn4util24ConvertStringUtf32ToUtf8EPciPKj = 0x408c8
_ZN2nn4util37GetLengthOfConvertedStringUtf8ToUtf32EPiPKc = 0x40a24
_ZN2nn4util37GetLengthOfConvertedStringUtf32ToUtf8EPiPKj = 0x40bb0
_ZN2nn4util33ConvertCharacterUtf8ToUtf16NativeEPtPKc = 0x40c34
_ZN2nn4util33ConvertCharacterUtf16NativeToUtf8EPcPKt = 0x40d10
_ZN2nn4util27ConvertCharacterUtf8ToUtf32EPjPKc = 0x40df4
_ZN2nn4util27ConvertCharacterUtf32ToUtf8EPcj = 0x40f2c
_ZN2nn4util30PickOutCharacterFromUtf8StringEPcPPKc = 0x41000
_ZN2nn4util6detail37ConvertToExponentStyleStringWithPointEPcmdi = 0x411c0
_ZN2nn4diag6detail11nnText_diagEPKc = 0x411d4
_ZN2nn4diag6detail9nnText_osEPKc = 0x411ec
_ZN2nn4diag6detail16nnText_g3dviewerEPKc = 0x41204
_ZN2nn4diag6detail11nnText_initEPKc = 0x4121c
_ZN2nn4diag6detail10nnText_ldnEPKc = 0x41234
_ZN2nn4diag6detail10nnText_spyEPKc = 0x4124c
_ZN2nn4edid17VisitAudioFormatsEPKNS0_4EdidEPFbPKNS0_15AudioFormatInfoEPvES7_ = 0x41264
_ZN2nn4edid24GetAudioFormatBitRateMaxEPiPKNS0_15AudioFormatInfoE = 0x41290
_ZN2nn4edid22GetAudioFormatBitDepthEPiPKNS0_15AudioFormatInfoE = 0x41298
_ZN2nn4edid20GetSpeakerAllocationEPKNS0_4EdidE = 0x412a0
_ZN2nn4edid16IsAudioSupportedEPKNS0_4EdidE = 0x412a8
_ZN2nn4edid14GetDisplayInfoEPNS0_11DisplayInfoEPKNS0_4EdidE = 0x412b0
_ZN2nn4edid27GetDisplayWeekOfManufactureEPiPKNS0_11DisplayInfoE = 0x413f8
_ZN2nn4edid27GetDisplayYearOfManufactureEPiPKNS0_11DisplayInfoE = 0x41420
_ZN2nn4edid24GetSourcePhysicalAddressEPtPKNS0_4EdidE = 0x41448
_ZN2nn4edid17VisitDisplayModesEPKNS0_4EdidEPFbPKNS0_15DisplayModeInfoEPKNS0_17DisplayTimingInfoEPKNS0_13ImageSizeInfoEPvESD_ = 0x4149c
_ZN2nn4edid24GetDisplayModePreferenceEPNS0_15DisplayModeInfoEPNS0_17DisplayTimingInfoEPNS0_13ImageSizeInfoEPKNS0_4EdidE = 0x417e4
_ZN2nn4edid8OpenEdidEPNS0_4EdidEPKvm = 0x417e8
_ZN2nn4edid9CloseEdidEPNS0_4EdidE = 0x418e4
_ZN2nn4edid9PrintEdidEPKNS0_4EdidE = 0x418ec
_ZN2nn4edid6detail10InitializeEPNS0_11DisplayInfoE = 0x418f0
_ZN2nn4edid6detail7ToAsciiEh = 0x4191c
_ZN2nn4edid6detail19GetManufacturerCodeEPNS0_11DisplayInfoEt = 0x41934
_ZN2nn4edid6detail17GetVideoInterfaceEh = 0x419a8
_ZN2nn4edid6detail14GetSignalLevelEh = 0x419d8
_ZN2nn4edid6detail13GetVideoSetupEh = 0x419f4
_ZN2nn4edid6detail12GetSyncTypesEh = 0x41a14
_ZN2nn4edid6detail18HasVsyncSerrationsEh = 0x41a50
_ZN2nn4edid6detail13GetColorDepthEh = 0x41a64
_ZN2nn4edid6detail15GetColorSupportENS0_14VideoInterfaceEh = 0x41a80
_ZN2nn4edid6detail23DisplayDataBlockVisitorEPKhmNS0_6cea8618BlockTagEPv = 0x41abc
_ZN2nn4edid6detail21ExtensionBlockVisitorEPKhmPv = 0x41b54
_ZN2nn4edid6detail22IsStandbyModeSupportedEh = 0x41b7c
_ZN2nn4edid6detail22IsSuspendModeSupportedEh = 0x41b8c
_ZN2nn4edid6detail23IsVeryLowPowerSupportedEh = 0x41b94
_ZN2nn4edid6detail23IsSrgbDefaultColorSpaceEh = 0x41b9c
_ZN2nn4edid6detail21IsContinuousFrequencyEh = 0x41ba4
_ZN2nn4edid6detail22PhysicalAddressVisitorEPKhmPv = 0x41bac
_ZN2nn4edid6detail31PhysicalAddressDataBlockVisitorEPKhmNS0_6cea8618BlockTagEPv = 0x41be4
_ZN2nn4edid6detail22VisitEstablishedTimingEPFbPKNS0_15DisplayModeInfoEPKNS0_17DisplayTimingInfoEPKNS0_13ImageSizeInfoEPvESB_iifb = 0x41c2c
_ZN2nn4edid6detail21GetEstablishedTimingIEPFbPKNS0_15DisplayModeInfoEPKNS0_17DisplayTimingInfoEPKNS0_13ImageSizeInfoEPvESB_h = 0x41c88
_ZN2nn4edid6detail22GetEstablishedTimingIIEPFbPKNS0_15DisplayModeInfoEPKNS0_17DisplayTimingInfoEPKNS0_13ImageSizeInfoEPvESB_h = 0x41edc
_ZN2nn4edid6detail23GetEstablishedTimingIIIEPFbPKNS0_15DisplayModeInfoEPKNS0_17DisplayTimingInfoEPKNS0_13ImageSizeInfoEPvESB_h = 0x42130
_ZN2nn4edid6detail17GetStandardTimingEPNS0_15DisplayModeInfoEhh = 0x42198
_ZN2nn4edid6detail28GetStandardTimingAspectRatioEPiS2_h = 0x42208
_ZN2nn4edid6detail30GetDetailedTimingVsyncPolarityEh = 0x42238
_ZN2nn4edid6detail30GetDetailedTimingHsyncPolarityEh = 0x42258
_ZN2nn4edid6detail27GetDetailedTimingStereoModeEh = 0x42278
_ZN2nn4edid6detail26GetDetailedTimingSyncTypesEh = 0x422e0
_ZN2nn4edid6detail24IsDetailedTimingSerratedEh = 0x42338
_ZN2nn4edid6detail26IsDetailedTimingInterlacedEh = 0x4235c
_ZN2nn4edid6detail17GetDetailedTimingEPNS0_15DisplayModeInfoEPNS0_17DisplayTimingInfoEPNS0_13ImageSizeInfoEPKhm = 0x4236c
_ZN2nn4edid6detail21DetailedTimingVisitorEPKNS0_15DisplayModeInfoEPKNS0_17DisplayTimingInfoEPKNS0_13ImageSizeInfoEPv = 0x426b0
_ZN2nn4edid6detail25ModeExtensionBlockVisitorEPKhmPv = 0x426b8
_ZN2nn4edid6detail17VideoBlockVisitorEPKhmNS0_6cea8618BlockTagEPv = 0x42710
_ZN2nn4edid6detail10InitializeEPNS0_4EdidE = 0x42790
_ZN2nn4edid6detail7IsValidEPKNS0_4EdidE = 0x42798
_ZN2nn4edid6detail9SerializeItEET_PKh = 0x427c0
_ZN2nn4edid6detail9SerializeIjEET_PKh = 0x427d0
_ZN2nn4edid6detail16AudioDataVisitorEPKhmPv = 0x427f4
_ZN2nn4edid6detail21AudioDataBlockVisitorEPKhmNS0_6cea8618BlockTagEPv = 0x4281c
_ZN2nn4edid6cea86111VisitBlocksEPKNS0_4EdidEPFbPKhmPvES7_ = 0x42a08
_ZN2nn4edid6cea86111GetBlockTagEt = 0x42aa8
_ZN2nn4edid6cea86115VisitDataBlocksEPKhmPFbS3_mNS1_8BlockTagEPvES5_ = 0x42b30
_ZN2nn4edid6cea86120VisitDetailedTimingsEPKhmPFbPKNS0_15DisplayModeInfoEPKNS0_17DisplayTimingInfoEPKNS0_13ImageSizeInfoEPvESD_ = 0x42c68
_ZN2nn4edid6cea86110ConvertVicEPNS0_15DisplayModeInfoEh = 0x42d10
_ZN2nn2sf13SharedPointerINS_3spl6detail16IRandomInterfaceEED2Ev = 0x43580
_ZN2nn2os5MutexD2Ev = 0x43598
_ZN2nn6crypto15InitializeCsrngEv = 0x4359c
_ZN2nn6crypto36GenerateCryptographicallyRandomBytesEPvm = 0x436bc
_ZN2nn2sf14IServiceObject20GetInterfaceTypeInfoEv = 0x43830
_ZN2nn2sf4hipc6client24Hipc2ClientCoreProcessorILNS1_6detail11MessageTypeE4ENS0_4cmif6detail14CoreMethodInfoINSt3__15tupleIJNS7_18BufferArgumentInfoILi0ELi6ELm0EEEEEELm0ELm0ELb0EEESD_E7ProcessEPNS2_26Hipc2ClientProxyBaseObjectENS6_6client24BufferClientArgumentTypeEj = 0x43878
_ZN2nn2sf4hipc6client28Hipc2ClientCoreProcessorImpl19WriteBufferDataImplEPNS1_6detail17HipcMessageWriterEiPKNS0_6detail14PointerAndSizeEPKimm = 0x439d0
_ZN2nn2sf4hipc6detail17HipcMessageReader10InitializeEPKv = 0x4424c
_ZN2nn4diag6detail10VAbortImplEPKcS3_S3_iPKNS_6ResultEPKNS_2os17UserExceptionInfoES3_St9__va_list = 0x44444
_ZN2nn4diag6detail9AbortImplEPKcS3_S3_iPKNS_6ResultEPKNS_2os17UserExceptionInfoES3_z = 0x444a8
_ZN2nn4diag6detail9AbortImplEPKcS3_S3_iPKNS_6ResultES3_z = 0x444fc
_ZN2nn4diag6detail9AbortImplEPKcS3_S3_iS3_z = 0x44560
_ZN2nn4diag6detail9AbortImplEPKcS3_S3_i = 0x445d0
_ZN2nn4diag6detail18OnAssertionFailureENS0_13AssertionTypeEPKcS4_S4_iS4_z = 0x445f0
_ZN2nn4diag6detail18OnAssertionFailureENS0_13AssertionTypeEPKcS4_S4_i = 0x446dc
_ZN2nn4diag26SetAssertionFailureHandlerEPFNS0_25AssertionFailureOperationERKNS0_13AssertionInfoEE = 0x446e8
nndetailUnexpectedDefaultImpl = 0x446fc
nndetailDiagAbortFormatImpl = 0x44730
nndetailDiagAbortImpl = 0x4478c
nndetailDiagOnAssertionFailureFormat = 0x447a0
nndetailDiagOnAssertionFailure = 0x44804
_ZN2nn4diag12GetBacktraceEPmi = 0x44810
_ZN2nn4diag12GetBacktraceEPmm = 0x44814
_ZN2nn4diag6detail8VLogImplERKNS0_11LogMetaInfoEPKcSt9__va_list = 0x4482c
_ZN2nn4diag6detail8VLogImplERKNS0_11LogMetaDataEPKcSt9__va_list = 0x44908
_ZN2nn4diag6detail7LogImplERKNS0_11LogMetaInfoEPKcz = 0x449b8
_ZN2nn4diag6detail7LogImplERKNS0_11LogMetaDataEPKcz = 0x44bac
_ZN2nn4diag6detail7PutImplERKNS0_11LogMetaDataEPKcm = 0x44ca8
nndetailDiagVLogImpl = 0x44cd4
nndetailDiagVLogImplForC = 0x44d44
nndetailDiagLogImpl = 0x44d84
nndetailDiagLogImplForC = 0x44e48
nndetailDiagPutImplForC = 0x44edc
_ZN2nn4diag6detail18CallAllLogObserverERKNS0_11LogMetaDataERKNS0_7LogBodyE = 0x44ee0
_ZN2nn4diag6detail25ReplaceDefaultLogObserverEPFvRKNS0_11LogMetaDataERKNS0_7LogBodyEPvE = 0x44f34
_ZN2nn4diag21UnregisterLogObserverEPNS0_17LogObserverHolderE = 0x44fb8
_ZN2nn4diag27InitializeLogObserverHolderEPNS0_17LogObserverHolderEPFvRKNS0_11LogMetaDataERKNS0_7LogBodyEPvES9_ = 0x45000
_ZN2nn4diag19RegisterLogObserverEPNS0_17LogObserverHolderE = 0x45010
_ZN2nn4diag6detail23ResetDefalutLogObserverEv = 0x45040
_ZN2nn4diag13OnResultThrowENS_6ResultERKNS0_10SourceInfoE = 0x45260
_ZN2nn4diag14OnResultHandleENS_6ResultERKNS0_10SourceInfoE = 0x45264
_ZN2nn4diag15OnResultRethrowENS_6ResultERKNS0_10SourceInfoE = 0x45268
_ZN2nn4diag13OnResultCatchENS_6ResultERKNS0_10SourceInfoE = 0x4526c
_ZN2nn4diag12OnResultMissENS_6ResultERKNS0_10SourceInfoE = 0x45270
_ZN2nn6detail21UnexpectedDefaultImplEPKcS2_i = 0x45274
_ZN2nn4diag6detail9TranslateEPKhPKc = 0x452c4
_ZN2nn4diag6detail11NotNullImplEm = 0x453a4
_ZN2nn4diag6detail16PrintDebugStringEPKc = 0x453b0
_ZN2nn4diag6detail20DefaultAbortObserverERKNS0_9AbortInfoE = 0x453d8
_ZN2nn4diag29InitializeAbortObserverHolderEPNS0_19AbortObserverHolderEPFvRKNS0_9AbortInfoEE = 0x453dc
_ZN2nn4diag21RegisterAbortObserverEPNS0_19AbortObserverHolderE = 0x453e8
_ZN2nn4diag23UnregisterAbortObserverEPNS0_19AbortObserverHolderE = 0x45440
_ZN2nn4diag26EnableDefaultAbortObserverEb = 0x454dc
_ZN2nn4diag32InitializeSdkAbortObserverHolderEPNS0_22SdkAbortObserverHolderEPFvRKNS0_12SdkAbortInfoEE = 0x454f0
_ZN2nn4diag24RegisterSdkAbortObserverEPNS0_22SdkAbortObserverHolderE = 0x454fc
_ZN2nn4diag26UnregisterSdkAbortObserverEPNS0_22SdkAbortObserverHolderE = 0x45554
_ZN2nn4diag18IsDebuggerAttachedEv = 0x455f0
_ZN2nn4diag13GetModulePathEPcmm = 0x45650
_ZN2nn4diag16GetAllModuleInfoEPPNS0_10ModuleInfoEPvm = 0x45654
_ZN2nn4diag40GetRequiredBufferSizeForGetAllModuleInfoEv = 0x4567c
nndiagStartup = 0x456b4
_ZN2nn4diag14IsSystemSymbolEm = 0x456b8
_ZN2nn4diag13GetSymbolNameEPcmm = 0x456bc
_ZN2nn4diag13GetSymbolSizeEm = 0x456c0
_ZN2nn4diag6detail5AbortEv = 0x456c4
_ZN2nn4diag6detail19InvokeAbortObserverERKNS0_9AbortInfoE = 0x456e0
_ZN2nn4diag6detail22InvokeSdkAbortObserverERKNS0_12SdkAbortInfoE = 0x45750
_ZN2nn4diag6detail16GetBacktraceImplEPmimm = 0x457a8
_ZN2nn4diag6detail16GetBacktraceImplEPmi = 0x45970
_ZN2nn4diag12GetBacktraceEPmimmm = 0x4599c
_ZN2nn4diag6detail22PrintBacktraceItemImplEmb = 0x459bc
_ZN2nn4diag6detail23TentativeDumpStackTraceEv = 0x459e8
_ZN2nn4diag12PrintModulesEPmi = 0x45b18
_ZN2nn4diag18PrintBacktraceItemEmb = 0x45bc8
_ZN2nn4diag6detail23GetAbortObserverManagerEv = 0x45bf4
_ZN2nn4diag6detail15ObserverManagerINS0_19AbortObserverHolderERKNS0_9AbortInfoEED2Ev = 0x45c78
_ZN2nn4diag6detail26GetSdkAbortObserverManagerEv = 0x45cc4
_ZN2nn4diag6detail15ObserverManagerINS0_22SdkAbortObserverHolderERKNS0_12SdkAbortInfoEED2Ev = 0x45d38
_ZN2nn4diag6detail16PrintDebugStringEPKcm = 0x45d84
_ZN2nn4diag6detail23GetModuleInfoForHorizonEPPKcPmS5_m = 0x45d90
_ZN2nn4diag6detail17GetModulePathImplEPcmm = 0x45e54
_ZN2nn4diag6detail20GetAllModuleInfoImplEPmPvmb = 0x45f30
_ZN2nn4diag6detail18IsSystemSymbolImplEm = 0x461a8
_ZN2nn4diag6detail24GetNearestExportedSymbolEPPKcPmm = 0x4621c
_ZN2nn4diag6detail17GetSymbolNameImplEPcmm = 0x46368
_ZN2nn4diag6detail17GetSymbolSizeImplEm = 0x46448
_ZN2nn2fs22GetGlobalAccessLogModeEPj = 0x46488
_ZN2nn2fs22SetGlobalAccessLogModeEj = 0x46544
_ZN2nn2fs17SetLocalAccessLogEb = 0x46600
_ZN2nn2fs28SetLocalApplicationAccessLogEb = 0x46624
_ZN2nn2fs6detail18IsEnabledAccessLogEj = 0x46648
_ZN2nn2fs6detail18IsEnabledAccessLogEv = 0x46784
_ZN2nn2fs6detail15OutputAccessLogENS_6ResultENS_2os4TickES4_PKcNS0_10FileHandleES6_z = 0x4678c
_ZN2nn2fs6detail15OutputAccessLogENS_6ResultENS_2os4TickES4_PKcNS0_15DirectoryHandleES6_z = 0x46a14
_ZN2nn2fs6detail15OutputAccessLogENS_6ResultENS_2os4TickES4_PKcNS1_23IdentifyAccessLogHandleES6_z = 0x46a9c
_ZN2nn2fs6detail15OutputAccessLogENS_6ResultENS_2os4TickES4_PKcPKvS6_z = 0x46b24
_ZN2nn2fs6detail30OutputAccessLogForPreconditionENS_6ResultENS_2os4TickES4_PKcNS0_10FileHandleES6_z = 0x46bac
_ZN2nn2fs6detail30OutputAccessLogForPreconditionENS_6ResultENS_2os4TickES4_PKcNS0_15DirectoryHandleES6_z = 0x46c38
_ZN2nn2fs6detail30OutputAccessLogForPreconditionENS_6ResultENS_2os4TickES4_PKcPKvS6_z = 0x46cc4
_ZN2nn2fs6detail30OutputAccessLogForPreconditionEbNS_2os4TickES3_PKcNS0_10FileHandleES5_z = 0x46d50
_ZN2nn2fs6detail30OutputAccessLogForPreconditionEbNS_2os4TickES3_PKcNS0_15DirectoryHandleES5_z = 0x46de0
_ZN2nn2fs6detail30OutputAccessLogForPreconditionEbNS_2os4TickES3_PKcPKvS5_z = 0x46e70
_ZN2nn2fs6detail24IsEnabledHandleAccessLogENS0_10FileHandleE = 0x46f00
_ZN2nn2fs6detail24IsEnabledHandleAccessLogENS0_15DirectoryHandleE = 0x46f20
_ZN2nn2fs6detail24IsEnabledHandleAccessLogENS1_23IdentifyAccessLogHandleE = 0x46f40
_ZN2nn2fs6detail24IsEnabledHandleAccessLogEPKv = 0x46f48
_ZN2nn2fs6detail36IsEnabledFileSystemAccessorAccessLogEPKc = 0x46f54
_ZN2nn2fs6detail33EnableFileSystemAccessorAccessLogEPKc = 0x46fd4
_ZN2nn2fs6detail8IdString13ToValueStringEi = 0x47058
_ZN2nn2fs6detail8IdString8ToStringINS0_16ImageDirectoryIdEEEPKcT_ = 0x47090
_ZN2nn2fs6detail8IdString8ToStringINS0_16ContentStorageIdEEEPKcT_ = 0x470f0
_ZN2nn2fs6detail8IdString8ToStringINS0_17GameCardPartitionEEEPKcT_ = 0x47144
_ZN2nn2fs6detail8IdString8ToStringINS0_15SaveDataSpaceIdEEEPKcT_ = 0x47198
_ZN2nn2fs6detail8IdString8ToStringINS0_11ContentTypeEEEPKcT_ = 0x47228
_ZN2nn2fs6detail8IdString8ToStringINS0_14BisPartitionIdEEEPKcT_ = 0x4727c
_ZN2nn2os21SdkThreadLocalStorageD2Ev = 0x4739c
_ZN2nn2fs19SetEnabledAutoAbortEb = 0x473a4
_ZN2nn2fs20DefaultResultHandlerENS_6ResultE = 0x473b4
_ZN2nn2fs22AllReturnResultHandlerENS_6ResultE = 0x473cc
_ZN2nn2fs23ScopedAutoAbortDisablerC2Ev = 0x473d4
_ZN2nn2fs25GetCurrentThreadFsContextEv = 0x4741c
_ZN2nn2fs25SetCurrentThreadFsContextEPKNS0_9FsContextE = 0x47448
_ZN2nn2fs32SetDefaultFsContextResultHandlerEPFNS0_14AbortSpecifierENS_6ResultEE = 0x4745c
_ZN2nn2fs24HierarchicalRomFileTable30QueryDirectoryEntryStorageSizeEj = 0x47510
_ZN2nn2fs24HierarchicalRomFileTable25QueryFileEntryStorageSizeEj = 0x47528
_ZN2nn2fs24HierarchicalRomFileTable36QueryDirectoryEntryBucketStorageSizeEl = 0x4753c
_ZN2nn2fs24HierarchicalRomFileTable31QueryFileEntryBucketStorageSizeEl = 0x47544
_ZN2nn2fs24HierarchicalRomFileTable6FormatENS0_10SubStorageES2_ = 0x4754c
_ZN2nn2fs10SubStorage7GetSizeEPl = 0x47684
_ZN2nn2fs10SubStorageD2Ev = 0x476ac
_ZN2nn2fs24HierarchicalRomFileTableC2Ev = 0x476cc
_ZN2nn2fs24HierarchicalRomFileTable10InitializeENS0_10SubStorageES2_S2_S2_ = 0x47734
_ZN2nn2fs24HierarchicalRomFileTable8FinalizeEv = 0x477c0
_ZN2nn2fs24HierarchicalRomFileTable19CreateRootDirectoryEv = 0x477fc
_ZN2nn2fs24HierarchicalRomFileTable15CreateDirectoryEPiPKcRKNS0_16RomDirectoryInfoE = 0x47854
_ZN2nn2fs24HierarchicalRomFileTable22FindDirectoryRecursiveEPNS1_8EntryKeyEPNS1_17DirectoryRomEntryEPKc = 0x47b1c
_ZN2nn2fs24HierarchicalRomFileTable20CheckSameEntryExistsERKNS1_8EntryKeyENS_6ResultE = 0x47b40
_ZN2nn2fs24HierarchicalRomFileTable10CreateFileEPiPKcRKNS0_11RomFileInfoE = 0x47c64
_ZN2nn2fs24HierarchicalRomFileTable17FindFileRecursiveEPNS1_8EntryKeyEPNS1_17DirectoryRomEntryEPKc = 0x47fe4
_ZN2nn2fs24HierarchicalRomFileTable24ConvertPathToDirectoryIdEPiPKc = 0x48008
_ZN2nn2fs24HierarchicalRomFileTable17GetDirectoryEntryEPjPNS1_17DirectoryRomEntryERKNS1_8EntryKeyE = 0x48090
_ZN2nn2fs24HierarchicalRomFileTable19ConvertPathToFileIdEPiPKc = 0x481d8
_ZN2nn2fs24HierarchicalRomFileTable12GetFileEntryEPjPNS1_12FileRomEntryERKNS1_8EntryKeyE = 0x48264
_ZN2nn2fs24HierarchicalRomFileTable23GetDirectoryInformationEPNS0_16RomDirectoryInfoEPKc = 0x483b4
_ZN2nn2fs24HierarchicalRomFileTable23GetDirectoryInformationEPNS0_16RomDirectoryInfoERKNS1_8EntryKeyE = 0x48434
_ZN2nn2fs24HierarchicalRomFileTable23GetDirectoryInformationEPNS0_16RomDirectoryInfoEi = 0x48478
_ZN2nn2fs24HierarchicalRomFileTable17GetDirectoryEntryEPNS1_17DirectoryRomEntryEi = 0x485bc
_ZN2nn2fs24HierarchicalRomFileTable8OpenFileEPNS0_11RomFileInfoEPKc = 0x48714
_ZN2nn2fs24HierarchicalRomFileTable8OpenFileEPNS0_11RomFileInfoERKNS1_8EntryKeyE = 0x487ac
_ZN2nn2fs24HierarchicalRomFileTable8OpenFileEPNS0_11RomFileInfoEi = 0x48810
_ZN2nn2fs24HierarchicalRomFileTable12GetFileEntryEPNS1_12FileRomEntryEi = 0x489a0
_ZN2nn2fs24HierarchicalRomFileTable8FindOpenEPNS1_12FindPositionEPKc = 0x48b00
_ZN2nn2fs24HierarchicalRomFileTable8FindOpenEPNS1_12FindPositionERKNS1_8EntryKeyE = 0x48b98
_ZN2nn2fs24HierarchicalRomFileTable8FindOpenEPNS1_12FindPositionEi = 0x48c04
_ZN2nn2fs24HierarchicalRomFileTable17FindNextDirectoryEPcPNS1_12FindPositionEm = 0x48d98
_ZN2nn2fs24HierarchicalRomFileTable12FindNextFileEPcPNS1_12FindPositionEm = 0x48f04
_ZN2nn2fs24HierarchicalRomFileTable22QueryRomFileSystemSizeEPlS2_ = 0x49070
_ZN2nn2fs24HierarchicalRomFileTable8DumpTreeEv = 0x49088
_ZN2nn2fs24HierarchicalRomFileTable13DumpDirectoryEji = 0x490b0
_ZN2nn2fs24HierarchicalRomFileTable14GetGrandparentEPjPNS1_8EntryKeyEPNS1_17DirectoryRomEntryEjNS0_11RomPathTool12RomEntryNameEPKc = 0x49458
_ZN2nn2fs24HierarchicalRomFileTable28FindParentDirectoryRecursiveEPjPNS1_8EntryKeyEPNS1_17DirectoryRomEntryEPNS0_11RomPathTool10PathParserEPKc = 0x49538
_ZN2nn2fs24HierarchicalRomFileTable17FindPathRecursiveEPNS1_8EntryKeyEPNS1_17DirectoryRomEntryEbPKc = 0x497c0
_ZN2nn2fs10SubStorageD0Ev = 0x49ba0
_ZN2nn2fs10SubStorage4ReadElPvm = 0x49be0
_ZN2nn2fs10SubStorage5WriteElPKvm = 0x49c68
_ZN2nn2fs10SubStorage5FlushEv = 0x49cf0
_ZN2nn2fs10SubStorage7SetSizeEl = 0x49d24
_ZN2nn2fs10SubStorage12OperateRangeEPvmNS0_11OperationIdEllPKvm = 0x49de4
_ZN2nn2fs26KeyValueRomStorageTemplateINS0_24HierarchicalRomFileTable11RomEntryKeyENS2_17DirectoryRomEntryELi768EE11AddInternalEPjRKS3_jPKvmRKS4_ = 0x49e44
_ZN2nn2fs26KeyValueRomStorageTemplateINS0_24HierarchicalRomFileTable11RomEntryKeyENS2_17DirectoryRomEntryELi768EE12FindInternalEPjS6_PNS5_14StorageElementERKS3_jPKvm = 0x4a144
_ZN2nn2fs26KeyValueRomStorageTemplateINS0_24HierarchicalRomFileTable11RomEntryKeyENS2_12FileRomEntryELi768EE11AddInternalEPjRKS3_jPKvmRKS4_ = 0x4a3c0
_ZN2nn2fs26KeyValueRomStorageTemplateINS0_24HierarchicalRomFileTable11RomEntryKeyENS2_12FileRomEntryELi768EE12FindInternalEPjS6_PNS5_14StorageElementERKS3_jPKvm = 0x4a6cc
_ZN2nn2fs11RomPathTool10PathParserC2Ev = 0x4a948
_ZN2nn2fs11RomPathTool10PathParser10InitializeEPKc = 0x4a958
_ZN2nn2fs11RomPathTool10PathParser8FinalizeEv = 0x4a99c
_ZNK2nn2fs11RomPathTool10PathParser15IsParseFinishedEv = 0x4a9ac
_ZNK2nn2fs11RomPathTool10PathParser15IsDirectoryPathEv = 0x4a9b4
_ZN2nn2fs11RomPathTool10PathParser20GetNextDirectoryNameEPNS1_12RomEntryNameE = 0x4aa14
_ZNK2nn2fs11RomPathTool10PathParser18GetAsDirectoryNameEPNS1_12RomEntryNameE = 0x4aac8
_ZNK2nn2fs11RomPathTool10PathParser13GetAsFileNameEPNS1_12RomEntryNameE = 0x4aafc
_ZN2nn2fs11RomPathTool22GetParentDirectoryNameEPNS1_12RomEntryNameERKS2_PKc = 0x4ab30
_ZN2nn2fs11FileStorageC2Ev = 0x4ac58
_ZN2nn2fs11FileStorageC1EPNS0_3fsa5IFileE = 0x4ac74
_ZN2nn2fs11FileStorage4ReadElPvm = 0x4ac94
_ZN2nn2fs11FileStorage10UpdateSizeEv = 0x4ad90
_ZN2nn2fs11FileStorage5WriteElPKvm = 0x4adec
_ZN2nn2fs11FileStorage7SetSizeEl = 0x4aee4
_ZN2nn2fs11FileStorage7GetSizeEPl = 0x4af20
_ZN2nn2fs11FileStorage5FlushEv = 0x4af8c
_ZN2nn2fs11FileStorage12OperateRangeEPvmNS0_11OperationIdEllPKvm = 0x4afb0
_ZN2nn2fs26FileStorageBasedFileSystemC2Ev = 0x4b0e4
_ZN2nn2fs26FileStorageBasedFileSystem10InitializeENSt3__110shared_ptrINS0_3fsa11IFileSystemEEEPKcNS0_8OpenModeE = 0x4b104
_ZN2nn2fs17FileHandleStorageC1ENS0_10FileHandleE = 0x4b1d8
_ZN2nn2fs17FileHandleStorage4ReadElPvm = 0x4b278
_ZN2nn2fs17FileHandleStorage5WriteElPKvm = 0x4b334
_ZN2nn2fs17FileHandleStorage7GetSizeEPl = 0x4b3f0
_ZN2nn2fs17FileHandleStorage5FlushEv = 0x4b400
_ZN2nn2fs17FileHandleStorage12OperateRangeEPvmNS0_11OperationIdEllPKvm = 0x4b41c
_ZN2nn2fs8IStorageD2Ev = 0x4b484
_ZN2nn2fs11FileStorageD0Ev = 0x4b488
_ZN2nn2fs17FileHandleStorageD2Ev = 0x4b490
_ZN2nn2fs17FileHandleStorageD0Ev = 0x4b4a4
_ZN2nn2fs8IStorage7SetSizeEl = 0x4b4dc
_ZN2nn2fs26FileStorageBasedFileSystemD2Ev = 0x4b4e8
_ZN2nn2fs26FileStorageBasedFileSystemD0Ev = 0x4b540
_ZN2nn2fs10VerifyPathEPKcii = 0x4b598
_ZN2nn2fs29SetResultHandledByApplicationEb = 0x4b74c
_ZN2nn2fs6detail13IsAbortNeededENS_6ResultE = 0x4b75c
_ZN2nn2fs6detail21LogResultErrorMessageENS_6ResultE = 0x4b81c
_ZN2nn2fs6detail15LogErrorMessageENS_6ResultEPKc = 0x4b820
_ZN2nn2fs15RomFsFileSystemC2Ev = 0x4b854
_ZN2nn2fs15RomFsFileSystemD1Ev = 0x4b894
_ZN2nn2fs15RomFsFileSystemD0Ev = 0x4b99c
_ZN2nn2fs15RomFsFileSystem14GetBaseStorageEv = 0x4b9c4
_ZN2nn2fs15RomFsFileSystem15GetRomFileTableEv = 0x4b9cc
_ZN2nn2fs15RomFsFileSystem28GetRequiredWorkingMemorySizeEPmPNS0_8IStorageE = 0x4b9d4
_ZN2nn2fs15RomFsFileSystem10InitializeEONSt3__110unique_ptrINS0_8IStorageENS2_14default_deleteIS4_EEEEPvmb = 0x4ba64
_ZN2nn2fs15RomFsFileSystem10InitializeEPNS0_8IStorageEPvmb = 0x4bad4
_ZN2nn2fs15RomFsFileSystem10DoOpenFileEPNSt3__110unique_ptrINS0_3fsa5IFileENS2_14default_deleteIS5_EEEEPKcNS0_8OpenModeE = 0x4c1ec
_ZN2nn2fs15RomFsFileSystem11GetFileInfoEPNS0_11RomFileInfoEPKc = 0x4c2ec
_ZN2nn2fs15RomFsFileSystem15DoOpenDirectoryEPNSt3__110unique_ptrINS0_3fsa10IDirectoryENS2_14default_deleteIS5_EEEEPKcNS0_17OpenDirectoryModeE = 0x4c350
_ZN2nn2fs15RomFsFileSystem14DoGetEntryTypeEPNS0_18DirectoryEntryTypeEPKc = 0x4c428
_ZN2nn2fs15RomFsFileSystem12DoCreateFileEPKcli = 0x4c520
_ZN2nn2fs15RomFsFileSystem12DoDeleteFileEPKc = 0x4c52c
_ZN2nn2fs15RomFsFileSystem17DoCreateDirectoryEPKc = 0x4c538
_ZN2nn2fs15RomFsFileSystem17DoDeleteDirectoryEPKc = 0x4c544
_ZN2nn2fs15RomFsFileSystem28DoDeleteDirectoryRecursivelyEPKc = 0x4c550
_ZN2nn2fs15RomFsFileSystem27DoCleanDirectoryRecursivelyEPKc = 0x4c55c
_ZN2nn2fs15RomFsFileSystem12DoRenameFileEPKcS3_ = 0x4c5c0
_ZN2nn2fs15RomFsFileSystem17DoRenameDirectoryEPKcS3_ = 0x4c5cc
_ZN2nn2fs15RomFsFileSystem8DoCommitEv = 0x4c5d8
_ZN2nn2fs15RomFsFileSystem18DoGetFreeSpaceSizeEPlPKc = 0x4c5e4
_ZN2nn2fs15RomFsFileSystem19DoGetTotalSpaceSizeEPlPKc = 0x4c5f0
_ZN2nn2fs15RomFsFileSystem17GetFileBaseOffsetEPlPKc = 0x4c5fc
_ZN2nn2fs3fsa11IFileSystem7DoFlushEv = 0x4c690
_ZN2nn2fs3fsa11IFileSystem21DoGetFileTimeStampRawEPNS0_16FileTimeStampRawEPKc = 0x4c69c
_ZN2nn2fs3fsa11IFileSystem12DoQueryEntryEPcmPKcmNS1_7QueryIdES5_ = 0x4c6a8
_ZN2nn2fs13MemoryStorageD0Ev = 0x4c6b4
_ZN2nn2fs13MemoryStorage4ReadElPvm = 0x4c6bc
_ZN2nn2fs13MemoryStorage5WriteElPKvm = 0x4c72c
_ZN2nn2fs13MemoryStorage5FlushEv = 0x4c79c
_ZN2nn2fs13MemoryStorage7GetSizeEPl = 0x4c7a4
_ZN2nn2fs13MemoryStorage12OperateRangeEPvmNS0_11OperationIdEllPKvm = 0x4c7b4
_ZN2nn2fs3fsa5IFileD2Ev = 0x4c958
_ZN2nn2fs3fsa10IDirectoryD2Ev = 0x4c9c4
_ZN2nn2fs6detail17DirectoryAccessorC1EONSt3__110unique_ptrINS0_3fsa10IDirectoryENS3_14default_deleteIS6_EEEERNS1_18FileSystemAccessorE = 0x4cc74
_ZN2nn2fs6detail17DirectoryAccessorD2Ev = 0x4cc88
_ZN2nn2fs6detail17DirectoryAccessor4ReadEPlPNS0_14DirectoryEntryEl = 0x4cce8
_ZN2nn2fs6detail17DirectoryAccessor13GetEntryCountEPl = 0x4cd44
_ZN2nn2fs6detail12FileAccessorC2EONSt3__110unique_ptrINS0_3fsa5IFileENS3_14default_deleteIS6_EEEERNS1_18FileSystemAccessorEi = 0x4cd78
_ZN2nn2fs6detail12FileAccessorD1Ev = 0x4cd94
_ZN2nn2fs6detail12FileAccessor4ReadEPmlPvmRKNS0_10ReadOptionE = 0x4ce4c
_ZN2nn2fs6detail12FileAccessor5WriteElPKvmRKNS0_11WriteOptionE = 0x4cec0
_ZN2nn2fs6detail12FileAccessor16UpdateLastResultENS_6ResultE = 0x4cfa4
_ZN2nn2fs6detail12FileAccessor5FlushEv = 0x4cfd0
_ZN2nn2fs6detail12FileAccessor7SetSizeEl = 0x4d038
_ZN2nn2fs6detail12FileAccessor7GetSizeEPl = 0x4d0b4
_ZNK2nn2fs6detail12FileAccessor11GetOpenModeEv = 0x4d0f4
_ZN2nn2fs6detail12FileAccessor13GetWriteStateEv = 0x4d0fc
_ZN2nn2fs6detail12FileAccessor12OperateRangeEPvmNS0_11OperationIdEllPKvm = 0x4d104
_ZN2nn2fs6detail18FileSystemAccessorC1EPKcONSt3__110unique_ptrINS0_3fsa11IFileSystemENS5_14default_deleteIS8_EEEEONS6_INS7_25ICommonMountNameGeneratorENS9_ISD_EEEE = 0x4d128
_ZN2nn2fs6detail18FileSystemAccessorD2Ev = 0x4d250
_ZN2nn2fs6detail18FileSystemAccessor24DumpUnclosedAccessorListEii = 0x4d390
_ZN2nn2fs6detail18FileSystemAccessorD0Ev = 0x4d488
_ZN2nn2fs6detail18FileSystemAccessor10CreateFileEPKcli = 0x4d4b0
_ZN2nn2fs6detail18FileSystemAccessor10DeleteFileEPKc = 0x4d55c
_ZN2nn2fs6detail18FileSystemAccessor15CreateDirectoryEPKc = 0x4d5e0
_ZN2nn2fs6detail18FileSystemAccessor15DeleteDirectoryEPKc = 0x4d664
_ZN2nn2fs6detail18FileSystemAccessor26DeleteDirectoryRecursivelyEPKc = 0x4d6e8
_ZN2nn2fs6detail18FileSystemAccessor25CleanDirectoryRecursivelyEPKc = 0x4d76c
_ZN2nn2fs6detail18FileSystemAccessor10RenameFileEPKcS4_ = 0x4d7f0
_ZN2nn2fs6detail18FileSystemAccessor15RenameDirectoryEPKcS4_ = 0x4d8b4
_ZN2nn2fs6detail18FileSystemAccessor12GetEntryTypeEPNS0_18DirectoryEntryTypeEPKc = 0x4d978
_ZN2nn2fs6detail18FileSystemAccessor16GetFreeSpaceSizeEPlPKc = 0x4da1c
_ZN2nn2fs6detail18FileSystemAccessor17GetTotalSpaceSizeEPlPKc = 0x4dac0
_ZN2nn2fs6detail18FileSystemAccessor8OpenFileEPNSt3__110unique_ptrINS1_12FileAccessorENS3_14default_deleteIS5_EEEEPKcNS0_8OpenModeE = 0x4db64
_ZN2nn2fs6detail18FileSystemAccessor13OpenDirectoryEPNSt3__110unique_ptrINS1_17DirectoryAccessorENS3_14default_deleteIS5_EEEEPKcNS0_17OpenDirectoryModeE = 0x4dcc8
_ZN2nn2fs6detail18FileSystemAccessor6CommitEv = 0x4de28
_ZN2nn2fs6detail18FileSystemAccessor19GetFileTimeStampRawEPNS0_16FileTimeStampRawEPKc = 0x4df68
_ZN2nn2fs6detail18FileSystemAccessor10QueryEntryEPcmPKcmNS0_3fsa7QueryIdES5_ = 0x4dfac
_ZN2nn2fs6detail18FileSystemAccessor15NotifyCloseFileEPNS1_12FileAccessorE = 0x4dfe0
_ZN2nn2fs6detail18FileSystemAccessor20NotifyCloseDirectoryEPNS1_17DirectoryAccessorE = 0x4e064
_ZNK2nn2fs6detail18FileSystemAccessor18GetCommonMountNameEPcm = 0x4e0e8
_ZN2nn2fs6detail10MountTable5MountEONSt3__110unique_ptrINS1_18FileSystemAccessorENS3_14default_deleteIS5_EEEE = 0x4e11c
_ZN2nn2fs6detail10MountTable18CanAcceptMountNameEPKc = 0x4e1c8
_ZN2nn2fs6detail10MountTable7UnmountEPKc = 0x4e220
_ZN2nn2fs6detail10MountTable4FindEPPNS1_18FileSystemAccessorEPKc = 0x4e308
_ZN2nn2fs6detail12GetMountNameEPKc = 0x4e398
_ZN2nn2fs6detail14IsWindowsDriveEPKc = 0x4e5b4
_ZN2nn2fs6detail20IsWindowsDriveLetterEPKc = 0x4e5e8
_ZN2nn2fs6detail16IsValidMountNameEPKc = 0x4e61c
_ZN2nn2fs6detail23IsUsedReservedMountNameEPKc = 0x4e654
_ZN2nn2fs6detail10GetSubPathEPKc = 0x4e664
_ZN2nn2fs6detail14FindFileSystemEPPNS1_18FileSystemAccessorEPKc = 0x4e70c
_ZN2nn2fs6detail14CheckMountNameEPKc = 0x4e798
_ZN2nn2fs7UnmountEPKc = 0x4e7ec
_ZN2nn2fs21ConvertToFsCommonPathEPcmPKc = 0x4e864
_ZN2nn2fs3fsa8RegisterEPKcONSt3__110unique_ptrINS1_11IFileSystemENS4_14default_deleteIS6_EEEE = 0x4ea00
_ZN2nn2fs3fsa8RegisterEPKcONSt3__110unique_ptrINS1_11IFileSystemENS4_14default_deleteIS6_EEEEONS5_INS1_25ICommonMountNameGeneratorENS7_ISB_EEEE = 0x4eab8
_ZN2nn2fs3fsa10UnregisterEPKc = 0x4eb4c
_ZN2nn2fs14CloseDirectoryENS0_15DirectoryHandleE = 0x4eb50
_ZN2nn2fs13ReadDirectoryEPlPNS0_14DirectoryEntryENS0_15DirectoryHandleEl = 0x4ebdc
_ZN2nn2fs22GetDirectoryEntryCountEPlNS0_15DirectoryHandleE = 0x4ece4
_ZN2nn2fs9CloseFileENS0_10FileHandleE = 0x4ed70
_ZN2nn2fs8ReadFileENS0_10FileHandleElPvmRKNS0_10ReadOptionE = 0x4edfc
_ZN2nn2fs8ReadFileEPmNS0_10FileHandleElPvmRKNS0_10ReadOptionE = 0x4eee8
_ZN2nn2fs8ReadFileENS0_10FileHandleElPvm = 0x4f018
_ZN2nn2fs8ReadFileEPmNS0_10FileHandleElPvm = 0x4f040
_ZN2nn2fs9WriteFileENS0_10FileHandleElPKvmRKNS0_11WriteOptionE = 0x4f068
_ZN2nn2fs9FlushFileENS0_10FileHandleE = 0x4f1a0
_ZN2nn2fs11SetFileSizeENS0_10FileHandleEl = 0x4f27c
_ZN2nn2fs11GetFileSizeEPlNS0_10FileHandleE = 0x4f370
_ZN2nn2fs15GetFileOpenModeENS0_10FileHandleE = 0x4f3fc
_ZN2nn2fs10QueryRangeEPNS0_14QueryRangeInfoENS0_10FileHandleEll = 0x4f400
_ZN2nn2fs10CreateFileEPKcl = 0x4f4ac
_ZN2nn2fs10DeleteFileEPKc = 0x4f4c8
_ZN2nn2fs15CreateDirectoryEPKc = 0x4f610
_ZN2nn2fs15DeleteDirectoryEPKc = 0x4f758
_ZN2nn2fs26DeleteDirectoryRecursivelyEPKc = 0x4f8a0
_ZN2nn2fs25CleanDirectoryRecursivelyEPKc = 0x4f9e8
_ZN2nn2fs10RenameFileEPKcS2_ = 0x4fb30
_ZN2nn2fs15RenameDirectoryEPKcS2_ = 0x4fd30
_ZN2nn2fs12GetEntryTypeEPNS0_18DirectoryEntryTypeEPKc = 0x4ff30
_ZN2nn2fs8OpenFileEPNS0_10FileHandleEPKci = 0x50080
_ZN2nn2fs13OpenDirectoryEPNS0_15DirectoryHandleEPKci = 0x50220
_ZN2nn2fs14CommitSaveDataEPKc = 0x503bc
_ZN2nn2fs27GetFileTimeStampRawForDebugEPNS0_16FileTimeStampRawEPKc = 0x504e8
_ZN2nn2fs10CreateFileEPKcli = 0x505d0
_ZN2nn2fs16GetFreeSpaceSizeEPlPKc = 0x5073c
_ZN2nn2fs17GetTotalSpaceSizeEPlPKc = 0x50824
_ZN2nn2fs29SetConcatenationFileAttributeEPKc = 0x5090c
_ZN2nn2fs6detail10MountTableD2Ev = 0x50a04
_ZN2nn2fs6detail8RegisterEONSt3__110unique_ptrINS1_18FileSystemAccessorENS2_14default_deleteIS4_EEEE = 0x50a0c
_ZN2nn2fs6detail4FindEPPNS1_18FileSystemAccessorEPKc = 0x50a34
_ZN2nn2fs6detail10UnregisterEPKc = 0x50a64
_ZN2nn2fs23MountApplicationPackageEPKcS2_ = 0x50ac4
_ZN2nn2fs13FspPathPrintfEPNS_5fssrv2sf7FspPathEPKcz = 0x50c68
_ZN2nn2fs17MountBcatSaveDataEPKcNS_3ncm13ApplicationIdE = 0x50d50
_ZN2nn2fs6detail8MountBisEPKcNS0_14BisPartitionIdES3_ = 0x50ee0
_ZN2nn2fs15GetBisMountNameENS0_14BisPartitionIdE = 0x510a8
_ZN2nn2fs17SetBisRootForHostENS0_14BisPartitionIdEPKc = 0x51138
_ZN2nn2fs8MountBisEPKcNS0_14BisPartitionIdE = 0x512a0
_ZN2nn2fs8MountBisENS0_14BisPartitionIdEPKc = 0x512bc
_ZN2nn2fs16OpenBisPartitionEPNSt3__110unique_ptrINS0_8IStorageENS1_14default_deleteIS3_EEEENS0_14BisPartitionIdE = 0x51358
_ZN2nn2fs18InvalidateBisCacheEv = 0x514a0
_ZN2nn2fs3fsa25ICommonMountNameGeneratorD2Ev = 0x51640
_ZN2nn2fs9MountCodeEPKcS2_NS_3ncm9ProgramIdE = 0x5164c
_ZN2nn2fs12MountContentEPKcS2_NS0_11ContentTypeE = 0x5181c
_ZN2nn2fs12MountContentEPKcS2_NS_3ncm9ProgramIdENS0_11ContentTypeE = 0x5188c
_ZN2nn2fs12MountContentEPKcS2_NS_3ncm6DataIdENS0_11ContentTypeE = 0x51960
_ZN2nn2fs12MountContentEPKcNS_3ncm9ProgramIdENS0_11ContentTypeE = 0x51a34
_ZN2nn2fs19MountContentStorageEPKcNS0_16ContentStorageIdE = 0x51d40
_ZN2nn2fs19MountContentStorageENS0_16ContentStorageIdE = 0x51f30
_ZN2nn2fs26GetContentStorageMountNameENS0_16ContentStorageIdE = 0x51f78
_ZN2nn2fs6detail23QueryMountDataCacheSizeEPmNS_3ncm6DataIdENS3_9StorageIdE = 0x5203c
_ZN2nn2fs6detail9MountDataEPKcNS_3ncm6DataIdENS4_9StorageIdE = 0x522e0
_ZN2nn2fs6detail9MountDataEPKcNS_3ncm6DataIdENS4_9StorageIdEPvm = 0x524dc
_ZN2nn2fs17CreatePaddingFileEl = 0x525e4
_ZN2nn2fs21DeleteAllPaddingFilesEv = 0x526a0
_ZN2nn2fs48OverrideSaveDataTransferTokenSignVerificationKeyEPKvm = 0x52754
_ZN2nn2fs19MountDeviceSaveDataEPKc = 0x52818
_ZN2nn2fs19MountDeviceSaveDataEPKcNS_3ncm13ApplicationIdE = 0x5292c
_ZN2nn2fs35GetAndClearFileSystemProxyErrorInfoEPNS0_24FileSystemProxyErrorInfoE = 0x52b9c
_ZN2nn2fs6detail26EventNotifierObjectAdapterC2EONS_2sf13SharedPointerINS_5fssrv2sf14IEventNotifierEEE = 0x52c94
_ZN2nn2fs6detail26EventNotifierObjectAdapterD2Ev = 0x52cc4
_ZN2nn2fs6detail26EventNotifierObjectAdapterD0Ev = 0x52cec
_ZN2nn2fs6detail26EventNotifierObjectAdapter11DoBindEventEPNS_2os15SystemEventTypeENS3_14EventClearModeE = 0x52d34
_ZN2nn2fs6detail37InitializeFileSystemCreatorInterfacesEv = 0x52e08
_ZN2nn2sf13SharedPointerINS_5fssrv2sf16IFileSystemProxyEED2Ev = 0x52e0c
_ZN2nn2fs6detail41InitializeDfcFileSystemProxyServiceObjectENS_2sf13SharedPointerINS_5fssrv2sf16IFileSystemProxyEEE = 0x52e24
_ZN2nn2fs6detail31GetFileSystemProxyServiceObjectEv = 0x52e7c
_ZN2nn2fs6detail40GetFileSystemProxyForLoaderServiceObjectEv = 0x533b0
_ZN2nn2sf13SharedPointerINS_5fssrv2sf25IFileSystemProxyForLoaderEED2Ev = 0x53888
_ZN2nn2fs6detail31GetProgramRegistryServiceObjectEv = 0x538a0
_ZN2nn2sf13SharedPointerINS_5fssrv2sf16IProgramRegistryEED2Ev = 0x53d78
_ZNK2nn2sf13SharedPointerINS_5fssrv2sf16IFileSystemProxyEE19FunctionForBoolTypeEv = 0x53d90
_ZN2nn2sf4hipc6client34HipcSimpleClientSessionManagerBaseD2Ev = 0x53d94
_ZN2nn2sf4hipc6client34HipcSimpleClientSessionManagerBase4Impl8AllocateEv = 0x53e00
_ZN2nn2sf4hipc6client34HipcSimpleClientSessionManagerBase4Impl10DeallocateENS_3svc6HandleE = 0x53e74
_ZN2nn2sf4hipc6client34HipcSimpleClientSessionManagerBase4Impl19SetSessionCountImplEi = 0x53ed0
_ZN2nn2sf4hipc6client34HipcSimpleClientSessionManagerBase4Impl16RemoveHandleImplEv = 0x53fe0
_ZN2nn2sf4cmif6client23CmifDomainClientMessageINS0_4hipc6client38Hipc2ClientSessionManagedProxyKindBaseINS5_18Hipc2ProxyKindBaseILNS4_6detail11MessageTypeE4EEEEEE15ProxyBaseObjectD2Ev = 0x55798
_ZN2nn2sf4cmif6client34CmifDomainProxyClientCoreProcessorINS0_4hipc6client38Hipc2ClientSessionManagedProxyKindBaseINS5_18Hipc2ProxyKindBaseILNS4_6detail11MessageTypeE4EEEEENS1_6detail14CoreMethodInfoINSt3__15tupleIJNSC_17InRawArgumentInfoILm8ELm8ELl0EEEEEELm8ELm0ELb1EEESI_E7ProcessEPNS2_23CmifDomainClientMessageISB_E15ProxyBaseObjectENS2_23InRawClientArgumentTypeILm8ELm8EvEEj = 0x558cc
_ZN2nn2sf4cmif6client34CmifDomainProxyClientCoreProcessorINS0_4hipc6client38Hipc2ClientSessionManagedProxyKindBaseINS5_18Hipc2ProxyKindBaseILNS4_6detail11MessageTypeE4EEEEENS1_6detail14CoreMethodInfoINSt3__15tupleIJNSC_21OutObjectArgumentInfoILi0ELi0EEEEEELm0ELm0ELb0EEESI_E21ProcessWithOutObjectsEPNS2_23CmifDomainClientMessageISB_E15ProxyBaseObjectENS2_27OutObjectClientArgumentTypeEjPNS0_13SharedPointerINS0_14IServiceObjectEEE = 0x55a10
_ZN2nn2sf4cmif6client34CmifDomainProxyClientCoreProcessorINS0_4hipc6client38Hipc2ClientSessionManagedProxyKindBaseINS5_18Hipc2ProxyKindBaseILNS4_6detail11MessageTypeE4EEEEENS1_6detail14CoreMethodInfoINSt3__15tupleIJNSC_18BufferArgumentInfoILi0ELi25ELm769EEENSC_17InRawArgumentInfoILm8ELm8ELl8EEENSI_ILm4ELm4ELl0EEEEEELm16ELm0ELb0EEESL_E7ProcessEPNS2_23CmifDomainClientMessageISB_E15ProxyBaseObjectENS2_24BufferClientArgumentTypeENS2_23InRawClientArgumentTypeILm8ELm8EvEENST_ILm4ELm4EvEEj = 0x560dc
_ZN2nn2sf4cmif6client34CmifDomainProxyClientCoreProcessorINS0_4hipc6client38Hipc2ClientSessionManagedProxyKindBaseINS5_18Hipc2ProxyKindBaseILNS4_6detail11MessageTypeE4EEEEENS1_6detail14CoreMethodInfoINSt3__15tupleIJNSC_18BufferArgumentInfoILi0ELi25ELm769EEEEEELm0ELm0ELb0EEESI_E7ProcessEPNS2_23CmifDomainClientMessageISB_E15ProxyBaseObjectENS2_24BufferClientArgumentTypeEj = 0x562b4
_ZN2nn2sf4cmif6client34CmifDomainProxyClientCoreProcessorINS0_4hipc6client38Hipc2ClientSessionManagedProxyKindBaseINS5_18Hipc2ProxyKindBaseILNS4_6detail11MessageTypeE4EEEEENS1_6detail14CoreMethodInfoINSt3__15tupleIJNSC_18BufferArgumentInfoILi0ELi25ELm769EEENSG_ILi1ELi25ELm769EEEEEELm0ELm0ELb0EEESJ_E7ProcessEPNS2_23CmifDomainClientMessageISB_E15ProxyBaseObjectENS2_24BufferClientArgumentTypeESQ_j = 0x56470
_ZN2nn2sf4cmif6client34CmifDomainProxyClientCoreProcessorINS0_4hipc6client38Hipc2ClientSessionManagedProxyKindBaseINS5_18Hipc2ProxyKindBaseILNS4_6detail11MessageTypeE4EEEEENS1_6detail14CoreMethodInfoINSt3__15tupleIJNSC_18OutRawArgumentInfoILm4ELm4ELl0EEENSC_18BufferArgumentInfoILi0ELi25ELm769EEEEEELm0ELm4ELb0EEESK_E7ProcessEPNS2_23CmifDomainClientMessageISB_E15ProxyBaseObjectENS2_24OutRawClientArgumentTypeILm4ELm4EEENS2_24BufferClientArgumentTypeEj = 0x56644
_ZN2nn2sf4cmif6client34CmifDomainProxyClientCoreProcessorINS0_4hipc6client38Hipc2ClientSessionManagedProxyKindBaseINS5_18Hipc2ProxyKindBaseILNS4_6detail11MessageTypeE4EEEEENS1_6detail14CoreMethodInfoINSt3__15tupleIJNSC_21OutObjectArgumentInfoILi0ELi0EEENSC_18BufferArgumentInfoILi0ELi25ELm769EEENSC_17InRawArgumentInfoILm4ELm4ELl0EEEEEELm4ELm0ELb0EEESM_E21ProcessWithOutObjectsEPNS2_23CmifDomainClientMessageISB_E15ProxyBaseObjectENS2_27OutObjectClientArgumentTypeENS2_24BufferClientArgumentTypeENS2_23InRawClientArgumentTypeILm4ELm4EvEEjPNS0_13SharedPointerINS0_14IServiceObjectEEE = 0x5681c
_ZN2nn2sf4cmif6client34CmifDomainProxyClientCoreProcessorINS0_4hipc6client38Hipc2ClientSessionManagedProxyKindBaseINS5_18Hipc2ProxyKindBaseILNS4_6detail11MessageTypeE4EEEEENS1_6detail14CoreMethodInfoINSt3__15tupleIJNSC_18OutRawArgumentInfoILm8ELm8ELl0EEENSC_17InRawArgumentInfoILm8ELm8ELl8EEENSC_18BufferArgumentInfoILi0ELi70ELm0EEENSI_ILm8ELm8ELl16EEENSI_ILm4ELm4ELl0EEEEEELm24ELm8ELb0EEESO_E7ProcessEPNS2_23CmifDomainClientMessageISB_E15ProxyBaseObjectENS2_24OutRawClientArgumentTypeILm8ELm8EEENS2_23InRawClientArgumentTypeILm8ELm8EvEENS2_24BufferClientArgumentTypeESY_NSX_ILm4ELm4EvEEj = 0x56cdc
_ZN2nn2sf4cmif6client34CmifDomainProxyClientCoreProcessorINS0_4hipc6client38Hipc2ClientSessionManagedProxyKindBaseINS5_18Hipc2ProxyKindBaseILNS4_6detail11MessageTypeE4EEEEENS1_6detail14CoreMethodInfoINSt3__15tupleIJNSC_17InRawArgumentInfoILm8ELm8ELl8EEENSC_18BufferArgumentInfoILi0ELi69ELm0EEENSG_ILm8ELm8ELl16EEENSG_ILm4ELm4ELl0EEEEEELm24ELm0ELb0EEESM_E7ProcessEPNS2_23CmifDomainClientMessageISB_E15ProxyBaseObjectENS2_23InRawClientArgumentTypeILm8ELm8EvEENS2_24BufferClientArgumentTypeESU_NST_ILm4ELm4EvEEj = 0x56ed4
_ZN2nn2sf4cmif6client34CmifDomainProxyClientCoreProcessorINS0_4hipc6client38Hipc2ClientSessionManagedProxyKindBaseINS5_18Hipc2ProxyKindBaseILNS4_6detail11MessageTypeE4EEEEENS1_6detail14CoreMethodInfoINSt3__15tupleIJEEELm0ELm0ELb0EEESG_E7ProcessEPNS2_23CmifDomainClientMessageISB_E15ProxyBaseObjectEj = 0x570b8
_ZN2nn2sf4cmif6client34CmifDomainProxyClientCoreProcessorINS0_4hipc6client38Hipc2ClientSessionManagedProxyKindBaseINS5_18Hipc2ProxyKindBaseILNS4_6detail11MessageTypeE4EEEEENS1_6detail14CoreMethodInfoINSt3__15tupleIJNSC_17InRawArgumentInfoILm8ELm8ELl0EEEEEELm8ELm0ELb0EEESI_E7ProcessEPNS2_23CmifDomainClientMessageISB_E15ProxyBaseObjectENS2_23InRawClientArgumentTypeILm8ELm8EvEEj = 0x571ec
_ZN2nn2sf4cmif6client34CmifDomainProxyClientCoreProcessorINS0_4hipc6client38Hipc2ClientSessionManagedProxyKindBaseINS5_18Hipc2ProxyKindBaseILNS4_6detail11MessageTypeE4EEEEENS1_6detail14CoreMethodInfoINSt3__15tupleIJNSC_18OutRawArgumentInfoILm8ELm8ELl0EEEEEELm0ELm8ELb0EEESI_E7ProcessEPNS2_23CmifDomainClientMessageISB_E15ProxyBaseObjectENS2_24OutRawClientArgumentTypeILm8ELm8EEEj = 0x57328
_ZN2nn2sf4cmif6client34CmifDomainProxyClientCoreProcessorINS0_4hipc6client38Hipc2ClientSessionManagedProxyKindBaseINS5_18Hipc2ProxyKindBaseILNS4_6detail11MessageTypeE4EEEEENS1_6detail14CoreMethodInfoINSt3__15tupleIJNSC_18OutRawArgumentInfoILm64ELm4ELl0EEENSC_17InRawArgumentInfoILm4ELm4ELl0EEENSI_ILm8ELm8ELl8EEENSI_ILm8ELm8ELl16EEEEEELm24ELm64ELb0EEESM_E7ProcessEPNS2_23CmifDomainClientMessageISB_E15ProxyBaseObjectENS2_24OutRawClientArgumentTypeILm64ELm4EEENS2_23InRawClientArgumentTypeILm4ELm4EvEENSV_ILm8ELm8EvEESX_j = 0x57470
_ZN2nn2sf4cmif6client34CmifDomainProxyClientCoreProcessorINS0_4hipc6client38Hipc2ClientSessionManagedProxyKindBaseINS5_18Hipc2ProxyKindBaseILNS4_6detail11MessageTypeE4EEEEENS1_6detail14CoreMethodInfoINSt3__15tupleIJNSC_18OutRawArgumentInfoILm8ELm8ELl0EEENSC_18BufferArgumentInfoILi0ELi6ELm0EEEEEELm0ELm8ELb0EEESK_E7ProcessEPNS2_23CmifDomainClientMessageISB_E15ProxyBaseObjectENS2_24OutRawClientArgumentTypeILm8ELm8EEENS2_24BufferClientArgumentTypeEj = 0x577a4
_ZN2nn2sf4cmif6client34CmifDomainProxyClientCoreProcessorINS0_4hipc6client38Hipc2ClientSessionManagedProxyKindBaseINS5_18Hipc2ProxyKindBaseILNS4_6detail11MessageTypeE4EEEEENS1_6detail14CoreMethodInfoINSt3__15tupleIJNSC_18OutRawArgumentInfoILm8ELm8ELl0EEENSC_18BufferArgumentInfoILi0ELi25ELm769EEEEEELm0ELm8ELb0EEESK_E7ProcessEPNS2_23CmifDomainClientMessageISB_E15ProxyBaseObjectENS2_24OutRawClientArgumentTypeILm8ELm8EEENS2_24BufferClientArgumentTypeEj = 0x5797c
_ZN2nn2sf4cmif6client34CmifDomainProxyClientCoreProcessorINS0_4hipc6client38Hipc2ClientSessionManagedProxyKindBaseINS5_18Hipc2ProxyKindBaseILNS4_6detail11MessageTypeE4EEEEENS1_6detail14CoreMethodInfoINSt3__15tupleIJNSC_18OutRawArgumentInfoILm32ELm8ELl0EEENSC_18BufferArgumentInfoILi0ELi25ELm769EEEEEELm0ELm32ELb0EEESK_E7ProcessEPNS2_23CmifDomainClientMessageISB_E15ProxyBaseObjectENS2_24OutRawClientArgumentTypeILm32ELm8EEENS2_24BufferClientArgumentTypeEj = 0x57b54
_ZN2nn2sf4cmif6client34CmifDomainProxyClientCoreProcessorINS0_4hipc6client38Hipc2ClientSessionManagedProxyKindBaseINS5_18Hipc2ProxyKindBaseILNS4_6detail11MessageTypeE4EEEEENS1_6detail14CoreMethodInfoINSt3__15tupleIJNSC_18BufferArgumentInfoILi1ELi70ELm0EEENSG_ILi2ELi69ELm0EEENSC_17InRawArgumentInfoILm4ELm4ELl0EEENSG_ILi0ELi25ELm769EEEEEELm4ELm0ELb0EEESM_E7ProcessEPNS2_23CmifDomainClientMessageISB_E15ProxyBaseObjectENS2_24BufferClientArgumentTypeEST_NS2_23InRawClientArgumentTypeILm4ELm4EvEEST_j = 0x57d44
_ZN2nn2sf4cmif6client34CmifDomainProxyClientCoreProcessorINS0_4hipc6client38Hipc2ClientSessionManagedProxyKindBaseINS5_18Hipc2ProxyKindBaseILNS4_6detail11MessageTypeE4EEEEENS1_6detail14CoreMethodInfoINSt3__15tupleIJNSC_21OutObjectArgumentInfoILi0ELi0EEENSC_17InRawArgumentInfoILm8ELm8ELl8EEENSI_ILm4ELm4ELl0EEEEEELm16ELm0ELb0EEESL_E21ProcessWithOutObjectsEPNS2_23CmifDomainClientMessageISB_E15ProxyBaseObjectENS2_27OutObjectClientArgumentTypeENS2_23InRawClientArgumentTypeILm8ELm8EvEENST_ILm4ELm4EvEEjPNS0_13SharedPointerINS0_14IServiceObjectEEE = 0x57f40
_ZN2nn2sf4cmif6client34CmifDomainProxyClientCoreProcessorINS0_4hipc6client38Hipc2ClientSessionManagedProxyKindBaseINS5_18Hipc2ProxyKindBaseILNS4_6detail11MessageTypeE4EEEEENS1_6detail14CoreMethodInfoINSt3__15tupleIJNSC_21OutObjectArgumentInfoILi0ELi0EEENSC_18BufferArgumentInfoILi0ELi25ELm769EEENSC_17InRawArgumentInfoILm8ELm8ELl8EEENSK_ILm4ELm4ELl0EEEEEELm16ELm0ELb0EEESN_E21ProcessWithOutObjectsEPNS2_23CmifDomainClientMessageISB_E15ProxyBaseObjectENS2_27OutObjectClientArgumentTypeENS2_24BufferClientArgumentTypeENS2_23InRawClientArgumentTypeILm8ELm8EvEENSW_ILm4ELm4EvEEjPNS0_13SharedPointerINS0_14IServiceObjectEEE = 0x58128
_ZN2nn2sf4cmif6client34CmifDomainProxyClientCoreProcessorINS0_4hipc6client38Hipc2ClientSessionManagedProxyKindBaseINS5_18Hipc2ProxyKindBaseILNS4_6detail11MessageTypeE4EEEEENS1_6detail14CoreMethodInfoINSt3__15tupleIJNSC_21OutObjectArgumentInfoILi0ELi0EEENSC_17InRawArgumentInfoILm8ELm8ELl0EEEEEELm8ELm0ELb0EEESK_E21ProcessWithOutObjectsEPNS2_23CmifDomainClientMessageISB_E15ProxyBaseObjectENS2_27OutObjectClientArgumentTypeENS2_23InRawClientArgumentTypeILm8ELm8EvEEjPNS0_13SharedPointerINS0_14IServiceObjectEEE = 0x583a0
_ZN2nn2sf4cmif6client34CmifDomainProxyClientCoreProcessorINS0_4hipc6client38Hipc2ClientSessionManagedProxyKindBaseINS5_18Hipc2ProxyKindBaseILNS4_6detail11MessageTypeE4EEEEENS1_6detail14CoreMethodInfoINSt3__15tupleIJNSC_21OutObjectArgumentInfoILi0ELi0EEENSC_17InRawArgumentInfoILm4ELm4ELl0EEEEEELm4ELm0ELb0EEESK_E21ProcessWithOutObjectsEPNS2_23CmifDomainClientMessageISB_E15ProxyBaseObjectENS2_27OutObjectClientArgumentTypeENS2_23InRawClientArgumentTypeILm4ELm4EvEEjPNS0_13SharedPointerINS0_14IServiceObjectEEE = 0x58574
_ZN2nn2sf4cmif6client34CmifDomainProxyClientCoreProcessorINS0_4hipc6client38Hipc2ClientSessionManagedProxyKindBaseINS5_18Hipc2ProxyKindBaseILNS4_6detail11MessageTypeE4EEEEENS1_6detail14CoreMethodInfoINSt3__15tupleIJNSC_17InRawArgumentInfoILm8ELm8ELl0EEENSC_18BufferArgumentInfoILi0ELi70ELm0EEENSG_ILm8ELm8ELl8EEEEEELm16ELm0ELb0EEESL_E7ProcessEPNS2_23CmifDomainClientMessageISB_E15ProxyBaseObjectENS2_23InRawClientArgumentTypeILm8ELm8EvEENS2_24BufferClientArgumentTypeEST_j = 0x5899c
_ZN2nn2sf4cmif6client34CmifDomainProxyClientCoreProcessorINS0_4hipc6client38Hipc2ClientSessionManagedProxyKindBaseINS5_18Hipc2ProxyKindBaseILNS4_6detail11MessageTypeE4EEEEENS1_6detail14CoreMethodInfoINSt3__15tupleIJNSC_17InRawArgumentInfoILm8ELm8ELl0EEENSC_18BufferArgumentInfoILi0ELi69ELm0EEENSG_ILm8ELm8ELl8EEEEEELm16ELm0ELb0EEESL_E7ProcessEPNS2_23CmifDomainClientMessageISB_E15ProxyBaseObjectENS2_23InRawClientArgumentTypeILm8ELm8EvEENS2_24BufferClientArgumentTypeEST_j = 0x58b6c
_ZN2nn2sf4cmif6client34CmifDomainProxyClientCoreProcessorINS0_4hipc6client38Hipc2ClientSessionManagedProxyKindBaseINS5_18Hipc2ProxyKindBaseILNS4_6detail11MessageTypeE4EEEEENS1_6detail14CoreMethodInfoINSt3__15tupleIJNSC_21OutObjectArgumentInfoILi0ELi0EEENSC_18BufferArgumentInfoILi0ELi25ELm769EEEEEELm0ELm0ELb0EEESK_E21ProcessWithOutObjectsEPNS2_23CmifDomainClientMessageISB_E15ProxyBaseObjectENS2_27OutObjectClientArgumentTypeENS2_24BufferClientArgumentTypeEjPNS0_13SharedPointerINS0_14IServiceObjectEEE = 0x58d3c
_ZN2nn2sf4cmif6client34CmifDomainProxyClientCoreProcessorINS0_4hipc6client38Hipc2ClientSessionManagedProxyKindBaseINS5_18Hipc2ProxyKindBaseILNS4_6detail11MessageTypeE4EEEEENS1_6detail14CoreMethodInfoINSt3__15tupleIJNSC_17InRawArgumentInfoILm64ELm8ELl0EEENSG_ILm64ELm8ELl64EEENSG_ILm16ELm4ELl128EEEEEELm144ELm0ELb0EEESK_E7ProcessEPNS2_23CmifDomainClientMessageISB_E15ProxyBaseObjectENS2_23InRawClientArgumentTypeILm64ELm8EvEESS_NSR_ILm16ELm4EvEEj = 0x58f90
_ZN2nn2sf4cmif6client34CmifDomainProxyClientCoreProcessorINS0_4hipc6client38Hipc2ClientSessionManagedProxyKindBaseINS5_18Hipc2ProxyKindBaseILNS4_6detail11MessageTypeE4EEEEENS1_6detail14CoreMethodInfoINSt3__15tupleIJNSC_17InRawArgumentInfoILm64ELm8ELl0EEENSG_ILm64ELm8ELl64EEEEEELm128ELm0ELb0EEESJ_E7ProcessEPNS2_23CmifDomainClientMessageISB_E15ProxyBaseObjectENS2_23InRawClientArgumentTypeILm64ELm8EvEESR_j = 0x59128
_ZN2nn2sf4cmif6client34CmifDomainProxyClientCoreProcessorINS0_4hipc6client38Hipc2ClientSessionManagedProxyKindBaseINS5_18Hipc2ProxyKindBaseILNS4_6detail11MessageTypeE4EEEEENS1_6detail14CoreMethodInfoINSt3__15tupleIJNSC_18BufferArgumentInfoILi0ELi5ELm0EEEEEELm0ELm0ELb0EEESI_E7ProcessEPNS2_23CmifDomainClientMessageISB_E15ProxyBaseObjectENS2_24BufferClientArgumentTypeEj = 0x592a0
_ZN2nn2sf4cmif6client34CmifDomainProxyClientCoreProcessorINS0_4hipc6client38Hipc2ClientSessionManagedProxyKindBaseINS5_18Hipc2ProxyKindBaseILNS4_6detail11MessageTypeE4EEEEENS1_6detail14CoreMethodInfoINSt3__15tupleIJNSC_17InRawArgumentInfoILm1ELm1ELl0EEENSG_ILm8ELm8ELl8EEEEEELm16ELm0ELb0EEESJ_E7ProcessEPNS2_23CmifDomainClientMessageISB_E15ProxyBaseObjectENS2_23InRawClientArgumentTypeILm1ELm1EvEENSQ_ILm8ELm8EvEEj = 0x5945c
_ZN2nn2sf4cmif6client34CmifDomainProxyClientCoreProcessorINS0_4hipc6client38Hipc2ClientSessionManagedProxyKindBaseINS5_18Hipc2ProxyKindBaseILNS4_6detail11MessageTypeE4EEEEENS1_6detail14CoreMethodInfoINSt3__15tupleIJNSC_18OutRawArgumentInfoILm1ELm1ELl0EEEEEELm0ELm1ELb0EEESI_E7ProcessEPNS2_23CmifDomainClientMessageISB_E15ProxyBaseObjectENS2_24OutRawClientArgumentTypeILm1ELm1EEEj = 0x595ac
_ZN2nn2sf4cmif6client34CmifDomainProxyClientCoreProcessorINS0_4hipc6client38Hipc2ClientSessionManagedProxyKindBaseINS5_18Hipc2ProxyKindBaseILNS4_6detail11MessageTypeE4EEEEENS1_6detail14CoreMethodInfoINSt3__15tupleIJNSC_17InRawArgumentInfoILm1ELm1ELl0EEENSG_ILm64ELm8ELl8EEEEEELm72ELm0ELb0EEESJ_E7ProcessEPNS2_23CmifDomainClientMessageISB_E15ProxyBaseObjectENS2_23InRawClientArgumentTypeILm1ELm1EvEENSQ_ILm64ELm8EvEEj = 0x596f4
_ZN2nn2sf4cmif6client34CmifDomainProxyClientCoreProcessorINS0_4hipc6client38Hipc2ClientSessionManagedProxyKindBaseINS5_18Hipc2ProxyKindBaseILNS4_6detail11MessageTypeE4EEEEENS1_6detail14CoreMethodInfoINSt3__15tupleIJNSC_21OutObjectArgumentInfoILi0ELi0EEENSC_17InRawArgumentInfoILm4ELm4ELl0EEENSI_ILm4ELm4ELl4EEEEEELm8ELm0ELb0EEESL_E21ProcessWithOutObjectsEPNS2_23CmifDomainClientMessageISB_E15ProxyBaseObjectENS2_27OutObjectClientArgumentTypeENS2_23InRawClientArgumentTypeILm4ELm4EvEESU_jPNS0_13SharedPointerINS0_14IServiceObjectEEE = 0x5985c
_ZN2nn2sf4cmif6client34CmifDomainProxyClientCoreProcessorINS0_4hipc6client38Hipc2ClientSessionManagedProxyKindBaseINS5_18Hipc2ProxyKindBaseILNS4_6detail11MessageTypeE4EEEEENS1_6detail14CoreMethodInfoINSt3__15tupleIJNSC_17InRawArgumentInfoILm1ELm1ELl0EEENSG_ILm8ELm8ELl8EEENSG_ILm8ELm8ELl16EEENSG_ILm8ELm8ELl24EEEEEELm32ELm0ELb0EEESL_E7ProcessEPNS2_23CmifDomainClientMessageISB_E15ProxyBaseObjectENS2_23InRawClientArgumentTypeILm1ELm1EvEENSS_ILm8ELm8EvEESU_SU_j = 0x59a3c
_ZN2nn2sf4cmif6client34CmifDomainProxyClientCoreProcessorINS0_4hipc6client38Hipc2ClientSessionManagedProxyKindBaseINS5_18Hipc2ProxyKindBaseILNS4_6detail11MessageTypeE4EEEEENS1_6detail14CoreMethodInfoINSt3__15tupleIJNSC_21OutObjectArgumentInfoILi0ELi0EEENSC_17InRawArgumentInfoILm1ELm1ELl0EEENSI_ILm64ELm8ELl8EEEEEELm72ELm0ELb0EEESL_E21ProcessWithOutObjectsEPNS2_23CmifDomainClientMessageISB_E15ProxyBaseObjectENS2_27OutObjectClientArgumentTypeENS2_23InRawClientArgumentTypeILm1ELm1EvEENST_ILm64ELm8EvEEjPNS0_13SharedPointerINS0_14IServiceObjectEEE = 0x59ba4
_ZN2nn2sf4cmif6client34CmifDomainProxyClientCoreProcessorINS0_4hipc6client38Hipc2ClientSessionManagedProxyKindBaseINS5_18Hipc2ProxyKindBaseILNS4_6detail11MessageTypeE4EEEEENS1_6detail14CoreMethodInfoINSt3__15tupleIJNSC_18BufferArgumentInfoILi0ELi6ELm0EEENSC_17InRawArgumentInfoILm1ELm1ELl0EEENSI_ILm8ELm8ELl8EEEEEELm16ELm0ELb0EEESL_E7ProcessEPNS2_23CmifDomainClientMessageISB_E15ProxyBaseObjectENS2_24BufferClientArgumentTypeENS2_23InRawClientArgumentTypeILm1ELm1EvEENST_ILm8ELm8EvEEj = 0x59da4
_ZN2nn2sf4cmif6client34CmifDomainProxyClientCoreProcessorINS0_4hipc6client38Hipc2ClientSessionManagedProxyKindBaseINS5_18Hipc2ProxyKindBaseILNS4_6detail11MessageTypeE4EEEEENS1_6detail14CoreMethodInfoINSt3__15tupleIJNSC_18BufferArgumentInfoILi0ELi6ELm0EEENSC_17InRawArgumentInfoILm8ELm8ELl0EEEEEELm8ELm0ELb0EEESK_E7ProcessEPNS2_23CmifDomainClientMessageISB_E15ProxyBaseObjectENS2_24BufferClientArgumentTypeENS2_23InRawClientArgumentTypeILm8ELm8EvEEj = 0x59f7c
_ZN2nn2sf4cmif6client34CmifDomainProxyClientCoreProcessorINS0_4hipc6client38Hipc2ClientSessionManagedProxyKindBaseINS5_18Hipc2ProxyKindBaseILNS4_6detail11MessageTypeE4EEEEENS1_6detail14CoreMethodInfoINSt3__15tupleIJNSC_17InRawArgumentInfoILm8ELm8ELl8EEENSG_ILm1ELm1ELl0EEENSC_18BufferArgumentInfoILi0ELi5ELm0EEEEEELm16ELm0ELb0EEESL_E7ProcessEPNS2_23CmifDomainClientMessageISB_E15ProxyBaseObjectENS2_23InRawClientArgumentTypeILm8ELm8EvEENSS_ILm1ELm1EvEENS2_24BufferClientArgumentTypeEj = 0x5a148
_ZN2nn2sf4cmif6client34CmifDomainProxyClientCoreProcessorINS0_4hipc6client38Hipc2ClientSessionManagedProxyKindBaseINS5_18Hipc2ProxyKindBaseILNS4_6detail11MessageTypeE4EEEEENS1_6detail14CoreMethodInfoINSt3__15tupleIJNSC_21OutObjectArgumentInfoILi0ELi0EEENSC_17InRawArgumentInfoILm1ELm1ELl0EEEEEELm1ELm0ELb0EEESK_E21ProcessWithOutObjectsEPNS2_23CmifDomainClientMessageISB_E15ProxyBaseObjectENS2_27OutObjectClientArgumentTypeENS2_23InRawClientArgumentTypeILm1ELm1EvEEjPNS0_13SharedPointerINS0_14IServiceObjectEEE = 0x5a4b8
_ZN2nn2sf4cmif6client34CmifDomainProxyClientCoreProcessorINS0_4hipc6client38Hipc2ClientSessionManagedProxyKindBaseINS5_18Hipc2ProxyKindBaseILNS4_6detail11MessageTypeE4EEEEENS1_6detail14CoreMethodInfoINSt3__15tupleIJNSC_21OutObjectArgumentInfoILi0ELi0EEENSC_17InRawArgumentInfoILm1ELm1ELl0EEENSI_ILm64ELm8ELl8EEENSI_ILm4ELm4ELl4EEEEEELm72ELm0ELb0EEESM_E21ProcessWithOutObjectsEPNS2_23CmifDomainClientMessageISB_E15ProxyBaseObjectENS2_27OutObjectClientArgumentTypeENS2_23InRawClientArgumentTypeILm1ELm1EvEENSU_ILm64ELm8EvEENSU_ILm4ELm4EvEEjPNS0_13SharedPointerINS0_14IServiceObjectEEE = 0x5a68c
_ZN2nn2sf4cmif6client34CmifDomainProxyClientCoreProcessorINS0_4hipc6client38Hipc2ClientSessionManagedProxyKindBaseINS5_18Hipc2ProxyKindBaseILNS4_6detail11MessageTypeE4EEEEENS1_6detail14CoreMethodInfoINSt3__15tupleIJNSC_18BufferArgumentInfoILi0ELi6ELm0EEEEEELm0ELm0ELb0EEESI_E7ProcessEPNS2_23CmifDomainClientMessageISB_E15ProxyBaseObjectENS2_24BufferClientArgumentTypeEj = 0x5abc0
_ZN2nn2sf4cmif6client34CmifDomainProxyClientCoreProcessorINS0_4hipc6client38Hipc2ClientSessionManagedProxyKindBaseINS5_18Hipc2ProxyKindBaseILNS4_6detail11MessageTypeE4EEEEENS1_6detail14CoreMethodInfoINSt3__15tupleIJNSC_21OutObjectArgumentInfoILi0ELi0EEENSC_17InRawArgumentInfoILm1ELm1ELl0EEENSI_ILm8ELm8ELl8EEEEEELm16ELm0ELb0EEESL_E21ProcessWithOutObjectsEPNS2_23CmifDomainClientMessageISB_E15ProxyBaseObjectENS2_27OutObjectClientArgumentTypeENS2_23InRawClientArgumentTypeILm1ELm1EvEENST_ILm8ELm8EvEEjPNS0_13SharedPointerINS0_14IServiceObjectEEE = 0x5ad7c
_ZN2nn2sf4cmif6client34CmifDomainProxyClientCoreProcessorINS0_4hipc6client38Hipc2ClientSessionManagedProxyKindBaseINS5_18Hipc2ProxyKindBaseILNS4_6detail11MessageTypeE4EEEEENS1_6detail14CoreMethodInfoINSt3__15tupleIJNSC_18BufferArgumentInfoILi0ELi26ELm96EEEEEELm0ELm0ELb0EEESI_E7ProcessEPNS2_23CmifDomainClientMessageISB_E15ProxyBaseObjectENS2_24BufferClientArgumentTypeEj = 0x5b168
_ZN2nn2sf4cmif6client34CmifDomainProxyClientCoreProcessorINS0_4hipc6client38Hipc2ClientSessionManagedProxyKindBaseINS5_18Hipc2ProxyKindBaseILNS4_6detail11MessageTypeE4EEEEENS1_6detail14CoreMethodInfoINSt3__15tupleIJNSC_21OutObjectArgumentInfoILi0ELi0EEENSC_18OutRawArgumentInfoILm8ELm8ELl0EEENSC_18BufferArgumentInfoILi0ELi5ELm0EEENSC_17InRawArgumentInfoILm16ELm8ELl8EEENSM_ILm1ELm1ELl0EEEEEELm24ELm8ELb0EEESP_E21ProcessWithOutObjectsEPNS2_23CmifDomainClientMessageISB_E15ProxyBaseObjectENS2_27OutObjectClientArgumentTypeENS2_24OutRawClientArgumentTypeILm8ELm8EEENS2_24BufferClientArgumentTypeENS2_23InRawClientArgumentTypeILm16ELm8EvEENS10_ILm1ELm1EvEEjPNS0_13SharedPointerINS0_14IServiceObjectEEE = 0x5b320
_ZN2nn2sf4cmif6client34CmifDomainProxyClientCoreProcessorINS0_4hipc6client38Hipc2ClientSessionManagedProxyKindBaseINS5_18Hipc2ProxyKindBaseILNS4_6detail11MessageTypeE4EEEEENS1_6detail14CoreMethodInfoINSt3__15tupleIJNSC_21OutObjectArgumentInfoILi0ELi0EEENSC_17InRawArgumentInfoILm8ELm8ELl8EEENSI_ILm1ELm1ELl0EEEEEELm16ELm0ELb0EEESL_E21ProcessWithOutObjectsEPNS2_23CmifDomainClientMessageISB_E15ProxyBaseObjectENS2_27OutObjectClientArgumentTypeENS2_23InRawClientArgumentTypeILm8ELm8EvEENST_ILm1ELm1EvEEjPNS0_13SharedPointerINS0_14IServiceObjectEEE = 0x5b7ac
_ZN2nn2sf4cmif6client34CmifDomainProxyClientCoreProcessorINS0_4hipc6client38Hipc2ClientSessionManagedProxyKindBaseINS5_18Hipc2ProxyKindBaseILNS4_6detail11MessageTypeE4EEEEENS1_6detail14CoreMethodInfoINSt3__15tupleIJNSC_18OutRawArgumentInfoILm16ELm4ELl0EEENSG_ILm8ELm8ELl16EEENSC_18BufferArgumentInfoILi0ELi6ELm0EEENSC_17InRawArgumentInfoILm8ELm8ELl0EEEEEELm8ELm24ELb0EEESN_E7ProcessEPNS2_23CmifDomainClientMessageISB_E15ProxyBaseObjectENS2_24OutRawClientArgumentTypeILm16ELm4EEENSU_ILm8ELm8EEENS2_24BufferClientArgumentTypeENS2_23InRawClientArgumentTypeILm8ELm8EvEEj = 0x5c0a0
_ZN2nn2sf4cmif6client34CmifDomainProxyClientCoreProcessorINS0_4hipc6client38Hipc2ClientSessionManagedProxyKindBaseINS5_18Hipc2ProxyKindBaseILNS4_6detail11MessageTypeE4EEEEENS1_6detail14CoreMethodInfoINSt3__15tupleIJNSC_17InRawArgumentInfoILm4ELm4ELl0EEEEEELm4ELm0ELb0EEESI_E7ProcessEPNS2_23CmifDomainClientMessageISB_E15ProxyBaseObjectENS2_23InRawClientArgumentTypeILm4ELm4EvEEj = 0x5c298
_ZN2nn2sf4cmif6client34CmifDomainProxyClientCoreProcessorINS0_4hipc6client38Hipc2ClientSessionManagedProxyKindBaseINS5_18Hipc2ProxyKindBaseILNS4_6detail11MessageTypeE4EEEEENS1_6detail14CoreMethodInfoINSt3__15tupleIJNSC_18OutRawArgumentInfoILm8ELm8ELl0EEENSC_17InRawArgumentInfoILm4ELm4ELl0EEEEEELm4ELm8ELb0EEESK_E7ProcessEPNS2_23CmifDomainClientMessageISB_E15ProxyBaseObjectENS2_24OutRawClientArgumentTypeILm8ELm8EEENS2_23InRawClientArgumentTypeILm4ELm4EvEEj = 0x5c3d4
_ZN2nn2sf4cmif6client34CmifDomainProxyClientCoreProcessorINS0_4hipc6client38Hipc2ClientSessionManagedProxyKindBaseINS5_18Hipc2ProxyKindBaseILNS4_6detail11MessageTypeE4EEEEENS1_6detail14CoreMethodInfoINSt3__15tupleIJNSC_18OutRawArgumentInfoILm4ELm4ELl0EEEEEELm0ELm4ELb0EEESI_E7ProcessEPNS2_23CmifDomainClientMessageISB_E15ProxyBaseObjectENS2_24OutRawClientArgumentTypeILm4ELm4EEEj = 0x5c52c
_ZN2nn2sf4cmif6client34CmifDomainProxyClientCoreProcessorINS0_4hipc6client38Hipc2ClientSessionManagedProxyKindBaseINS5_18Hipc2ProxyKindBaseILNS4_6detail11MessageTypeE4EEEEENS1_6detail14CoreMethodInfoINSt3__15tupleIJNSC_17InRawArgumentInfoILm4ELm4ELl0EEENSG_ILm8ELm8ELl8EEEEEELm16ELm0ELb0EEESJ_E7ProcessEPNS2_23CmifDomainClientMessageISB_E15ProxyBaseObjectENS2_23InRawClientArgumentTypeILm4ELm4EvEENSQ_ILm8ELm8EvEEj = 0x5c674
_ZN2nn2sf4cmif6client34CmifDomainProxyClientCoreProcessorINS0_4hipc6client38Hipc2ClientSessionManagedProxyKindBaseINS5_18Hipc2ProxyKindBaseILNS4_6detail11MessageTypeE4EEEEENS1_6detail14CoreMethodInfoINSt3__15tupleIJNSC_18OutRawArgumentInfoILm4ELm4ELl0EEENSG_ILm8ELm8ELl8EEENSC_17InRawArgumentInfoILm4ELm4ELl0EEEEEELm4ELm16ELb0EEESL_E7ProcessEPNS2_23CmifDomainClientMessageISB_E15ProxyBaseObjectENS2_24OutRawClientArgumentTypeILm4ELm4EEENSS_ILm8ELm8EEENS2_23InRawClientArgumentTypeILm4ELm4EvEEj = 0x5c7c4
_ZN2nn2sf4cmif6client34CmifDomainProxyClientCoreProcessorINS0_4hipc6client38Hipc2ClientSessionManagedProxyKindBaseINS5_18Hipc2ProxyKindBaseILNS4_6detail11MessageTypeE4EEEEENS1_6detail14CoreMethodInfoINSt3__15tupleIJNSC_18OutRawArgumentInfoILm1ELm1ELl0EEENSC_17InRawArgumentInfoILm4ELm4ELl0EEEEEELm4ELm1ELb0EEESK_E7ProcessEPNS2_23CmifDomainClientMessageISB_E15ProxyBaseObjectENS2_24OutRawClientArgumentTypeILm1ELm1EEENS2_23InRawClientArgumentTypeILm4ELm4EvEEj = 0x5c928
_ZN2nn2sf4cmif6client34CmifDomainProxyClientCoreProcessorINS0_4hipc6client38Hipc2ClientSessionManagedProxyKindBaseINS5_18Hipc2ProxyKindBaseILNS4_6detail11MessageTypeE4EEEEENS1_6detail14CoreMethodInfoINSt3__15tupleIJNSC_18BufferArgumentInfoILi0ELi6ELm0EEENSC_17InRawArgumentInfoILm8ELm8ELl8EEENSI_ILm4ELm4ELl0EEEEEELm16ELm0ELb0EEESL_E7ProcessEPNS2_23CmifDomainClientMessageISB_E15ProxyBaseObjectENS2_24BufferClientArgumentTypeENS2_23InRawClientArgumentTypeILm8ELm8EvEENST_ILm4ELm4EvEEj = 0x5ca80
_ZN2nn2sf4cmif6client34CmifDomainProxyClientCoreProcessorINS0_4hipc6client38Hipc2ClientSessionManagedProxyKindBaseINS5_18Hipc2ProxyKindBaseILNS4_6detail11MessageTypeE4EEEEENS1_6detail14CoreMethodInfoINSt3__15tupleIJNSC_18BufferArgumentInfoILi0ELi6ELm0EEENSC_17InRawArgumentInfoILm8ELm8ELl0EEENSG_ILi1ELi5ELm0EEENSI_ILm8ELm8ELl8EEEEEELm16ELm0ELb0EEESM_E7ProcessEPNS2_23CmifDomainClientMessageISB_E15ProxyBaseObjectENS2_24BufferClientArgumentTypeENS2_23InRawClientArgumentTypeILm8ELm8EvEEST_SV_j = 0x5cc58
_ZN2nn2sf4cmif6client34CmifDomainProxyClientCoreProcessorINS0_4hipc6client38Hipc2ClientSessionManagedProxyKindBaseINS5_18Hipc2ProxyKindBaseILNS4_6detail11MessageTypeE4EEEEENS1_6detail14CoreMethodInfoINSt3__15tupleIJNSC_17InRawArgumentInfoILm8ELm8ELl0EEENSC_18BufferArgumentInfoILi0ELi6ELm0EEENSG_ILm8ELm8ELl8EEEEEELm16ELm0ELb0EEESL_E7ProcessEPNS2_23CmifDomainClientMessageISB_E15ProxyBaseObjectENS2_23InRawClientArgumentTypeILm8ELm8EvEENS2_24BufferClientArgumentTypeEST_j = 0x5ce48
_ZN2nn2sf4cmif6client34CmifDomainProxyClientCoreProcessorINS0_4hipc6client38Hipc2ClientSessionManagedProxyKindBaseINS5_18Hipc2ProxyKindBaseILNS4_6detail11MessageTypeE4EEEEENS1_6detail14CoreMethodInfoINSt3__15tupleIJNSC_17InRawArgumentInfoILm1ELm1ELl0EEEEEELm1ELm0ELb0EEESI_E7ProcessEPNS2_23CmifDomainClientMessageISB_E15ProxyBaseObjectENS2_23InRawClientArgumentTypeILm1ELm1EvEEj = 0x5d018
_ZN2nn2sf4cmif6client34CmifDomainProxyClientCoreProcessorINS0_4hipc6client38Hipc2ClientSessionManagedProxyKindBaseINS5_18Hipc2ProxyKindBaseILNS4_6detail11MessageTypeE4EEEEENS1_6detail14CoreMethodInfoINSt3__15tupleIJNSC_18BufferArgumentInfoILi0ELi5ELm0EEENSC_17InRawArgumentInfoILm8ELm8ELl0EEEEEELm8ELm0ELb0EEESK_E7ProcessEPNS2_23CmifDomainClientMessageISB_E15ProxyBaseObjectENS2_24BufferClientArgumentTypeENS2_23InRawClientArgumentTypeILm8ELm8EvEEj = 0x5d154
_ZN2nn2sf4cmif6client34CmifDomainProxyClientCoreProcessorINS0_4hipc6client38Hipc2ClientSessionManagedProxyKindBaseINS5_18Hipc2ProxyKindBaseILNS4_6detail11MessageTypeE4EEEEENS1_6detail14CoreMethodInfoINSt3__15tupleIJNSC_18OutRawArgumentInfoILm16ELm2ELl0EEEEEELm0ELm16ELb0EEESI_E7ProcessEPNS2_23CmifDomainClientMessageISB_E15ProxyBaseObjectENS2_24OutRawClientArgumentTypeILm16ELm2EEEj = 0x5d320
_ZN2nn2sf4cmif6client34CmifDomainProxyClientCoreProcessorINS0_4hipc6client38Hipc2ClientSessionManagedProxyKindBaseINS5_18Hipc2ProxyKindBaseILNS4_6detail11MessageTypeE4EEEEENS1_6detail14CoreMethodInfoINSt3__15tupleIJNSC_18OutRawArgumentInfoILm64ELm4ELl0EEEEEELm0ELm64ELb0EEESI_E7ProcessEPNS2_23CmifDomainClientMessageISB_E15ProxyBaseObjectENS2_24OutRawClientArgumentTypeILm64ELm4EEEj = 0x5d470
_ZN2nn2sf4cmif6client34CmifDomainProxyClientCoreProcessorINS0_4hipc6client38Hipc2ClientSessionManagedProxyKindBaseINS5_18Hipc2ProxyKindBaseILNS4_6detail11MessageTypeE4EEEEENS1_6detail14CoreMethodInfoINSt3__15tupleIJNSC_21OutHandleArgumentInfoILi0ELi1EEEEEELm0ELm0ELb0EEESI_E7ProcessEPNS2_23CmifDomainClientMessageISB_E15ProxyBaseObjectENS2_27OutHandleClientArgumentTypeEj = 0x5d750
_ZN2nn2sf4hipc6client28Hipc2ClientCoreProcessorImpl19GetOutNativeHandlesEPNS1_6detail17HipcMessageReaderEiiPNS0_12NativeHandleEPKi = 0x5d8f4
_ZN2nn2sf4cmif6client34CmifDomainProxyClientCoreProcessorINS0_4hipc6client38Hipc2ClientSessionManagedProxyKindBaseINS5_18Hipc2ProxyKindBaseILNS4_6detail11MessageTypeE4EEEEENS1_6detail14CoreMethodInfoINSt3__15tupleIJNSC_18OutRawArgumentInfoILm8ELm8ELl0EEENSC_17InRawArgumentInfoILm8ELm8ELl0EEENSI_ILm8ELm8ELl8EEEEEELm16ELm8ELb0EEESL_E7ProcessEPNS2_23CmifDomainClientMessageISB_E15ProxyBaseObjectENS2_24OutRawClientArgumentTypeILm8ELm8EEENS2_23InRawClientArgumentTypeILm8ELm8EvEESV_j = 0x5d9ec
_ZN2nn2sf4cmif6client34CmifDomainProxyClientCoreProcessorINS0_4hipc6client38Hipc2ClientSessionManagedProxyKindBaseINS5_18Hipc2ProxyKindBaseILNS4_6detail11MessageTypeE4EEEEENS1_6detail14CoreMethodInfoINSt3__15tupleIJNSC_17InRawArgumentInfoILm8ELm8ELl0EEENSC_18BufferArgumentInfoILi0ELi6ELm0EEEEEELm8ELm0ELb0EEESK_E7ProcessEPNS2_23CmifDomainClientMessageISB_E15ProxyBaseObjectENS2_23InRawClientArgumentTypeILm8ELm8EvEENS2_24BufferClientArgumentTypeEj = 0x5db48
_ZN2nn2sf4cmif6client34CmifDomainProxyClientCoreProcessorINS0_4hipc6client38Hipc2ClientSessionManagedProxyKindBaseINS5_18Hipc2ProxyKindBaseILNS4_6detail11MessageTypeE4EEEEENS1_6detail14CoreMethodInfoINSt3__15tupleIJNSC_18OutRawArgumentInfoILm16ELm8ELl0EEENSC_17InRawArgumentInfoILm8ELm8ELl8EEENSI_ILm1ELm1ELl0EEEEEELm16ELm16ELb0EEESL_E7ProcessEPNS2_23CmifDomainClientMessageISB_E15ProxyBaseObjectENS2_24OutRawClientArgumentTypeILm16ELm8EEENS2_23InRawClientArgumentTypeILm8ELm8EvEENSU_ILm1ELm1EvEEj = 0x5dd14
_ZN2nn2sf4cmif6client34CmifDomainProxyClientCoreProcessorINS0_4hipc6client38Hipc2ClientSessionManagedProxyKindBaseINS5_18Hipc2ProxyKindBaseILNS4_6detail11MessageTypeE4EEEEENS1_6detail14CoreMethodInfoINSt3__15tupleIJNSC_17InRawArgumentInfoILm16ELm8ELl0EEENSG_ILm16ELm1ELl16EEEEEELm32ELm0ELb0EEESJ_E7ProcessEPNS2_23CmifDomainClientMessageISB_E15ProxyBaseObjectENS2_23InRawClientArgumentTypeILm16ELm8EvEENSQ_ILm16ELm1EvEEj = 0x5de80
_ZN2nn2sf4cmif6client34CmifDomainProxyClientCoreProcessorINS0_4hipc6client38Hipc2ClientSessionManagedProxyKindBaseINS5_18Hipc2ProxyKindBaseILNS4_6detail11MessageTypeE4EEEEENS1_6detail14CoreMethodInfoINSt3__15tupleIJNSC_18OutRawArgumentInfoILm16ELm8ELl0EEENSC_18BufferArgumentInfoILi0ELi25ELm769EEEEEELm0ELm16ELb0EEESK_E7ProcessEPNS2_23CmifDomainClientMessageISB_E15ProxyBaseObjectENS2_24OutRawClientArgumentTypeILm16ELm8EEENS2_24BufferClientArgumentTypeEj = 0x5dfe8
_ZN2nn2sf4cmif6client34CmifDomainProxyClientCoreProcessorINS0_4hipc6client38Hipc2ClientSessionManagedProxyKindBaseINS5_18Hipc2ProxyKindBaseILNS4_6detail11MessageTypeE4EEEEENS1_6detail14CoreMethodInfoINSt3__15tupleIJNSC_18OutRawArgumentInfoILm16ELm8ELl8EEENSG_ILm1ELm1ELl0EEENSC_18BufferArgumentInfoILi0ELi25ELm769EEEEEELm0ELm24ELb0EEESL_E7ProcessEPNS2_23CmifDomainClientMessageISB_E15ProxyBaseObjectENS2_24OutRawClientArgumentTypeILm16ELm8EEENSS_ILm1ELm1EEENS2_24BufferClientArgumentTypeEj = 0x5e1c8
_ZN2nn2sf4cmif6client34CmifDomainProxyClientCoreProcessorINS0_4hipc6client38Hipc2ClientSessionManagedProxyKindBaseINS5_18Hipc2ProxyKindBaseILNS4_6detail11MessageTypeE4EEEEENS1_6detail14CoreMethodInfoINSt3__15tupleIJNSC_17InRawArgumentInfoILm8ELm8ELl8EEENSG_ILm4ELm4ELl0EEEEEELm16ELm0ELb0EEESJ_E7ProcessEPNS2_23CmifDomainClientMessageISB_E15ProxyBaseObjectENS2_23InRawClientArgumentTypeILm8ELm8EvEENSQ_ILm4ELm4EvEEj = 0x5e3b4
_ZN2nn2sf4cmif6client34CmifDomainProxyClientCoreProcessorINS0_4hipc6client38Hipc2ClientSessionManagedProxyKindBaseINS5_18Hipc2ProxyKindBaseILNS4_6detail11MessageTypeE4EEEEENS1_6detail14CoreMethodInfoINSt3__15tupleIJNSC_18OutRawArgumentInfoILm8ELm8ELl0EEENSC_17InRawArgumentInfoILm1ELm1ELl0EEEEEELm1ELm8ELb0EEESK_E7ProcessEPNS2_23CmifDomainClientMessageISB_E15ProxyBaseObjectENS2_24OutRawClientArgumentTypeILm8ELm8EEENS2_23InRawClientArgumentTypeILm1ELm1EvEEj = 0x5e504
_ZN2nn2sf4cmif6client34CmifDomainProxyClientCoreProcessorINS0_4hipc6client38Hipc2ClientSessionManagedProxyKindBaseINS5_18Hipc2ProxyKindBaseILNS4_6detail11MessageTypeE4EEEEENS1_6detail14CoreMethodInfoINSt3__15tupleIJNSC_17InRawArgumentInfoILm1ELm1ELl0EEENSG_ILm8ELm8ELl8EEENSC_18BufferArgumentInfoILi0ELi6ELm0EEEEEELm16ELm0ELb0EEESL_E7ProcessEPNS2_23CmifDomainClientMessageISB_E15ProxyBaseObjectENS2_23InRawClientArgumentTypeILm1ELm1EvEENSS_ILm8ELm8EvEENS2_24BufferClientArgumentTypeEj = 0x5e65c
_ZN2nn2sf4cmif6client34CmifDomainProxyClientCoreProcessorINS0_4hipc6client38Hipc2ClientSessionManagedProxyKindBaseINS5_18Hipc2ProxyKindBaseILNS4_6detail11MessageTypeE4EEEEENS1_6detail14CoreMethodInfoINSt3__15tupleIJNSC_17InRawArgumentInfoILm16ELm1ELl0EEEEEELm16ELm0ELb0EEESI_E7ProcessEPNS2_23CmifDomainClientMessageISB_E15ProxyBaseObjectENS2_23InRawClientArgumentTypeILm16ELm1EvEEj = 0x5e834
_ZN2nn2sf4cmif6client34CmifDomainProxyClientCoreProcessorINS0_4hipc6client38Hipc2ClientSessionManagedProxyKindBaseINS5_18Hipc2ProxyKindBaseILNS4_6detail11MessageTypeE4EEEEENS1_6detail14CoreMethodInfoINSt3__15tupleIJNSC_18OutRawArgumentInfoILm128ELm4ELl0EEEEEELm0ELm128ELb0EEESI_E7ProcessEPNS2_23CmifDomainClientMessageISB_E15ProxyBaseObjectENS2_24OutRawClientArgumentTypeILm128ELm4EEEj = 0x5e97c
_ZN2nn2sf4cmif6client34CmifDomainProxyClientCoreProcessorINS0_4hipc6client38Hipc2ClientSessionManagedProxyKindBaseINS5_18Hipc2ProxyKindBaseILNS4_6detail11MessageTypeE4EEEEENS1_6detail14CoreMethodInfoINSt3__15tupleIJNSC_17InRawArgumentInfoILm4ELm4ELl0EEENSC_18BufferArgumentInfoILi0ELi25ELm769EEEEEELm4ELm0ELb0EEESK_E7ProcessEPNS2_23CmifDomainClientMessageISB_E15ProxyBaseObjectENS2_23InRawClientArgumentTypeILm4ELm4EvEENS2_24BufferClientArgumentTypeEj = 0x5eacc
_ZN2nn2sf4cmif6client34CmifDomainProxyClientCoreProcessorINS0_4hipc6client38Hipc2ClientSessionManagedProxyKindBaseINS5_18Hipc2ProxyKindBaseILNS4_6detail11MessageTypeE4EEEEENS1_6detail14CoreMethodInfoINSt3__15tupleIJNSC_17InRawArgumentInfoILm8ELm8ELl0EEENSG_ILm8ELm8ELl8EEEEEELm16ELm0ELb0EEESJ_E7ProcessEPNS2_23CmifDomainClientMessageISB_E15ProxyBaseObjectENS2_23InRawClientArgumentTypeILm8ELm8EvEESR_j = 0x5ec98
_ZN2nn2sf4cmif6client34CmifDomainProxyClientCoreProcessorINS0_4hipc6client38Hipc2ClientSessionManagedProxyKindBaseINS5_18Hipc2ProxyKindBaseILNS4_6detail11MessageTypeE4EEEEENS1_6detail14CoreMethodInfoINSt3__15tupleIJNSC_18OutRawArgumentInfoILm128ELm8ELl0EEEEEELm0ELm128ELb0EEESI_E7ProcessEPNS2_23CmifDomainClientMessageISB_E15ProxyBaseObjectENS2_24OutRawClientArgumentTypeILm128ELm8EEEj = 0x5ede0
_ZN2nn2sf4cmif6client34CmifDomainProxyClientCoreProcessorINS0_4hipc6client38Hipc2ClientSessionManagedProxyKindBaseINS5_18Hipc2ProxyKindBaseILNS4_6detail11MessageTypeE4EEEEENS1_6detail14CoreMethodInfoINSt3__15tupleIJNSC_21OutObjectArgumentInfoILi0ELi0EEENSC_18BufferArgumentInfoILi0ELi25ELm769EEENSC_17InRawArgumentInfoILm8ELm8ELl0EEEEEELm8ELm0ELb0EEESM_E21ProcessWithOutObjectsEPNS2_23CmifDomainClientMessageISB_E15ProxyBaseObjectENS2_27OutObjectClientArgumentTypeENS2_24BufferClientArgumentTypeENS2_23InRawClientArgumentTypeILm8ELm8EvEEjPNS0_13SharedPointerINS0_14IServiceObjectEEE = 0x5f0bc
_ZN2nn2sf4cmif6client34CmifDomainProxyClientCoreProcessorINS0_4hipc6client38Hipc2ClientSessionManagedProxyKindBaseINS5_18Hipc2ProxyKindBaseILNS4_6detail11MessageTypeE4EEEEENS1_6detail14CoreMethodInfoINSt3__15tupleIJNSC_18OutRawArgumentInfoILm1ELm1ELl0EEENSC_17InRawArgumentInfoILm8ELm8ELl0EEEEEELm8ELm1ELb0EEESK_E7ProcessEPNS2_23CmifDomainClientMessageISB_E15ProxyBaseObjectENS2_24OutRawClientArgumentTypeILm1ELm1EEENS2_23InRawClientArgumentTypeILm8ELm8EvEEj = 0x5f320
_ZN2nn2sf4cmif6client34CmifDomainProxyClientCoreProcessorINS0_4hipc6client38Hipc2ClientSessionManagedProxyKindBaseINS5_18Hipc2ProxyKindBaseILNS4_6detail11MessageTypeE4EEEEENS1_6detail14CoreMethodInfoINSt3__15tupleIJNSC_17InRawArgumentInfoILm8ELm8ELl8EEENSG_ILm8ELm8ELl16EEENSG_ILm1ELm1ELl0EEENSC_18BufferArgumentInfoILi0ELi5ELm0EEENSG_ILm8ELm8ELl24EEENSK_ILi1ELi5ELm0EEENSG_ILm8ELm8ELl32EEEEEELm40ELm0ELb0EEESP_E7ProcessEPNS2_23CmifDomainClientMessageISB_E15ProxyBaseObjectENS2_23InRawClientArgumentTypeILm8ELm8EvEESX_NSW_ILm1ELm1EvEENS2_24BufferClientArgumentTypeESX_SZ_SX_j = 0x5f5c8
_ZN2nn2fs6detail24FileServiceObjectAdapterC1EONS_2sf13SharedPointerINS_5fssrv2sf5IFileEEE = 0x5f7f8
_ZN2nn2fs6detail24FileServiceObjectAdapterD1Ev = 0x5f828
_ZN2nn2fs6detail24FileServiceObjectAdapterD0Ev = 0x5f850
_ZN2nn2fs6detail24FileServiceObjectAdapter6DoReadEPmlPvmRKNS0_10ReadOptionE = 0x5f898
_ZN2nn2fs6detail24FileServiceObjectAdapter7DoWriteElPKvmRKNS0_11WriteOptionE = 0x5f8f8
_ZN2nn2fs6detail24FileServiceObjectAdapter7DoFlushEv = 0x5f930
_ZN2nn2fs6detail24FileServiceObjectAdapter9DoSetSizeEl = 0x5f954
_ZN2nn2fs6detail24FileServiceObjectAdapter9DoGetSizeEPl = 0x5f978
_ZN2nn2fs6detail24FileServiceObjectAdapter14DoOperateRangeEPvmNS0_11OperationIdEllPKvm = 0x5f99c
_ZN2nn2fs6detail29DirectoryServiceObjectAdapterC2EONS_2sf13SharedPointerINS_5fssrv2sf10IDirectoryEEE = 0x5f9f4
_ZN2nn2fs6detail29DirectoryServiceObjectAdapterD2Ev = 0x5fa24
_ZN2nn2fs6detail29DirectoryServiceObjectAdapterD0Ev = 0x5fa4c
_ZN2nn2fs6detail29DirectoryServiceObjectAdapter6DoReadEPlPNS0_14DirectoryEntryEl = 0x5fa94
_ZN2nn2fs6detail29DirectoryServiceObjectAdapter15DoGetEntryCountEPl = 0x5fad0
_ZN2nn2fs6detail30FileSystemServiceObjectAdapterC1EONS_2sf13SharedPointerINS_5fssrv2sf11IFileSystemEEE = 0x5faf4
_ZN2nn2fs6detail30FileSystemServiceObjectAdapterD2Ev = 0x5fb24
_ZN2nn2fs6detail30FileSystemServiceObjectAdapterD0Ev = 0x5fb4c
_ZN2nn2fs6detail30FileSystemServiceObjectAdapter12DoCreateFileEPKcli = 0x5fb94
_ZN2nn2fs6detail30FileSystemServiceObjectAdapter12DoDeleteFileEPKc = 0x5fc60
_ZN2nn2fs6detail30FileSystemServiceObjectAdapter17DoCreateDirectoryEPKc = 0x5fd14
_ZN2nn2fs6detail30FileSystemServiceObjectAdapter17DoDeleteDirectoryEPKc = 0x5fdc8
_ZN2nn2fs6detail30FileSystemServiceObjectAdapter28DoDeleteDirectoryRecursivelyEPKc = 0x5fe7c
_ZN2nn2fs6detail30FileSystemServiceObjectAdapter27DoCleanDirectoryRecursivelyEPKc = 0x5ff30
_ZN2nn2fs6detail30FileSystemServiceObjectAdapter12DoRenameFileEPKcS4_ = 0x5ffe4
_ZN2nn2fs6detail30FileSystemServiceObjectAdapter17DoRenameDirectoryEPKcS4_ = 0x6011c
_ZN2nn2fs6detail30FileSystemServiceObjectAdapter14DoGetEntryTypeEPNS0_18DirectoryEntryTypeEPKc = 0x60254
_ZN2nn2fs6detail30FileSystemServiceObjectAdapter18DoGetFreeSpaceSizeEPlPKc = 0x60318
_ZN2nn2fs6detail30FileSystemServiceObjectAdapter19DoGetTotalSpaceSizeEPlPKc = 0x603dc
_ZN2nn2fs6detail30FileSystemServiceObjectAdapter10DoOpenFileEPNSt3__110unique_ptrINS0_3fsa5IFileENS3_14default_deleteIS6_EEEEPKcNS0_8OpenModeE = 0x604a0
_ZN2nn2fs6detail30FileSystemServiceObjectAdapter15DoOpenDirectoryEPNSt3__110unique_ptrINS0_3fsa10IDirectoryENS3_14default_deleteIS6_EEEEPKcNS0_17OpenDirectoryModeE = 0x60610
_ZN2nn2fs6detail30FileSystemServiceObjectAdapter8DoCommitEv = 0x60780
_ZN2nn2fs6detail30FileSystemServiceObjectAdapter21DoGetFileTimeStampRawEPNS0_16FileTimeStampRawEPKc = 0x607a4
_ZN2nn2fs6detail30FileSystemServiceObjectAdapter12DoQueryEntryEPcmPKcmNS0_3fsa7QueryIdES5_ = 0x60868
_ZN2nn2fs17GetGameCardHandleEPj = 0x60958
_ZN2nn2fs34OpenGameCardDetectionEventNotifierEPNSt3__110unique_ptrINS0_14IEventNotifierENS1_14default_deleteIS3_EEEE = 0x60a88
_ZN2nn2fs18IsGameCardInsertedEv = 0x60bd0
_ZN2nn2fs21OpenGameCardPartitionEPNSt3__110unique_ptrINS0_8IStorageENS1_14default_deleteIS3_EEEEjNS0_20GameCardPartitionRawE = 0x60cd4
_ZN2nn2fs13EraseGameCardENS0_12GameCardSizeEm = 0x60e24
_ZN2nn2fs22MountGameCardPartitionEPKcjNS0_17GameCardPartitionE = 0x60f58
_ZN2nn2fs30GetGameCardUpdatePartitionInfoEPNS0_27GameCardUpdatePartitionInfoEj = 0x61120
_ZN2nn2fs22FinalizeGameCardDriverEv = 0x61264
_ZN2nn2fs20GetGameCardAttributeEPNS0_17GameCardAttributeEj = 0x61354
_ZN2nn2fs28GetGameCardDeviceCertificateEPvmj = 0x61480
_ZN2nn2fs19GetGameCardAsicInfoEPNS_2gc14RmaInformationEPKvm = 0x615c8
_ZN2nn2fs16GetGameCardIdSetEPNS_2gc13GameCardIdSetE = 0x61730
_ZN2nn2fs14GetGameCardCidEPvm = 0x61870
_ZN2nn2fs15WriteToGameCardElPvm = 0x619e4
_ZN2nn2fs25SetVerifyWriteEnalbleFlagEb = 0x61b2c
_ZN2nn2fs20GetGameCardImageHashEPvmj = 0x61c58
_ZN2nn2fs30GetGameCardDeviceIdForProdCardEPvmS1_m = 0x61da0
_ZN2nn2fs26EraseAndWriteParamDirectlyEPvm = 0x61ef4
_ZN2nn2fs17ReadParamDirectlyEPvm = 0x6202c
_ZN2nn2fs18ForceEraseGameCardEv = 0x62164
_ZN2nn2fs20GetGameCardErrorInfoEPNS0_17GameCardErrorInfoE = 0x62280
_ZN2nn2fs26GetGameCardErrorReportInfoEPNS0_23GameCardErrorReportInfoE = 0x623b8
_ZN2nn2fs34CheckGameCardPartitionAvailabilityEjNS0_17GameCardPartitionE = 0x624f0
_ZN2nn2fs19GetGameCardDeviceIdEPvm = 0x625d8
_ZN2nn2fs9MountHostEPKcS2_ = 0x62804
_ZN2nn2fs13MountHostRootEv = 0x62ac4
_ZN2nn2fs15UnmountHostRootEv = 0x62c64
_ZN2nn2fs6detail18OpenHostFileSystemEPNSt3__110unique_ptrINS0_3fsa11IFileSystemENS2_14default_deleteIS5_EEEEPKcSB_ = 0x62c70
_ZN2nn2fs19MountImageDirectoryEPKcNS0_16ImageDirectoryIdE = 0x62fc4
_ZN2nn2fs6detail27InitializeFileSystemLibraryEv = 0x6312c
_ZN2nn2fs17IsArchivedProgramEPbNS_2os9ProcessIdE = 0x63170
_ZN2nn2fs9MountLogoEPKcS2_NS_3ncm9ProgramIdE = 0x63234
_ZN2nn2fs12SetAllocatorEPFPvmEPFvS1_mE = 0x633e4
_ZN2nn2fs6detail8AllocateEm = 0x63560
_ZN2nn2fs6detail10DeallocateEPvm = 0x635b4
_ZN2nn2fs27GetAndClearMemoryReportInfoEPNS0_16MemoryReportInfoE = 0x6362c
_ZN2nn2fs15GetMmcSpeedModeEPNS0_12MmcSpeedModeE = 0x6372c
_ZN2nn2fs9GetMmcCidEPvm = 0x63890
_ZN2nn2fs8EraseMmcENS0_12MmcPartitionE = 0x639f8
_ZN2nn2fs19GetMmcPartitionSizeEPlNS0_12MmcPartitionE = 0x63b24
_ZN2nn2fs17GetMmcPatrolCountEPj = 0x63c88
_ZN2nn2fs23GetAndClearMmcErrorInfoEPNS0_16StorageErrorInfoEPmPcm = 0x63de4
_ZN2nn2fs17GetMmcExtendedCsdEPvm = 0x63f68
_ZN2nn2fs16SuspendMmcPatrolEv = 0x640d0
_ZN2nn2fs15ResumeMmcPatrolEv = 0x641ec
_ZN2nn2fs19SetCurrentPosixTimeENS_4time9PosixTimeEi = 0x64308
_ZN2nn2fs15RegisterProgramEmmhPKvmS2_m = 0x643cc
_ZN2nn2fs17UnregisterProgramEm = 0x64528
_ZN2nn2fs29SetEnabledProgramVerificationEb = 0x645c0
_ZN2nn2fs23RegisterUpdatePartitionEv = 0x64658
_ZN2nn2fs30MountRegisteredUpdatePartitionEPKc = 0x6470c
_ZN2nn2fs11GetRightsIdEPNS0_8RightsIdENS_3ncm9ProgramIdENS3_9StorageIdE = 0x64910
_ZN2nn2fs11GetRightsIdEPNS0_8RightsIdEPKc = 0x64a20
_ZN2nn2fs11GetRightsIdEPNS0_8RightsIdEPhPKc = 0x64b8c
_ZN2nn2fs19RegisterExternalKeyERKNS0_8RightsIdERKNS_3spl9AccessKeyE = 0x64d04
_ZN2nn2fs24UnregisterAllExternalKeyEv = 0x64dc8
_ZN2nn2fs22QueryMountRomCacheSizeEPm = 0x64e7c
_ZN2nn2fs22QueryMountRomCacheSizeEPmNS_13ApplicationIdE = 0x650e0
_ZN2nn2fs8MountRomEPKcPvm = 0x6534c
_ZN2nn2fs8MountRomEPKcNS_13ApplicationIdEPvm = 0x65494
_ZN2nn2fs19CanMountRomForDebugEv = 0x655e8
_ZN2nn2fs11CanMountRomENS_13ApplicationIdE = 0x6567c
_ZN2nn2fs26ReadOnlyFileSystemTemplateINSt3__110unique_ptrINS0_3fsa11IFileSystemENS2_14default_deleteIS5_EEEEED2Ev = 0x65b08
_ZN2nn2fs26ReadOnlyFileSystemTemplateINSt3__110unique_ptrINS0_3fsa11IFileSystemENS2_14default_deleteIS5_EEEEED0Ev = 0x65b34
_ZN2nn2fs26ReadOnlyFileSystemTemplateINSt3__110unique_ptrINS0_3fsa11IFileSystemENS2_14default_deleteIS5_EEEEE12DoCreateFileEPKcli = 0x65b7c
_ZN2nn2fs26ReadOnlyFileSystemTemplateINSt3__110unique_ptrINS0_3fsa11IFileSystemENS2_14default_deleteIS5_EEEEE12DoDeleteFileEPKc = 0x65b88
_ZN2nn2fs26ReadOnlyFileSystemTemplateINSt3__110unique_ptrINS0_3fsa11IFileSystemENS2_14default_deleteIS5_EEEEE17DoCreateDirectoryEPKc = 0x65b94
_ZN2nn2fs26ReadOnlyFileSystemTemplateINSt3__110unique_ptrINS0_3fsa11IFileSystemENS2_14default_deleteIS5_EEEEE17DoDeleteDirectoryEPKc = 0x65ba0
_ZN2nn2fs26ReadOnlyFileSystemTemplateINSt3__110unique_ptrINS0_3fsa11IFileSystemENS2_14default_deleteIS5_EEEEE28DoDeleteDirectoryRecursivelyEPKc = 0x65bac
_ZN2nn2fs26ReadOnlyFileSystemTemplateINSt3__110unique_ptrINS0_3fsa11IFileSystemENS2_14default_deleteIS5_EEEEE27DoCleanDirectoryRecursivelyEPKc = 0x65bb8
_ZN2nn2fs26ReadOnlyFileSystemTemplateINSt3__110unique_ptrINS0_3fsa11IFileSystemENS2_14default_deleteIS5_EEEEE12DoRenameFileEPKcSB_ = 0x65bc4
_ZN2nn2fs26ReadOnlyFileSystemTemplateINSt3__110unique_ptrINS0_3fsa11IFileSystemENS2_14default_deleteIS5_EEEEE17DoRenameDirectoryEPKcSB_ = 0x65bd0
_ZN2nn2fs26ReadOnlyFileSystemTemplateINSt3__110unique_ptrINS0_3fsa11IFileSystemENS2_14default_deleteIS5_EEEEE14DoGetEntryTypeEPNS0_18DirectoryEntryTypeEPKc = 0x65bdc
_ZN2nn2fs26ReadOnlyFileSystemTemplateINSt3__110unique_ptrINS0_3fsa11IFileSystemENS2_14default_deleteIS5_EEEEE18DoGetFreeSpaceSizeEPlPKc = 0x65c20
_ZN2nn2fs26ReadOnlyFileSystemTemplateINSt3__110unique_ptrINS0_3fsa11IFileSystemENS2_14default_deleteIS5_EEEEE19DoGetTotalSpaceSizeEPlPKc = 0x65c2c
_ZN2nn2fs26ReadOnlyFileSystemTemplateINSt3__110unique_ptrINS0_3fsa11IFileSystemENS2_14default_deleteIS5_EEEEE10DoOpenFileEPNS3_INS4_5IFileENS6_ISA_EEEEPKcNS0_8OpenModeE = 0x65c38
_ZN2nn2fs26ReadOnlyFileSystemTemplateINSt3__110unique_ptrINS0_3fsa11IFileSystemENS2_14default_deleteIS5_EEEEE15DoOpenDirectoryEPNS3_INS4_10IDirectoryENS6_ISA_EEEEPKcNS0_17OpenDirectoryModeE = 0x65d20
_ZN2nn2fs26ReadOnlyFileSystemTemplateINSt3__110unique_ptrINS0_3fsa11IFileSystemENS2_14default_deleteIS5_EEEEE8DoCommitEv = 0x65d7c
_ZN2nn2fs28QueryMountRomOnFileCacheSizeEPmNS0_10FileHandleE = 0x65ef4
_ZN2nn2fs14MountRomOnFileEPKcNS0_10FileHandleEPvm = 0x660c4
_ZN2nn2fs13MountSaveDataEPKcNS0_6UserIdE = 0x6625c
_ZN2nn2fs13MountSaveDataEPKcNS_3ncm13ApplicationIdENS0_6UserIdE = 0x66368
_ZN2nn2fs21MountSaveDataReadOnlyEPKcNS_3ncm13ApplicationIdENS0_6UserIdE = 0x664a4
_ZN2nn2fs18IsSaveDataExistingERKNS0_6UserIdE = 0x665e0
_ZN2nn2fs18IsSaveDataExistingENS_3ncm13ApplicationIdERKNS0_6UserIdE = 0x665f0
_ZN2nn2fs21MountTemporaryStorageEPKc = 0x66720
_ZN2nn2fs17MountCacheStorageEPKc = 0x66838
_ZN2nn2fs17MountCacheStorageEPKcNS_3ncm13ApplicationIdE = 0x66950
_ZN2nn2fs19SetSaveDataRootPathEPKc = 0x66db8
_ZN2nn2fs21MountSaveDataForDebugEPKc = 0x66f68
_ZN2nn2fs6detail31ReadSaveDataFileSystemExtraDataEPNS0_17SaveDataExtraDataENS0_15SaveDataSpaceIdEm = 0x66f88
_ZN2nn2fs14DeleteSaveDataEm = 0x67064
_ZN2nn2fs14DeleteSaveDataENS0_15SaveDataSpaceIdEm = 0x671a4
_ZN2nn2fs20DeleteSystemSaveDataENS0_15SaveDataSpaceIdEmRKNS0_6UserIdE = 0x6731c
_ZN2nn2fs30RegisterSaveDataAtomicDeletionEPmi = 0x674d4
_ZN2nn2fs16SaveDataIterator16ReadSaveDataInfoEPlPNS0_12SaveDataInfoEl = 0x6759c
_ZN2nn2fs16SaveDataIteratorC2EONS_2sf13SharedPointerINS_5fssrv2sf19ISaveDataInfoReaderEEE = 0x6770c
_ZN2nn2fs20OpenSaveDataIteratorEPNSt3__110unique_ptrINS0_16SaveDataIteratorENS1_14default_deleteIS3_EEEENS0_15SaveDataSpaceIdE = 0x6772c
_ZN2nn2fs14CreateSaveDataENS_3ncm13ApplicationIdENS0_6UserIdEmllj = 0x67838
_ZN2nn2fs18CreateBcatSaveDataENS_3ncm13ApplicationIdEl = 0x67a50
_ZN2nn2fs20CreateDeviceSaveDataENS_3ncm13ApplicationIdEmllj = 0x67c40
_ZN2nn2fs22CreateTemporaryStorageENS_3ncm13ApplicationIdEmlj = 0x67e44
_ZN2nn2fs18CreateCacheStorageENS_3ncm13ApplicationIdENS0_15SaveDataSpaceIdEmllj = 0x6803c
_ZN2nn2fs18CreateCacheStorageENS_3ncm13ApplicationIdEmllj = 0x68268
_ZN2nn2fs20CreateSystemSaveDataENS0_15SaveDataSpaceIdEmNS0_6UserIdEmllj = 0x682a4
_ZN2nn2fs20CreateSystemSaveDataEmNS0_6UserIdEmllj = 0x684b4
_ZN2nn2fs20CreateSystemSaveDataEmNS0_6UserIdEllj = 0x68508
_ZN2nn2fs20CreateSystemSaveDataEmmllj = 0x68558
_ZN2nn2fs20CreateSystemSaveDataEmllj = 0x685a4
_ZN2nn2fs20CreateSystemSaveDataENS0_15SaveDataSpaceIdEmmllj = 0x685ec
_ZN2nn2fs14ExtendSaveDataENS0_15SaveDataSpaceIdEmll = 0x6862c
_ZN2nn2fs22QuerySaveDataTotalSizeEPlll = 0x6877c
_ZN2nn2fs18GetSaveDataOwnerIdEPmm = 0x688c4
_ZN2nn2fs18GetSaveDataOwnerIdEPmNS0_15SaveDataSpaceIdEm = 0x689e8
_ZN2nn2fs16GetSaveDataFlagsEPjm = 0x68b34
_ZN2nn2fs16GetSaveDataFlagsEPjNS0_15SaveDataSpaceIdEm = 0x68c58
_ZN2nn2fs16SetSaveDataFlagsEmNS0_15SaveDataSpaceIdEj = 0x68d8c
_ZN2nn2fs20GetSaveDataTimeStampEPNS_4time9PosixTimeEm = 0x68eb4
_ZN2nn2fs20GetSaveDataTimeStampEPNS_4time9PosixTimeENS0_15SaveDataSpaceIdEm = 0x68fd8
_ZN2nn2fs24GetSaveDataAvailableSizeEPlm = 0x69124
_ZN2nn2fs24GetSaveDataAvailableSizeEPlNS0_15SaveDataSpaceIdEm = 0x69248
_ZN2nn2fs22GetSaveDataJournalSizeEPlm = 0x69394
_ZN2nn2fs22GetSaveDataJournalSizeEPlNS0_15SaveDataSpaceIdEm = 0x694b8
_ZN2nn2fs14VerifySaveDataEPbmPvm = 0x69604
_ZN2nn2fs14VerifySaveDataEPbNS0_15SaveDataSpaceIdEmPvm = 0x69638
_ZN2nn2fs23CorruptSaveDataForDebugEm = 0x6973c
_ZN2nn2fs23CorruptSaveDataForDebugENS0_15SaveDataSpaceIdEm = 0x697fc
_ZN2nn2fs27DisableAutoSaveDataCreationEv = 0x698c0
_ZN2nn2fs25OpenSaveDataThumbnailFileEPNSt3__110unique_ptrINS0_3fsa5IFileENS1_14default_deleteIS4_EEEEmRNS0_6UserIdE = 0x69c20
_ZN2nn2fs25ReadSaveDataThumbnailFileEmNS0_6UserIdEPvmS2_m = 0x69d78
_ZN2nn2fs31ReadSaveDataThumbnailFileHeaderEmNS0_6UserIdEPvm = 0x6a0f4
_ZN2nn2fs26WriteSaveDataThumbnailFileEmNS0_6UserIdEPKvmS3_m = 0x6a298
_ZN2nn2fs32WriteSaveDataThumbnailFileHeaderEmNS0_6UserIdEPKvm = 0x6a5b0
_ZN2nn2fs36CorruptSaveDataThumbnailFileForDebugEmNS0_6UserIdE = 0x6a7dc
_ZN2nn2fs23SaveDataTransferManagerC2Ev = 0x6a924
_ZN2nn2fs23SaveDataTransferManager12GetChallengeEPvm = 0x6a9c8
_ZN2nn2fs23SaveDataTransferManager8SetTokenEPKvm = 0x6aa5c
_ZN2nn2fs23SaveDataTransferManager20OpenSaveDataExporterEPNSt3__110unique_ptrINS0_16SaveDataExporterENS2_14default_deleteIS4_EEEENS0_15SaveDataSpaceIdEm = 0x6aaf0
_ZN2nn2fs23SaveDataTransferManager20OpenSaveDataImporterEPNSt3__110unique_ptrINS0_16SaveDataImporterENS2_14default_deleteIS4_EEEEPlPKvmRKNS0_6UserIdENS0_15SaveDataSpaceIdE = 0x6ac64
_ZN2nn2fs30SaveDataTransferSizeCalculatorC1Ev = 0x6ae00
_ZN2nn2fs30SaveDataTransferSizeCalculator3AddERKNS0_12SaveDataInfoE = 0x6ae08
_ZN2nn2fs30SaveDataTransferSizeCalculator5ClearEv = 0x6ae50
_ZN2nn2fs30SaveDataTransferSizeCalculator23QuerySaveDataExportSizeEv = 0x6ae58
_ZN2nn2fs30SaveDataTransferSizeCalculator34QuerySaveDataRequiredSizeForImportEv = 0x6ae60
_ZN2nn2fs30SaveDataTransferSizeCalculator23QuerySaveDataExportSizeERKNS0_12SaveDataInfoE = 0x6ae74
_ZN2nn2fs30SaveDataTransferSizeCalculator34QuerySaveDataRequiredSizeForImportERKNS0_12SaveDataInfoE = 0x6ae98
_ZN2nn2fs30SaveDataTransferSizeCalculator23QuerySaveDataExportSizeEPKNS0_12SaveDataInfoEj = 0x6aebc
_ZN2nn2fs30SaveDataTransferSizeCalculator34QuerySaveDataRequiredSizeForImportEPKNS0_12SaveDataInfoEj = 0x6af04
_ZN2nn2fs30SaveDataTransferSizeCalculator16GetFreeSpaceSizeENS0_15SaveDataSpaceIdE = 0x6af4c
_ZN2nn2fs16SaveDataExporterC1EONS_2sf13SharedPointerINS_5fssrv2sf17ISaveDataExporterEEE = 0x6aff4
_ZN2nn2fs16SaveDataExporter15GetSaveDataInfoEv = 0x6b080
_ZN2nn2fs16SaveDataExporter15PullInitialDataEPvm = 0x6b088
_ZN2nn2fs16SaveDataExporter4PullEPmPvm = 0x6b11c
_ZN2nn2fs16SaveDataExporter11GetRestSizeEv = 0x6b1c4
_ZN2nn2fs16SaveDataImporterC1EONS_2sf13SharedPointerINS_5fssrv2sf17ISaveDataImporterEEE = 0x6b244
_ZN2nn2fs16SaveDataImporter8FinalizeEv = 0x6b2d0
_ZN2nn2fs16SaveDataImporter15GetSaveDataInfoEv = 0x6b35c
_ZN2nn2fs16SaveDataImporter4PushEPKvm = 0x6b364
_ZN2nn2fs16SaveDataImporter11GetRestSizeEv = 0x6b3f8
_ZN2nn2fs11MountSdCardEPKc = 0x6b478
_ZN2nn2fs19MountSdCardForDebugEPKc = 0x6b6fc
_ZN2nn2fs32OpenSdCardDetectionEventNotifierEPNSt3__110unique_ptrINS0_14IEventNotifierENS1_14default_deleteIS3_EEEE = 0x6b714
_ZN2nn2fs16IsSdCardInsertedEv = 0x6b85c
_ZN2nn2fs18GetSdCardSpeedModeEPNS0_15SdCardSpeedModeE = 0x6b960
_ZN2nn2fs12GetSdCardCidEPvm = 0x6bac4
_ZN2nn2fs21GetSdCardUserAreaSizeEPl = 0x6bc2c
_ZN2nn2fs26GetSdCardProtectedAreaSizeEPl = 0x6bd88
_ZN2nn2fs26GetAndClearSdCardErrorInfoEPNS0_16StorageErrorInfoEPmPcm = 0x6bee4
_ZN2nn2fs12FormatSdCardEv = 0x6c068
_ZN2nn2fs18FormatSdCardDryRunEv = 0x6c11c
_ZN2nn2fs16IsExFatSupportedEv = 0x6c1d0
_ZN2nn2fs23SetSdCardEncryptionSeedERKNS0_14EncryptionSeedE = 0x6c278
_ZN2nn2fs22SetSdCardAccessibilityEb = 0x6c334
_ZN2nn2fs18IsSdCardAccessibleEv = 0x6c3d0
_ZN2nn2fs36IsSignedSystemPartitionOnSdCardValidEv = 0x6c478
_ZN2nn2fs21SetSpeedEmulationModeENS0_18SpeedEmulationModeE = 0x6c520
_ZN2nn2fs21GetSpeedEmulationModeEPNS0_18SpeedEmulationModeE = 0x6c64c
_ZN2nn2fs6detail27StorageServiceObjectAdapterC1EONS_2sf13SharedPointerINS_5fssrv2sf8IStorageEEE = 0x6c7b0
_ZN2nn2fs6detail27StorageServiceObjectAdapterD2Ev = 0x6c7e0
_ZN2nn2fs6detail27StorageServiceObjectAdapterD0Ev = 0x6c808
_ZN2nn2fs6detail27StorageServiceObjectAdapter4ReadElPvm = 0x6c850
_ZN2nn2fs6detail27StorageServiceObjectAdapter5WriteElPKvm = 0x6c884
_ZN2nn2fs6detail27StorageServiceObjectAdapter5FlushEv = 0x6c8b8
_ZN2nn2fs6detail27StorageServiceObjectAdapter7SetSizeEl = 0x6c8dc
_ZN2nn2fs6detail27StorageServiceObjectAdapter7GetSizeEPl = 0x6c900
_ZN2nn2fs6detail27StorageServiceObjectAdapter12OperateRangeEPvmNS0_11OperationIdEllPKvm = 0x6c924
_ZN2nn2fs29QueryMountSystemDataCacheSizeEPmNS_3ncm12SystemDataIdE = 0x6c97c
_ZN2nn2fs15MountSystemDataEPKcNS_3ncm12SystemDataIdE = 0x6ca8c
_ZN2nn2fs15MountSystemDataEPKcNS_3ncm12SystemDataIdEPvm = 0x6cb10
_ZN2nn2fs19MountSystemSaveDataEPKcm = 0x6cba4
_ZN2nn2fs19MountSystemSaveDataEPKcmNS0_6UserIdE = 0x6cbd0
_ZN2nn2fs19MountSystemSaveDataEPKcNS0_15SaveDataSpaceIdEm = 0x6cc04
_ZN2nn2fs19MountSystemSaveDataEPKcNS0_15SaveDataSpaceIdEmNS0_6UserIdE = 0x6cc24
_ZN2nn2sf13SharedPointerINS_3tma11IHtcManagerEED2Ev = 0x6cdbc
_ZN2nn3htc10InitializeEv = 0x6cdd4
_ZN2nn3htc8FinalizeEv = 0x6ce60
_ZN2nn3htc28GetEnvironmentVariableLengthEPmPKc = 0x6ceb8
_ZN2nn3htc22GetEnvironmentVariableEPmPcmPKc = 0x6cfa4
_ZN2nn3htc23BindHostConnectionEventEPNS_2os11SystemEventE = 0x6d0a8
_ZN2nn3htc26BindHostDisconnectionEventEPNS_2os11SystemEventE = 0x6d144
_ZN2nn3htc32BindHostConnectionEventForSystemEPNS_2os11SystemEventE = 0x6d1e0
_ZN2nn3htc35BindHostDisconnectionEventForSystemEPNS_2os11SystemEventE = 0x6d27c
_ZN2nn3htc18GetBridgeIpAddressEPcm = 0x6d318
_ZN2nn3htc19GetBridgeSubnetMaskEPcm = 0x6d388
_ZN2nn3htc19GetBridgeMacAddressEPcm = 0x6d3f8
_ZN2nn3htc13GetBridgePortEPcm = 0x6d468
_ZN2nn3htc22CreateHtcManagerByHipcEv = 0x6d4f8
_ZN2nn2sf4hipc6client24Hipc2ClientCoreProcessorILNS1_6detail11MessageTypeE4ENS0_4cmif6detail14CoreMethodInfoINSt3__15tupleIJNS7_18OutRawArgumentInfoILm4ELm4ELl0EEENS7_18BufferArgumentInfoILi0ELi6ELm0EEENSD_ILi1ELi5ELm0EEEEEELm0ELm4ELb0EEESG_E7ProcessEPNS2_26Hipc2ClientProxyBaseObjectENS6_6client24OutRawClientArgumentTypeILm4ELm4EEENSL_24BufferClientArgumentTypeESO_j = 0x6d84c
_ZN2nn2sf4hipc6client24Hipc2ClientCoreProcessorILNS1_6detail11MessageTypeE4ENS0_4cmif6detail14CoreMethodInfoINSt3__15tupleIJNS7_18OutRawArgumentInfoILm4ELm4ELl0EEENS7_18BufferArgumentInfoILi0ELi5ELm0EEEEEELm0ELm4ELb0EEESF_E7ProcessEPNS2_26Hipc2ClientProxyBaseObjectENS6_6client24OutRawClientArgumentTypeILm4ELm4EEENSK_24BufferClientArgumentTypeEj = 0x6d9cc
_ZN2nn2sf4hipc6client24Hipc2ClientCoreProcessorILNS1_6detail11MessageTypeE4ENS0_4cmif6detail14CoreMethodInfoINSt3__15tupleIJNS7_21OutHandleArgumentInfoILi0ELi1EEEEEELm0ELm0ELb0EEESD_E7ProcessEPNS2_26Hipc2ClientProxyBaseObjectENS6_6client27OutHandleClientArgumentTypeEj = 0x6db34
_ZN2nn2sf4hipc6client24Hipc2ClientCoreProcessorILNS1_6detail11MessageTypeE4ENS0_4cmif6detail14CoreMethodInfoINSt3__15tupleIJNS7_17InRawArgumentInfoILm1ELm1ELl0EEEEEELm1ELm0ELb0EEESD_E7ProcessEPNS2_26Hipc2ClientProxyBaseObjectENS6_6client23InRawClientArgumentTypeILm1ELm1EvEEj = 0x6dc80
_ZN2nn3htc34GetTargetEnvironmentVariableLengthEPmPKc = 0x6ddb0
_ZN2nn3htc28GetTargetEnvironmentVariableEPmPcmPKc = 0x6e358
_ZN2nn3htc43WaitUntilTargetEnvironmentVariableAvailableENS_8TimeSpanE = 0x6e458
_ZN2nn2sf13SharedPointerINS_3htc4tenv15IServiceManagerEED2Ev = 0x6e4f4
_ZN2nn2sf4cmif6client34CmifDomainProxyClientCoreProcessorINS0_4hipc6client38Hipc2ClientSessionManagedProxyKindBaseINS5_18Hipc2ProxyKindBaseILNS4_6detail11MessageTypeE4EEEEENS1_6detail14CoreMethodInfoINSt3__15tupleIJNSC_21OutObjectArgumentInfoILi0ELi0EEENSC_17InRawArgumentInfoILm8ELm8ELl0EEEEEELm8ELm0ELb1EEESK_E21ProcessWithOutObjectsEPNS2_23CmifDomainClientMessageISB_E15ProxyBaseObjectENS2_27OutObjectClientArgumentTypeENS2_23InRawClientArgumentTypeILm8ELm8EvEEjPNS0_13SharedPointerINS0_14IServiceObjectEEE = 0x6e640
_ZN2nn2sf4cmif6client34CmifDomainProxyClientCoreProcessorINS0_4hipc6client38Hipc2ClientSessionManagedProxyKindBaseINS5_18Hipc2ProxyKindBaseILNS4_6detail11MessageTypeE4EEEEENS1_6detail14CoreMethodInfoINSt3__15tupleIJNSC_18OutRawArgumentInfoILm8ELm8ELl0EEENSC_18BufferArgumentInfoILi0ELi6ELm0EEENSC_17InRawArgumentInfoILm64ELm1ELl0EEEEEELm64ELm8ELb0EEESM_E7ProcessEPNS2_23CmifDomainClientMessageISB_E15ProxyBaseObjectENS2_24OutRawClientArgumentTypeILm8ELm8EEENS2_24BufferClientArgumentTypeENS2_23InRawClientArgumentTypeILm64ELm1EvEEj = 0x6e9d4
_ZN2nn2sf4cmif6client34CmifDomainProxyClientCoreProcessorINS0_4hipc6client38Hipc2ClientSessionManagedProxyKindBaseINS5_18Hipc2ProxyKindBaseILNS4_6detail11MessageTypeE4EEEEENS1_6detail14CoreMethodInfoINSt3__15tupleIJNSC_18OutRawArgumentInfoILm8ELm8ELl0EEENSC_17InRawArgumentInfoILm64ELm1ELl0EEEEEELm64ELm8ELb0EEESK_E7ProcessEPNS2_23CmifDomainClientMessageISB_E15ProxyBaseObjectENS2_24OutRawClientArgumentTypeILm8ELm8EEENS2_23InRawClientArgumentTypeILm64ELm1EvEEj = 0x6ebc0
nninitInitializeSdkModule = 0x6ed6c
nninitFinalizeSdkModule = 0x6eda0
InitLibc0 = 0x6eda4
InitLibc1 = 0x6eda8
InitLibc2 = 0x6edac
_ZN2nn4init5StartEmmPFvvES2_ = 0x6edb0
_ZN2nn4lmem12SetFillValueENS0_8FillTypeEj = 0x6ee10
_ZN2nn4lmem12GetFillValueENS0_8FillTypeE = 0x6ee14
_ZN2nn4lmem12GetTotalSizeEPNS0_6detail8HeapHeadE = 0x6ee18
_ZN2nn4lmem15GetStartAddressEPNS0_6detail8HeapHeadE = 0x6ee64
_ZN2nn4lmem10HasAddressEPNS0_6detail8HeapHeadEPv = 0x6eea8
_ZN2nn4lmem13CreateExpHeapEPvmi = 0x6eefc
_ZN2nn4lmem14DestroyExpHeapEPNS0_6detail8HeapHeadE = 0x6ef38
_ZN2nn4lmem19AllocateFromExpHeapEPNS0_6detail8HeapHeadEm = 0x6ef68
_ZN2nn4lmem19AllocateFromExpHeapEPNS0_6detail8HeapHeadEmi = 0x6efc0
_ZN2nn4lmem13FreeToExpHeapEPNS0_6detail8HeapHeadEPv = 0x6f024
_ZN2nn4lmem18ResizeExpHeapBlockEPNS0_6detail8HeapHeadEPvm = 0x6f078
_ZN2nn4lmem13AdjustExpHeapEPNS0_6detail8HeapHeadE = 0x6f0dc
_ZN2nn4lmem23GetExpHeapTotalFreeSizeEPNS0_6detail8HeapHeadE = 0x6f138
_ZN2nn4lmem25GetExpHeapAllocatableSizeEPNS0_6detail8HeapHeadEi = 0x6f184
_ZN2nn4lmem24SetExpHeapAllocationModeEPNS0_6detail8HeapHeadENS0_14AllocationModeE = 0x6f1d8
_ZN2nn4lmem24GetExpHeapAllocationModeEPNS0_6detail8HeapHeadE = 0x6f22c
_ZN2nn4lmem30SetExpHeapUseMarginOfAlignmentEPNS0_6detail8HeapHeadEb = 0x6f278
_ZN2nn4lmem30GetExpHeapUseMarginOfAlignmentEPNS0_6detail8HeapHeadE = 0x6f2cc
_ZN2nn4lmem17SetExpHeapGroupIdEPNS0_6detail8HeapHeadEt = 0x6f318
_ZN2nn4lmem17GetExpHeapGroupIdEPNS0_6detail8HeapHeadE = 0x6f36c
_ZN2nn4lmem19GetExpHeapBlockSizeEPKv = 0x6f3b8
_ZN2nn4lmem24GetExpHeapGroupIdOfBlockEPKv = 0x6f3bc
_ZN2nn4lmem36GetExpHeapAllocationDirectionOfBlockEPKv = 0x6f3c0
_ZN2nn4lmem12CheckExpHeapEPNS0_6detail8HeapHeadEi = 0x6f3d8
_ZN2nn4lmem17CheckExpHeapBlockEPNS0_6detail8HeapHeadEPKvi = 0x6f42c
_ZN2nn4lmem21VisitExpHeapAllBlocksEPNS0_6detail8HeapHeadEPFvPvS3_mEm = 0x6f490
_ZN2nn4lmem11DumpExpHeapEPNS0_6detail8HeapHeadE = 0x6f4f8
_ZN2nn4lmem15CreateFrameHeapEPvmi = 0x6f544
_ZN2nn4lmem15CreateFrameHeapEPvmiPNS0_6detail8HeapHeadE = 0x6f580
_ZN2nn4lmem16DestroyFrameHeapEPNS0_6detail8HeapHeadE = 0x6f5bc
_ZN2nn4lmem15AdjustFrameHeapEPNS0_6detail8HeapHeadENS0_10AdjustModeE = 0x6f5ec
_ZN2nn4lmem21AllocateFromFrameHeapEPNS0_6detail8HeapHeadEm = 0x6f650
_ZN2nn4lmem21AllocateFromFrameHeapEPNS0_6detail8HeapHeadEmi = 0x6f6a8
_ZN2nn4lmem15FreeToFrameHeapEPNS0_6detail8HeapHeadENS0_8FreeModeE = 0x6f70c
_ZN2nn4lmem20ResizeFrameHeapBlockEPNS0_6detail8HeapHeadEPvm = 0x6f760
_ZN2nn4lmem27GetFrameHeapAllocatableSizeEPNS0_6detail8HeapHeadEi = 0x6f7c4
_ZN2nn4lmem17GetFrameHeapStateEPNS0_6detail8HeapHeadE = 0x6f818
_ZN2nn4lmem21RestoreFrameHeapStateEPNS0_6detail8HeapHeadERKNS0_14FrameHeapStateE = 0x6f874
_ZN2nn4lmem13DumpFrameHeapEPNS0_6detail8HeapHeadE = 0x6f8c8
_ZN2nn4lmem14CreateUnitHeapEPvmmi = 0x6f914
_ZN2nn4lmem14CreateUnitHeapEPvmmiiNS0_13InfoPlacementE = 0x6f960
_ZN2nn4lmem14CreateUnitHeapEPvmmiiPNS0_6detail8HeapHeadE = 0x6f9a8
_ZN2nn4lmem15DestroyUnitHeapEPNS0_6detail8HeapHeadE = 0x6f9f8
_ZN2nn4lmem18InvalidateUnitHeapEPNS0_6detail8HeapHeadE = 0x6fa28
_ZN2nn4lmem18ExtendUnitHeapAreaEPNS0_6detail8HeapHeadEm = 0x6fa74
_ZN2nn4lmem20AllocateFromUnitHeapEPNS0_6detail8HeapHeadE = 0x6fac8
_ZN2nn4lmem14FreeToUnitHeapEPNS0_6detail8HeapHeadEPv = 0x6fb14
_ZN2nn4lmem19GetUnitHeapUnitSizeEPNS0_6detail8HeapHeadE = 0x6fb68
_ZN2nn4lmem27GetUnitHeapAllocatableCountEPNS0_6detail8HeapHeadE = 0x6fb6c
_ZN2nn4lmem25GetUnitHeapAllocatedCountEPNS0_6detail8HeapHeadE = 0x6fbb8
_ZN2nn4lmem20GetUnitHeapAlignmentEPNS0_6detail8HeapHeadE = 0x6fc04
_ZN2nn4lmem23GetRequiredUnitHeapSizeEmiib = 0x6fc08
_ZN2nn4lmem12DumpUnitHeapEPNS0_6detail8HeapHeadE = 0x6fc10
_ZN2nn4lmem6detail12InitHeapHeadEPNS1_8HeapHeadEjPvS4_i = 0x6fc5c
_ZN2nn4lmem6detail12FinalizeHeapEPNS1_8HeapHeadE = 0x6fc6c
_ZN2nn4lmem6detail12DumpHeapHeadEPKNS1_8HeapHeadE = 0x6fc70
_ZN2nn4lmem6detail14SetHeapFillValEij = 0x6fc74
_ZN2nn4lmem6detail14GetHeapFillValEi = 0x6fc8c
_ZN2nn4lmem6detail10HasAddressEPNS1_8HeapHeadEPv = 0x6fc9c
_ZN2nn4lmem6detail16GetHeapTotalSizeEPNS1_8HeapHeadE = 0x6fd00
_ZN2nn4lmem6detail13CreateExpHeapEPvmi = 0x6fd64
_ZN2nn4lmem6detail14DestroyExpHeapEPNS1_8HeapHeadE = 0x6fdf8
_ZN2nn4lmem6detail16AllocFromExpHeapEPNS1_8HeapHeadEmi = 0x6fdfc
_ZN2nn4lmem6detail24ResizeExpHeapMemoryBlockEPNS1_8HeapHeadEPvm = 0x6ff98
_ZN2nn4lmem6detail13FreeToExpHeapEPNS1_8HeapHeadEPv = 0x701c8
_ZN2nn4lmem6detail23GetExpHeapTotalFreeSizeEPNS1_8HeapHeadE = 0x70320
_ZN2nn4lmem6detail25GetExpHeapAllocatableSizeEPNS1_8HeapHeadEi = 0x70348
_ZN2nn4lmem6detail19SetExpHeapAllocModeEPNS1_8HeapHeadEt = 0x703c4
_ZN2nn4lmem6detail19GetExpHeapAllocModeEPNS1_8HeapHeadE = 0x703dc
_ZN2nn4lmem6detail30SetUseExpHeapMarginOfAlignmentEPNS1_8HeapHeadEb = 0x703e8
_ZN2nn4lmem6detail30GetUseExpHeapMarginOfAlignmentEPNS1_8HeapHeadE = 0x703fc
_ZN2nn4lmem6detail17SetExpHeapGroupIdEPNS1_8HeapHeadEt = 0x70404
_ZN2nn4lmem6detail17GetExpHeapGroupIdEPNS1_8HeapHeadE = 0x70414
_ZN2nn4lmem6detail25GetExpHeapMemoryBlockSizeEPKv = 0x7041c
_ZN2nn4lmem6detail25GetMemoryBlockHeapGroupIdEPKv = 0x70424
_ZN2nn4lmem6detail26GetMemoryBlockHeapAllocDirEPKv = 0x7042c
_ZN2nn4lmem6detail13AdjustExpHeapEPNS1_8HeapHeadE = 0x70438
_ZN2nn4lmem6detail12CheckExpHeapEPNS1_8HeapHeadEj = 0x704bc
_ZN2nn4lmem6detail23CheckExpHeapMemoryBlockEPKvPNS1_8HeapHeadEj = 0x70660
_ZN2nn4lmem6detail21VisitExpHeapAllocatedEPNS1_8HeapHeadEPFvPvS3_mEm = 0x70804
_ZN2nn4lmem6detail11DumpExpHeapEPNS1_8HeapHeadE = 0x70854
_ZN2nn4lmem6detail17GetNextBlockFrontEPNS1_8HeapHeadE = 0x70a44
_ZN2nn4lmem6detail16GetNextBlockRearEPNS1_8HeapHeadE = 0x70a4c
_ZN2nn4lmem6detail15CreateFrameHeapEPvmi = 0x70a54
_ZN2nn4lmem6detail15CreateFrameHeapEPvmiPNS1_8HeapHeadE = 0x70abc
_ZN2nn4lmem6detail16DestroyFrameHeapEPNS1_8HeapHeadE = 0x70b1c
_ZN2nn4lmem6detail18AllocFromFrameHeapEPNS1_8HeapHeadEmi = 0x70b20
_ZN2nn4lmem6detail15FreeToFrameHeapEPNS1_8HeapHeadENS0_8FreeModeE = 0x70bbc
_ZN2nn4lmem6detail30GetAllocatableSizeForFrameHeapEPNS1_8HeapHeadEi = 0x70bd8
_ZN2nn4lmem6detail17GetFrameHeapStateEPNS1_8HeapHeadE = 0x70c04
_ZN2nn4lmem6detail21RestoreFrameHeapStateEPNS1_8HeapHeadERKNS0_14FrameHeapStateE = 0x70c10
_ZN2nn4lmem6detail15AdjustFrameHeapEPNS1_8HeapHeadENS0_10AdjustModeE = 0x70c24
_ZN2nn4lmem6detail29ResizeForMemoryBlockFrameHeapEPNS1_8HeapHeadEPvm = 0x70ca0
_ZN2nn4lmem6detail13DumpFrameHeapEPNS1_8HeapHeadE = 0x70cec
_ZN2nn4lmem6detail14CreateUnitHeapEPvmmitNS0_13InfoPlacementEPNS1_8HeapHeadE = 0x70cf0
_ZN2nn4lmem6detail15DestroyUnitHeapEPNS1_8HeapHeadE = 0x70e7c
_ZN2nn4lmem6detail18InvalidateUnitHeapEPNS1_8HeapHeadE = 0x70e8c
_ZN2nn4lmem6detail18ExtendUnitHeapAreaEPNS1_8HeapHeadEm = 0x70e94
_ZN2nn4lmem6detail17AllocFromUnitHeapEPNS1_8HeapHeadE = 0x70f20
_ZN2nn4lmem6detail14FreeToUnitHeapEPNS1_8HeapHeadEPv = 0x70f44
_ZN2nn4lmem6detail19GetUnitHeapUnitSizeEPNS1_8HeapHeadE = 0x70f64
_ZN2nn4lmem6detail27GetUnitHeapAllocatableCountEPNS1_8HeapHeadE = 0x70f6c
_ZN2nn4lmem6detail25GetUnitHeapAllocatedCountEPNS1_8HeapHeadE = 0x70f90
_ZN2nn4lmem6detail20GetUnitHeapAlignmentEPNS1_8HeapHeadE = 0x70f98
_ZN2nn4lmem6detail23GetRequiredUnitHeapSizeEmiib = 0x70fa0
_ZN2nn4lmem6detail12DumpUnitHeapEPNS1_8HeapHeadE = 0x70fd0
nnmem_nlib_spinlock_lock_ = 0x71000
nnmem_nlib_spinlock_unlock_ = 0x7120c
nnmem_nlib_getversion = 0x7124c
nnmem_nlib_compiler_version = 0x71258
nnmem_nlib_once = 0x71260
nnmem_nlib_thread_attr_init = 0x713ec
nnmem_nlib_thread_attr_destroy = 0x71430
nnmem_nlib_thread_attr_setint = 0x71438
nnmem_nlib_thread_attr_getint = 0x7154c
nnmem_nlib_thread_attr_setptr = 0x71634
nnmem_nlib_thread_attr_getptr = 0x7163c
nnmem_nlib_thread_attr_setstack = 0x71644
nnmem_nlib_thread_attr_getstack = 0x716e0
nnmem_nlib_rwlock_init = 0x71788
nnmem_nlib_rwlock_destroy = 0x71814
nnmem_nlib_rwlock_rdlock = 0x71868
nnmem_nlib_rwlock_tryrdlock = 0x718e0
nnmem_nlib_rwlock_tryrdlock_for = 0x7195c
nnmem_nlib_rwlock_tryrdlock_until = 0x719d8
nnmem_nlib_rwlock_rdunlock = 0x71a74
nnmem_nlib_rwlock_wrlock = 0x71ae4
nnmem_nlib_rwlock_trywrlock = 0x71b9c
nnmem_nlib_rwlock_trywrlock_until = 0x71c24
nnmem_nlib_rwlock_trywrlock_for = 0x71d38
nnmem_nlib_rwlock_wrunlock = 0x71d7c
nnmem_nlib_condrwlock_init = 0x71db8
nnmem_nlib_condrwlock_destroy = 0x71dec
nnmem_nlib_condrwlock_signal = 0x71e18
nnmem_nlib_condrwlock_broadcast = 0x71e54
nnmem_nlib_condrwlock_wait = 0x71e90
nnmem_nlib_condrwlock_wait_for = 0x71fa0
nnmem_nlib_condrwlock_wait_until = 0x720c0
nnmem_nlib_error_string = 0x721e0
nnmem_nlib_snprintf = 0x72204
nnmem_nlib_vdprintf = 0x7228c
nnmem_nlib_dprintf = 0x724bc
nnmem_nlib_printf = 0x72550
nnmem_nlib_snwprintf = 0x72618
nnmem_nlib_vdwprintf = 0x726a0
nnmem_nlib_wide_to_utf8 = 0x72914
nnmem_nlib_dwprintf = 0x72918
nnmem_nlib_wprintf = 0x729ac
nnmem_nlib_memcmp_generic = 0x72a60
nnmem_nlib_memchr_generic = 0x72cc0
nnmem_nlib_memrchr_generic = 0x72e80
nnmem_nlib_memchr_not_generic = 0x72fe0
nnmem_nlib_memchr_range_not_generic = 0x7316c
nnmem_nlib_memchr_lt = 0x733d4
nnmem_nlib_memchr_gt = 0x73570
nnmem_nlib_memchr_mb = 0x73708
nnmem_nlib_memspn = 0x73864
nnmem_nlib_memcspn = 0x73e3c
nnmem_nlib_strlen = 0x743f0
nnmem_nlib_memccpy = 0x744ec
nnmem_nlib_skipws_generic = 0x7459c
nnmem_nlib_strnlen = 0x74660
nnmem_nlib_strcpy = 0x74794
nnmem_nlib_strncpy = 0x747f0
nnmem_nlib_strchr_generic = 0x74858
nnmem_nlib_strrchr_generic = 0x749e0
nnmem_nlib_wcslen = 0x74b00
nnmem_nlib_wcsnlen = 0x74b60
nnmem_nlib_wcscpy = 0x74be0
nnmem_nlib_wcsncpy = 0x74c40
nnmem_nlib_strcat = 0x74ca8
nnmem_nlib_strncat = 0x74d20
nnmem_nlib_wcscat = 0x74dac
nnmem_nlib_wcsncat = 0x74e28
nnmem_nlib_utf32_to_utf8 = 0x74eb4
nnmem_nlib_utf8_to_wide = 0x750c0
nnmem_nlib_utf8_to_utf32 = 0x750c4
nnmem_nlib_memwide_to_utf8 = 0x752d8
nnmem_nlib_memutf32_to_utf8 = 0x752dc
nnmem_nlib_memutf8_to_wide = 0x75518
nnmem_nlib_memutf8_to_utf32 = 0x7551c
nnmem_nlib_strcplen = 0x75810
nnmem_nlib_memcplen = 0x75954
nnmem_nlib_wcscplen = 0x75af8
nnmem_nlib_utf32cplen = 0x75b48
nnmem_nlib_swapendian_16_generic = 0x75b98
nnmem_nlib_swapendian_32 = 0x75c38
nnmem_nlib_swapendian_64_generic = 0x75cb8
nnmem_nlib_utf16len_generic = 0x75d38
nnmem_nlib_utf16nlen_generic = 0x75da0
nnmem_nlib_utf16cpy_ = 0x75e30
nnmem_nlib_utf16ncpy_ = 0x75edc
nnmem_nlib_utf32len_ = 0x75fb8
nnmem_nlib_utf32nlen_ = 0x76024
nnmem_nlib_utf32cpy_ = 0x760b0
nnmem_nlib_utf32ncpy_ = 0x76158
nnmem_nlib_utf16cplen_ex_ = 0x76230
nnmem_nlib_utf16_to_utf32char = 0x762e0
nnmem_nlib_utf32char_to_utf16 = 0x76344
nnmem_nlib_utf8_to_utf32char = 0x763a8
nnmem_nlib_utf32char_to_utf8 = 0x76534
nnmem_nlib_utf16_to_utf8 = 0x76600
nnmem_nlib_memutf16_to_utf8 = 0x76940
nnmem_nlib_utf8_to_utf16 = 0x76dc4
nnmem_nlib_memutf8_to_utf16 = 0x77050
nnmem_nlib_log_vprint = 0x77364
nnmem_nlib_log_print = 0x77540
nnmem_nlib_log_attr_setint = 0x775f8
nnmem_nlib_fd_readv = 0x77910
nnmem_nlib_fd_writev = 0x77b64
nnmem_nlib_fd_preadv = 0x77d14
nnmem_nlib_fd_pwritev = 0x77f74
nnmem_nlib_basename = 0x78130
nnmem_nlib_dirname = 0x78364
nnmem_nlib_mkostemps = 0x783d8
nnmem_nlib_mq_open = 0x786fc
nnmem_nlib_mq_getattr = 0x78bc0
nnmem_nlib_mq_close = 0x78e84
nnmem_nlib_mq_readonly = 0x78fe8
nnmem_nlib_mq_send = 0x79114
nnmem_nlib_mq_send_until = 0x79270
nnmem_nlib_mq_receive = 0x793d0
nnmem_nlib_mq_receive_until = 0x79554
nnmem_nlib_mq_drop = 0x796dc
nnmem_nlib_crc32 = 0x79860
nnmem_nlib_crc32c = 0x7993c
nnmem_nlib_vsnprintf_fallback = 0x79a18
nnmem_nlib_snprintf_fallback = 0x7b6d0
nnmem_nlib_vsnwprintf_fallback = 0x7b758
nnmem_nlib_snwprintf_fallback = 0x7d410
nnmem_nlib_strto_int32_fallback = 0x7d498
nnmem_nlib_strto_int64_fallback = 0x7d84c
nnmem_nlib_strto_uint32_fallback = 0x7d94c
nnmem_nlib_strto_uint64_fallback = 0x7da30
nnmem_nlib_strto_double_fallback = 0x7db08
nnmem_nlib_strto_float_fallback = 0x7df54
nnmem_nlib_strto_int32 = 0x7e028
nnmem_nlib_strto_int64 = 0x7e100
nnmem_nlib_strto_uint32 = 0x7e1b4
nnmem_nlib_strto_uint64 = 0x7e290
nnmem_nlib_strto_double = 0x7e360
nnmem_nlib_strto_float = 0x7e404
nnmem_nlib_timer_create = 0x7e5c0
nnmem_nlib_timer_settime = 0x7eb7c
nnmem_nlib_timer_gettime = 0x7ef64
nnmem_nlib_timer_delete = 0x7f008
_ZN2nn7nlibsdk23LockFreePlaceHolderPoolIPvvE4InitEm = 0x80824
nnmem_nlib_get_native_last_error = 0x80a34
nnmem_nlib_epochtime = 0x80a74
nnmem_nlib_ticktime = 0x80ad0
nnmem_nlib_gen_random = 0x80b1c
nnmem_nlib_yield = 0x80b34
nnmem_nlib_sleep = 0x80b4c
nnmem_nlib_mempagesize = 0x80c04
nnmem_nlib_virtual_alloc = 0x80c14
nnmem_nlib_virtual_free = 0x810a0
nnmem_nlib_physical_alloc = 0x81140
nnmem_nlib_physical_free = 0x81214
nnmem_nlib_mlock = 0x812c8
nnmem_nlib_munlock = 0x812d0
nnmem_nlib_barrier_wait = 0x812d8
nnmem_nlib_mutex_recursive_init = 0x812f8
nnmem_nlib_mutex_recursive_timed_init = 0x81334
nnmem_nlib_mutex_lock = 0x81370
nnmem_nlib_mutex_trylock = 0x81408
nnmem_nlib_mutex_trylock_for = 0x814a0
nnmem_nlib_semaphore_init = 0x816f4
nnmem_nlib_semaphore_wait = 0x81720
nnmem_nlib_semaphore_trywait = 0x81738
nnmem_nlib_semaphore_trywait_for = 0x81758
nnmem_nlib_semaphore_post = 0x81780
nnmem_nlib_semaphore_post_ex = 0x817a4
nnmem_nlib_semaphore_destroy = 0x817c8
nnmem_nlib_cond_wait_for = 0x817e0
nnmem_nlib_cond_wait_until = 0x818ec
nnmem_nlib_thread_create = 0x819f4
nnmem_nlib_thread_join = 0x819fc
nnmem_nlib_thread_detach = 0x81a1c
nnmem_nlib_thread_getid = 0x81a64
nnmem_nlib_thread_getcpu = 0x81a8c
nnmem_nlib_thread_setaffinity = 0x81ab4
nnmem_nlib_thread_setname = 0x81ae0
_Z19nnmem_nlib_snprintfILm32EEiPmRAT__cPKcz = 0x81b2c
nnmem_nlib_thread_getconcurrency = 0x81c2c
nnmem_nlib_thread_getpriority = 0x81c64
nnmem_nlib_thread_setpriority = 0x81ca0
nnmem_nlib_thread_priority_min = 0x81ca4
nnmem_nlib_thread_priority_max = 0x81cb4
nnmem_nlib_thread_priority_default = 0x81cc4
nnmem_nlib_thread_exit = 0x81cd0
_Z26nnmem_nlib_thread_exit_cppv = 0x81ce0
nnmem_nlib_write_stdout = 0x81ce4
nnmem_nlib_write_stderr = 0x81cfc
nnmem_nlib_debug_backtrace = 0x81d1c
nnmem_nlib_debug_backtrace_gettext = 0x81d4c
nnmem_nlib_getenv = 0x81d68
nnmem_nlib_fd_open = 0x81d80
nnmem_nlib_fd_close = 0x81dac
nnmem_nlib_fd_read = 0x81dcc
nnmem_nlib_fd_write = 0x81e28
nnmem_nlib_fd_seek = 0x81e7c
nnmem_nlib_fd_pread = 0x81ed8
nnmem_nlib_fd_pwrite = 0x81f30
nnmem_nlib_fd_truncate = 0x81f88
nnmem_nlib_fd_getsize = 0x81fb8
nnmem_nlib_fd_flush = 0x8200c
nnmem_nlib_fd_sync = 0x82014
nnmem_nlib_fd_native_handle = 0x8201c
nnmem_nlib_unlink = 0x8202c
nnmem_nlib_mkdir = 0x82058
nnmem_nlib_rmdir = 0x82088
nnmem_nlib_remove = 0x820b4
nnmem_nlib_rename = 0x820e4
nnmem_nlib_dir_open = 0x82124
nnmem_nlib_dir_close = 0x82170
nnmem_nlib_dir_read = 0x82190
nnmem_nlib_is_dir = 0x82218
nnmem_nlib_exist_path = 0x8228c
nnmem_nlib_disk_freespace = 0x822fc
nnmem_nlib_fd_fileid = 0x82310
nnmem_nlib_readlink = 0x82318
nnmem_nlib_vsnprintf = 0x82320
nnmem_nlib_vsnwprintf = 0x823d0
nnmem_nlib_malloc = 0x824cc
nnmem_nlib_free = 0x824d4
nnmem_nlib_calloc = 0x824d8
nnmem_nlib_realloc = 0x824e0
nnmem_nlib_memalign = 0x824e8
nnmem_nlib_free_size = 0x824f0
nnmem_nlib_malloc_size = 0x824f4
nnmem_nlib_mount_host_nx = 0x824fc
_ZN2nn7nlibsdk4heap12TlsHeapCache15ReleaseAllCacheEv = 0x82520
_ZN2nn7nlibsdk4heap14TlsHeapCentral22UncacheSmallMemoryListEPNS1_12TlsHeapCacheEPv = 0x8257c
_ZN2nn7nlibsdk4heap12TlsHeapCache8FinalizeEv = 0x8264c
_ZN2nn7nlibsdk4heap12TlsHeapCache10CheckCacheEv = 0x82720
_ZN2nn7nlibsdk4heap12TlsHeapCache22GetAllocSizeFunc_Mode0EPS2_PKv = 0x82728
_ZN2nn7nlibsdk4heap14TlsHeapCentral15GetClassFromPtrEPKv = 0x827e8
_ZN2nn7nlibsdk4heap12TlsHeapCacheC1EPNS1_14TlsHeapCentralEj = 0x8289c
_ZN2nn7nlibsdk4heap12TlsHeapCache15AllocFunc_Mode0INSt3__117integral_constantIbLb0EEEEEPvPS2_m = 0x829fc
_ZN2nn7nlibsdk4heap12TlsHeapCache19AllocFuncAlgn_Mode0INSt3__117integral_constantIbLb0EEEEEPvPS2_mm = 0x82b1c
_ZN2nn7nlibsdk4heap12TlsHeapCache14FreeFunc_Mode0INSt3__117integral_constantIbLb0EEEEEiPS2_Pv = 0x82ce0
_ZN2nn7nlibsdk4heap12TlsHeapCache18FreeFuncSize_Mode0INSt3__117integral_constantIbLb0EEEEEiPS2_Pvm = 0x82dd0
_ZN2nn7nlibsdk4heap12TlsHeapCache17ReallocFunc_Mode0INSt3__117integral_constantIbLb0EEEEEiPS2_PvmPS8_ = 0x82ec0
_ZN2nn7nlibsdk4heap12TlsHeapCache15AllocFunc_Mode0INSt3__117integral_constantIbLb1EEEEEPvPS2_m = 0x83030
_ZN2nn7nlibsdk4heap12TlsHeapCache19AllocFuncAlgn_Mode0INSt3__117integral_constantIbLb1EEEEEPvPS2_mm = 0x83238
_ZN2nn7nlibsdk4heap12TlsHeapCache14FreeFunc_Mode0INSt3__117integral_constantIbLb1EEEEEiPS2_Pv = 0x834ec
_ZN2nn7nlibsdk4heap12TlsHeapCache18FreeFuncSize_Mode0INSt3__117integral_constantIbLb1EEEEEiPS2_Pvm = 0x83698
_ZN2nn7nlibsdk4heap12TlsHeapCache17ReallocFunc_Mode0INSt3__117integral_constantIbLb1EEEEEiPS2_PvmPS8_ = 0x8384c
_ZN2nn7nlibsdk4heap14TlsHeapCentral18FreeSpanToSpanPageEPNS1_4SpanEPNS1_8SpanPageE = 0x839bc
_ZN2nn7nlibsdk4heap14TlsHeapCentral21AllocSpanFromSpanPageEPNS1_8SpanPageE = 0x83a44
_ZN2nn7nlibsdk4heap14TlsHeapCentral22DestroySpanPageIfEmptyEPNS1_8SpanPageEb = 0x83acc
_ZN2nn7nlibsdk4heap14TlsHeapCentral9FreePagesEPNS1_4SpanE = 0x84050
_ZN2nn7nlibsdk4heap14TlsHeapCentralC2Ev = 0x84138
_ZN2nn7nlibsdk4heap14TlsHeapCentralD2Ev = 0x84140
_ZN2nn7nlibsdk4heap14TlsHeapCentral8AllocPhyEPvm = 0x84154
_ZN2nn7nlibsdk4heap14TlsHeapCentral7FreePhyEPvm = 0x84258
_ZN2nn7nlibsdk4heap14TlsHeapCentral4InitEPvmb = 0x84350
_ZN2nn7nlibsdk4heap14TlsHeapCentral10AllocPagesEm = 0x84788
_ZN2nn7nlibsdk4heap14TlsHeapCentral12MakeFreeSpanEm = 0x84dd8
_ZN2nn7nlibsdk4heap14TlsHeapCentral14SearchFreeSpanEm = 0x84e40
_ZN2nn7nlibsdk4heap14TlsHeapCentral9SplitSpanEPNS1_4SpanEmS4_ = 0x84fdc
_ZN2nn7nlibsdk4heap14TlsHeapCentral22AllocPagesWithBigAlignEmm = 0x85384
_ZN2nn7nlibsdk4heap14TlsHeapCentral17MergeIntoFreeListERPNS1_4SpanE = 0x85f30
_ZN2nn7nlibsdk4heap15DoubleFreeErrorEPKv = 0x863b8
_ZN2nn7nlibsdk4heap14TlsHeapCentral13AllocSpanPageEv = 0x863bc
_ZN2nn7nlibsdk4heap14TlsHeapCentral14MergeFreeSpansEPNS1_4SpanES4_m = 0x86910
_ZN2nn7nlibsdk4heap14TlsHeapCentral17CacheSmallMemory_EPhmb = 0x86a4c
_ZN2nn7nlibsdk4heap14TlsHeapCentral21CacheSmallMemoryList_EPNS1_12TlsHeapCacheEPhmPPvim = 0x870e8
_ZN2nn7nlibsdk4heap14TlsHeapCentral19UncacheSmallMemory_EPv = 0x87720
_ZN2nn7nlibsdk4heap14TlsHeapCentral18ReallocLargeMemoryEPvmPS3_ = 0x878c8
_ZN2nn7nlibsdk4heap14TlsHeapCentral14GetPhyFreeSizeEPm = 0x87efc
_ZN2nn7nlibsdk4heap14TlsHeapCentral12GetMemStats_EPNS1_15TlsHeapMemStatsE = 0x87f48
_ZN2nn7nlibsdk4heap14TlsHeapCentral5Dump_E15NMallocDumpModei = 0x880bc
_ZN2nn7nlibsdk4heap14TlsHeapCentral18WalkAllocatedPtrs_EPFiPvmS3_ES3_ = 0x88220
_ZN2nn7nlibsdk4heap14TlsHeapCentral14CheckSpanList_Ev = 0x88414
_ZN2nn7nlibsdk4heap14TlsHeapCentral12CalcHeapHashEP8HeapHash = 0x885f4
_ZN2nn7nlibsdk4heap14TlsHeapCentral7IsCleanEv = 0x88790
_ZN2nn7nlibsdk4heap18NotNMallocPtrErrorEPKv = 0x888dc
_ZN2nn7nlibsdk4heap19DataCorruptionErrorEPKv = 0x888e0
_ZN2nn7nlibsdk4heap11CentralHeap4InitEPvmj = 0x888e4
_ZN2nn7nlibsdk4heap11CentralHeap8FinalizeEv = 0x88a44
_ZN2nn7nlibsdk4heap11CentralHeap9MakeCacheEPNS1_10CachedHeapE = 0x88aa4
_ZN2nn7nlibsdk4heap11CentralHeap5AllocEmm = 0x88b7c
_ZN2nn7nlibsdk4heap11CentralHeap4FreeEPv = 0x88d0c
_ZN2nn7nlibsdk4heap11CentralHeap12FreeWithSizeEPvm = 0x88e08
_ZN2nn7nlibsdk4heap11CentralHeap12GetAllocSizeEPKv = 0x88ef8
_ZN2nn7nlibsdk4heap11CentralHeap7ReallocEPvmPS3_ = 0x88fb8
_ZN2nn7nlibsdk4heap11CentralHeap6QueryVEiSt9__va_list = 0x891b8
_ZN2nn7nlibsdk4heap11CentralHeap5QueryEiz = 0x898d8
_ZN2nn7nlibsdk4heap11CentralHeap17WalkAllocatedPtrsEPFiPvmS3_ES3_ = 0x8996c
_ZN2nn7nlibsdk4heap10CachedHeap5AllocEm = 0x899d4
_ZN2nn7nlibsdk4heap10CachedHeap5AllocEmm = 0x899e0
_ZN2nn7nlibsdk4heap10CachedHeap12GetAllocSizeEPKv = 0x899ec
_ZN2nn7nlibsdk4heap10CachedHeap4FreeEPv = 0x899f8
_ZN2nn7nlibsdk4heap10CachedHeap12FreeWithSizeEPvm = 0x89a04
_ZN2nn7nlibsdk4heap10CachedHeap7ReallocEPvmPS3_ = 0x89a10
_ZN2nn7nlibsdk4heap10CachedHeap15ReleaseAllCacheEv = 0x89a1c
_ZN2nn7nlibsdk4heap10CachedHeap10CheckCacheEv = 0x89a2c
_ZN2nn7nlibsdk4heap10CachedHeap5QueryEiz = 0x89a5c
_ZN2nn7nlibsdk4heap10CachedHeap8FinalizeEv = 0x89b68
_ZN2nn7nlibsdk4heap10CachedHeap5ResetEPNS1_12TlsHeapCacheE = 0x89b94
_ZN2nn7nlibsdk4heap10CachedHeap7ReleaseEv = 0x89bc8
_ZN2nn7nlibsdk4heap10CachedHeap6QueryVEiSt9__va_list = 0x89bd8
_ZN2nn3mem17StandardAllocatorC2Ev = 0x89ca4
_ZN2nn3mem17StandardAllocatorC1EPvm = 0x89cc4
_ZN2nn3mem17StandardAllocator10InitializeEPvm = 0x89ce8
_ZN2nn3mem17StandardAllocatorC1EPvmb = 0x89cf0
_ZN2nn3mem17StandardAllocator10InitializeEPvmb = 0x89d14
_ZN2nn3mem17StandardAllocator8FinalizeEv = 0x89e08
_ZN2nn3mem17StandardAllocator8AllocateEmm = 0x89e60
_ZN2nn3mem17StandardAllocator8AllocateEm = 0x89f54
_ZN2nn3mem17StandardAllocator4FreeEPv = 0x89f5c
_ZN2nn3mem17StandardAllocator10ReallocateEPvm = 0x89fbc
_ZNK2nn3mem17StandardAllocator9GetSizeOfEPKv = 0x8a0f4
_ZNK2nn3mem17StandardAllocator16GetTotalFreeSizeEv = 0x8a1ac
_ZNK2nn3mem17StandardAllocator18GetAllocatableSizeEv = 0x8a1f0
_ZNK2nn3mem17StandardAllocator16ClearThreadCacheEv = 0x8a234
_ZNK2nn3mem17StandardAllocator19WalkAllocatedBlocksEPFiPvmS2_ES2_ = 0x8a288
_ZNK2nn3mem17StandardAllocator4DumpEv = 0x8a300
_ZNK2nn3mem17StandardAllocator4HashEv = 0x8a34c
_ZN2nn3mem19NumberLineAllocator10InitializeEPFPvmS2_ES2_PFvS2_S2_ES2_ = 0x8a46c
_ZN2nn3mem22NumberLineAllocatorPrvD2Ev = 0x8a5e4
_ZN2nn3mem19NumberLineAllocator10InitializeEPFPvmS2_ES2_PFvS2_S2_ES2_b = 0x8a700
_ZN2nn3mem19NumberLineAllocator8FinalizeEv = 0x8a70c
_ZN2nn3mem19NumberLineAllocator8AddRangeEii = 0x8a75c
_ZN2nn3mem22NumberLineAllocatorPrv8AddRangeEjj = 0x8a7d8
_ZN2nn3mem19NumberLineAllocator11RemoveRangeEii = 0x8ac54
_ZN2nn3mem22NumberLineAllocatorPrv11RemoveRangeEjj = 0x8acd0
_ZN2nn3mem19NumberLineAllocator8AllocateEPii = 0x8b158
_ZN2nn3mem19NumberLineAllocator8AllocateEPiiPvPFvS3_E = 0x8b7f0
_ZN2nn3mem19NumberLineAllocator8AllocateEPiii = 0x8b8b8
_ZN2nn3mem19NumberLineAllocator8AllocateEPiiiPvPFvS3_E = 0x8c098
_ZN2nn3mem19NumberLineAllocator4FreeEi = 0x8c16c
_ZN2nn3mem22NumberLineAllocatorPrv4FreeEj = 0x8c1d0
_ZN2nn3mem19NumberLineAllocator12FindUserDataEPPvi = 0x8c4b8
_ZN2nn3mem19NumberLineAllocator9GetSizeOfEi = 0x8c5e8
_ZN2nn3mem19NumberLineAllocator16GetTotalFreeSizeEv = 0x8c70c
_ZN2nn3mem19NumberLineAllocator18GetAllocatableSizeEv = 0x8c7fc
_ZN2nn3mem19NumberLineAllocator4DumpEmi = 0x8c8f4
_ZN2nn3mem22NumberLineAllocatorPrv10CompactionEv = 0x8c93c
_ZN2nn2os11SetHostArgcEi = 0x8ce3c
_ZN2nn2os11GetHostArgcEv = 0x8ce4c
_ZN2nn2os11SetHostArgvEPPc = 0x8ce5c
_ZN2nn2os11GetHostArgvEv = 0x8ce6c
_ZN2nn2os17InitializeBarrierEPNS0_11BarrierTypeEi = 0x8ce7c
_ZN2nn2os15FinalizeBarrierEPNS0_11BarrierTypeE = 0x8ceb8
_ZN2nn2os12AwaitBarrierEPNS0_11BarrierTypeE = 0x8cec0
_ZN2nn2os14FlushDataCacheEPKvm = 0x8cf98
_ZN2nn2os20FlushEntireDataCacheEv = 0x8cfd4
_ZN2nn2os27InitializeConditionVariableEPNS0_21ConditionVariableTypeE = 0x8cfd8
_ZN2nn2os25FinalizeConditionVariableEPNS0_21ConditionVariableTypeE = 0x8d004
_ZN2nn2os23SignalConditionVariableEPNS0_21ConditionVariableTypeE = 0x8d00c
_ZN2nn2os26BroadcastConditionVariableEPNS0_21ConditionVariableTypeE = 0x8d014
_ZN2nn2os21WaitConditionVariableEPNS0_21ConditionVariableTypeEPNS0_9MutexTypeE = 0x8d01c
_ZN2nn2os26TimedWaitConditionVariableEPNS0_21ConditionVariableTypeEPNS0_9MutexTypeENS_8TimeSpanE = 0x8d09c
_ZN2nn2os19GetCurrentStackInfoEPmS1_ = 0x8d17c
_ZN2nn2os27GetCurrentStackInfoForDebugEPmS1_ = 0x8d1c8
_ZN2nn2os15QueryMemoryInfoEPNS0_10MemoryInfoE = 0x8d214
_ZN2nn2os23QueryMemoryInfoForDebugEPNS0_10MemoryInfoE = 0x8d218
_ZN2nn2os16GetIdleTickCountEv = 0x8d21c
_ZN2nn2os14IsMemoryLockedEmm = 0x8d274
_ZN2nn2os14IsMemoryLockedEPvm = 0x8d290
_ZN2nn2os15InitializeEventEPNS0_9EventTypeEbNS0_14EventClearModeE = 0x8d2ac
_ZN2nn2os13FinalizeEventEPNS0_9EventTypeE = 0x8d304
_ZN2nn2os11SignalEventEPNS0_9EventTypeE = 0x8d30c
_ZN2nn2os10ClearEventEPNS0_9EventTypeE = 0x8d3ac
_ZN2nn2os9WaitEventEPNS0_9EventTypeE = 0x8d3dc
_ZN2nn2os12TryWaitEventEPNS0_9EventTypeE = 0x8d460
_ZN2nn2os14TimedWaitEventEPNS0_9EventTypeENS_8TimeSpanE = 0x8d4b0
_ZN2nn2os25InitializeMultiWaitHolderEPNS0_19MultiWaitHolderTypeEPNS0_9EventTypeE = 0x8d584
_ZN2nn2os20InitializeLightEventEPNS0_14LightEventTypeEbNS0_14EventClearModeE = 0x8d5ac
_ZN2nn2os18FinalizeLightEventEPNS0_14LightEventTypeE = 0x8d5dc
_ZN2nn2os16SignalLightEventEPNS0_14LightEventTypeE = 0x8d5e4
_ZN2nn2os6detail20SignalLightEventImplEPNS0_14LightEventTypeE = 0x8d5e8
_ZN2nn2os15ClearLightEventEPNS0_14LightEventTypeE = 0x8d744
_ZN2nn2os14WaitLightEventEPNS0_14LightEventTypeE = 0x8d76c
_ZN2nn2os6detail18WaitLightEventImplEPNS0_14LightEventTypeE = 0x8d770
_ZN2nn2os17TryWaitLightEventEPNS0_14LightEventTypeE = 0x8d8e0
_ZN2nn2os19TimedWaitLightEventEPNS0_14LightEventTypeENS_8TimeSpanE = 0x8d92c
_ZN2nn2os6detail23TimedWaitLightEventImplEPNS0_14LightEventTypeENS_8TimeSpanE = 0x8d930
_ZN2nn2os15InitializeFiberEPNS0_9FiberTypeEPFS2_PvES3_S3_mi = 0x8db68
_ZN2nn2os13FinalizeFiberEPNS0_9FiberTypeE = 0x8dcac
_ZN2nn2os13SwitchToFiberEPNS0_9FiberTypeE = 0x8dcec
_ZN2nn2os15GetCurrentFiberEv = 0x8de0c
_ZN2nn2os20InitializeTimerEventEPNS0_14TimerEventTypeENS0_14EventClearModeE = 0x8de1c
_ZN2nn2os18FinalizeTimerEventEPNS0_14TimerEventTypeE = 0x8de6c
_ZN2nn2os22StartOneShotTimerEventEPNS0_14TimerEventTypeENS_8TimeSpanE = 0x8de74
_ZN2nn2os23StartPeriodicTimerEventEPNS0_14TimerEventTypeENS_8TimeSpanES3_ = 0x8def8
_ZN2nn2os14StopTimerEventEPNS0_14TimerEventTypeE = 0x8df80
_ZN2nn2os16SignalTimerEventEPNS0_14TimerEventTypeE = 0x8dfe8
_ZN2nn2os15ClearTimerEventEPNS0_14TimerEventTypeE = 0x8e09c
_ZN2nn2os14WaitTimerEventEPNS0_14TimerEventTypeE = 0x8e150
_ZN2nn2os17TryWaitTimerEventEPNS0_14TimerEventTypeE = 0x8e2d8
_ZN2nn2os25InitializeMultiWaitHolderEPNS0_19MultiWaitHolderTypeEPNS0_14TimerEventTypeE = 0x8e3b8
_ZN2nn2os24InitializeInterruptEventEPNS0_18InterruptEventTypeEiNS0_14EventClearModeE = 0x8e3e0
_ZN2nn2os22FinalizeInterruptEventEPNS0_18InterruptEventTypeE = 0x8e410
_ZN2nn2os19ClearInterruptEventEPNS0_18InterruptEventTypeE = 0x8e41c
_ZN2nn2os18WaitInterruptEventEPNS0_18InterruptEventTypeE = 0x8e424
_ZN2nn2os21TryWaitInterruptEventEPNS0_18InterruptEventTypeE = 0x8e42c
_ZN2nn2os23TimedWaitInterruptEventEPNS0_18InterruptEventTypeENS_8TimeSpanE = 0x8e434
_ZN2nn2os25InitializeMultiWaitHolderEPNS0_19MultiWaitHolderTypeEPNS0_18InterruptEventTypeE = 0x8e43c
_ZN2nn2os17CreateSystemEventEPNS0_15SystemEventTypeENS0_14EventClearModeEb = 0x8e464
_ZN2nn2os17AttachSystemEventEPNS0_15SystemEventTypeEjbjbNS0_14EventClearModeE = 0x8e4b8
_ZN2nn2os33AttachReadableHandleToSystemEventEPNS0_15SystemEventTypeEjbNS0_14EventClearModeE = 0x8e4e8
_ZN2nn2os33AttachWritableHandleToSystemEventEPNS0_15SystemEventTypeEjbNS0_14EventClearModeE = 0x8e524
_ZN2nn2os33DetachReadableHandleOfSystemEventEPNS0_15SystemEventTypeE = 0x8e568
_ZN2nn2os33DetachWritableHandleOfSystemEventEPNS0_15SystemEventTypeE = 0x8e56c
_ZN2nn2os18DestroySystemEventEPNS0_15SystemEventTypeE = 0x8e570
_ZN2nn2os15WaitSystemEventEPNS0_15SystemEventTypeE = 0x8e5b0
_ZN2nn2os18TryWaitSystemEventEPNS0_15SystemEventTypeE = 0x8e5ec
_ZN2nn2os20TimedWaitSystemEventEPNS0_15SystemEventTypeENS_8TimeSpanE = 0x8e628
_ZN2nn2os17SignalSystemEventEPNS0_15SystemEventTypeE = 0x8e664
_ZN2nn2os16ClearSystemEventEPNS0_15SystemEventTypeE = 0x8e6a0
_ZN2nn2os30GetReadableHandleOfSystemEventEPKNS0_15SystemEventTypeE = 0x8e6dc
_ZN2nn2os30GetWritableHandleOfSystemEventEPKNS0_15SystemEventTypeE = 0x8e6e0
_ZN2nn2os30GetReadableHandleOfSystemEventEPNS0_15SystemEventTypeE = 0x8e6e4
_ZN2nn2os30GetWritableHandleOfSystemEventEPNS0_15SystemEventTypeE = 0x8e6e8
_ZN2nn2os25InitializeMultiWaitHolderEPNS0_19MultiWaitHolderTypeEPNS0_15SystemEventTypeE = 0x8e6ec
_ZN2nn2os22InitializeMessageQueueEPNS0_16MessageQueueTypeEPmm = 0x8e760
_ZN2nn2os20FinalizeMessageQueueEPNS0_16MessageQueueTypeE = 0x8e7c4
_ZN2nn2os16SendMessageQueueEPNS0_16MessageQueueTypeEm = 0x8e7cc
_ZN2nn2os19TrySendMessageQueueEPNS0_16MessageQueueTypeEm = 0x8e880
_ZN2nn2os21TimedSendMessageQueueEPNS0_16MessageQueueTypeEmNS_8TimeSpanE = 0x8e930
_ZN2nn2os15JamMessageQueueEPNS0_16MessageQueueTypeEm = 0x8ea64
_ZN2nn2os18TryJamMessageQueueEPNS0_16MessageQueueTypeEm = 0x8eb18
_ZN2nn2os20TimedJamMessageQueueEPNS0_16MessageQueueTypeEmNS_8TimeSpanE = 0x8ebc8
_ZN2nn2os19ReceiveMessageQueueEPmPNS0_16MessageQueueTypeE = 0x8ecfc
_ZN2nn2os22TryReceiveMessageQueueEPmPNS0_16MessageQueueTypeE = 0x8edac
_ZN2nn2os24TimedReceiveMessageQueueEPmPNS0_16MessageQueueTypeENS_8TimeSpanE = 0x8ee5c
_ZN2nn2os16PeekMessageQueueEPmPKNS0_16MessageQueueTypeE = 0x8ef8c
_ZN2nn2os19TryPeekMessageQueueEPmPKNS0_16MessageQueueTypeE = 0x8eff4
_ZN2nn2os21TimedPeekMessageQueueEPmPKNS0_16MessageQueueTypeENS_8TimeSpanE = 0x8f05c
_ZN2nn2os25InitializeMultiWaitHolderEPNS0_19MultiWaitHolderTypeEPNS0_16MessageQueueTypeENS0_20MessageQueueWaitTypeE = 0x8f144
_ZN2nn2os19InitializeMultiWaitEPNS0_13MultiWaitTypeE = 0x8f1a8
_ZN2nn2os17FinalizeMultiWaitEPNS0_13MultiWaitTypeE = 0x8f1e8
_ZN2nn2os7WaitAnyEPNS0_13MultiWaitTypeE = 0x8f1f0
_ZN2nn2os10TryWaitAnyEPNS0_13MultiWaitTypeE = 0x8f200
_ZN2nn2os12TimedWaitAnyEPNS0_13MultiWaitTypeENS_8TimeSpanE = 0x8f210
_ZN2nn2os23FinalizeMultiWaitHolderEPNS0_19MultiWaitHolderTypeE = 0x8f224
_ZN2nn2os19LinkMultiWaitHolderEPNS0_13MultiWaitTypeEPNS0_19MultiWaitHolderTypeE = 0x8f228
_ZN2nn2os21UnlinkMultiWaitHolderEPNS0_19MultiWaitHolderTypeE = 0x8f24c
_ZN2nn2os24UnlinkAllMultiWaitHolderEPNS0_13MultiWaitTypeE = 0x8f280
_ZN2nn2os22MoveAllMultiWaitHolderEPNS0_13MultiWaitTypeES2_ = 0x8f2bc
_ZN2nn2os26SetMultiWaitHolderUserDataEPNS0_19MultiWaitHolderTypeEm = 0x8f324
_ZN2nn2os26GetMultiWaitHolderUserDataEPKNS0_19MultiWaitHolderTypeE = 0x8f32c
_ZN2nn2os25InitializeMultiWaitHolderEPNS0_19MultiWaitHolderTypeEj = 0x8f334
_ZN2nn2os15InitializeMutexEPNS0_9MutexTypeEbi = 0x8f360
_ZN2nn2os13FinalizeMutexEPNS0_9MutexTypeE = 0x8f3a8
_ZN2nn2os9LockMutexEPNS0_9MutexTypeE = 0x8f3b0
_ZN2nn2os12TryLockMutexEPNS0_9MutexTypeE = 0x8f41c
_ZN2nn2os11UnlockMutexEPNS0_9MutexTypeE = 0x8f49c
_ZN2nn2os28IsMutexLockedByCurrentThreadEPKNS0_9MutexTypeE = 0x8f4bc
_ZN2nn2os19GenerateRandomBytesEPvm = 0x8f4d4
_ZN2nn2os26InitializeReaderWriterLockEPNS0_20ReaderWriterLockTypeE = 0x8f54c
_ZN2nn2os24FinalizeReaderWriterLockEPNS0_20ReaderWriterLockTypeE = 0x8f594
_ZN2nn2os15AcquireReadLockEPNS0_20ReaderWriterLockTypeE = 0x8f59c
_ZN2nn2os18TryAcquireReadLockEPNS0_20ReaderWriterLockTypeE = 0x8f64c
_ZN2nn2os15ReleaseReadLockEPNS0_20ReaderWriterLockTypeE = 0x8f6d8
_ZN2nn2os16AcquireWriteLockEPNS0_20ReaderWriterLockTypeE = 0x8f798
_ZN2nn2os19TryAcquireWriteLockEPNS0_20ReaderWriterLockTypeE = 0x8f838
_ZN2nn2os16ReleaseWriteLockEPNS0_20ReaderWriterLockTypeE = 0x8f8c4
_ZN2nn2os14IsReadLockHeldEPKNS0_20ReaderWriterLockTypeE = 0x8f964
_ZN2nn2os30IsWriteLockHeldByCurrentThreadEPKNS0_20ReaderWriterLockTypeE = 0x8f974
_ZN2nn2os29IsReaderWriterLockOwnerThreadEPKNS0_20ReaderWriterLockTypeE = 0x8f9a0
_ZN2nn2os24SdkConditionVariableType4WaitERNS0_12SdkMutexTypeE = 0x8f9b8
_ZN2nn2os24SdkConditionVariableType9TimedWaitERNS0_12SdkMutexTypeENS_8TimeSpanE = 0x8fa04
_ZN2nn2os24SdkConditionVariableType4WaitERNS0_21SdkRecursiveMutexTypeE = 0x8fac0
_ZN2nn2os24SdkConditionVariableType9TimedWaitERNS0_21SdkRecursiveMutexTypeENS_8TimeSpanE = 0x8fb30
_ZNK2nn2os12SdkMutexType23IsLockedByCurrentThreadEv = 0x8fc0c
_ZN2nn2os12SdkMutexType10InitializeEv = 0x8fc10
_ZN2nn2os12SdkMutexType4LockEv = 0x8fc14
_ZN2nn2os12SdkMutexType7TryLockEv = 0x8fc54
_ZN2nn2os12SdkMutexType6UnlockEv = 0x8fc94
_ZNK2nn2os21SdkRecursiveMutexType23IsLockedByCurrentThreadEv = 0x8fcd4
_ZN2nn2os21SdkRecursiveMutexType10InitializeEv = 0x8fcd8
_ZN2nn2os21SdkRecursiveMutexType4LockEv = 0x8fcfc
_ZN2nn2os21SdkRecursiveMutexType7TryLockEv = 0x8fd50
_ZN2nn2os21SdkRecursiveMutexType6UnlockEv = 0x8fdb4
_ZN2nn2os19InitializeSemaphoreEPNS0_13SemaphoreTypeEii = 0x8fe10
_ZN2nn2os17FinalizeSemaphoreEPNS0_13SemaphoreTypeE = 0x8fe5c
_ZN2nn2os16AcquireSemaphoreEPNS0_13SemaphoreTypeE = 0x8fe64
_ZN2nn2os19TryAcquireSemaphoreEPNS0_13SemaphoreTypeE = 0x8fec0
_ZN2nn2os21TimedAcquireSemaphoreEPNS0_13SemaphoreTypeENS_8TimeSpanE = 0x8ff14
_ZN2nn2os16ReleaseSemaphoreEPNS0_13SemaphoreTypeE = 0x8ffe4
_ZN2nn2os16ReleaseSemaphoreEPNS0_13SemaphoreTypeEi = 0x90050
_ZN2nn2os24GetCurrentSemaphoreCountEPKNS0_13SemaphoreTypeE = 0x900c0
_ZN2nn2os25InitializeMultiWaitHolderEPNS0_19MultiWaitHolderTypeEPNS0_13SemaphoreTypeE = 0x900c8
_ZN2nn2os12CreateThreadEPNS0_10ThreadTypeEPFvPvES3_S3_mii = 0x900f0
_ZN2nn2os12CreateThreadEPNS0_10ThreadTypeEPFvPvES3_S3_mi = 0x9014c
_ZN2nn2os13DestroyThreadEPNS0_10ThreadTypeE = 0x901a0
_ZN2nn2os11StartThreadEPNS0_10ThreadTypeE = 0x901b8
_ZN2nn2os13SetThreadNameEPNS0_10ThreadTypeEPKc = 0x901d0
_ZN2nn2os20SetThreadNamePointerEPNS0_10ThreadTypeEPKc = 0x90430
_ZN2nn2os20GetThreadNamePointerEPKNS0_10ThreadTypeE = 0x90454
_ZN2nn2os16GetCurrentThreadEv = 0x9045c
_ZN2nn2os20ChangeThreadPriorityEPNS0_10ThreadTypeEi = 0x90468
_ZN2nn2os17GetThreadPriorityEPKNS0_10ThreadTypeE = 0x904c8
_ZN2nn2os24GetThreadCurrentPriorityEPKNS0_10ThreadTypeE = 0x904d0
_ZN2nn2os11YieldThreadEv = 0x904e8
_ZN2nn2os11SleepThreadENS_8TimeSpanE = 0x904f8
_ZN2nn2os10WaitThreadEPNS0_10ThreadTypeE = 0x904fc
_ZN2nn2os20GetCurrentCoreNumberEv = 0x90514
_ZN2nn2os25GetCurrentProcessorNumberEv = 0x90524
_ZN2nn2os25InitializeMultiWaitHolderEPNS0_19MultiWaitHolderTypeEPNS0_10ThreadTypeE = 0x90534
_ZN2nn2os17SetThreadCoreMaskEPNS0_10ThreadTypeEim = 0x9055c
_ZN2nn2os17GetThreadCoreMaskEPiPmPKNS0_10ThreadTypeE = 0x90584
_ZN2nn2os26GetThreadAvailableCoreMaskEv = 0x905ac
_ZN2nn2os11GetThreadIdEPKNS0_10ThreadTypeE = 0x905bc
_ZN2nn2os9QuickExitEv = 0x905d4
_ZN2nn2os13SuspendThreadEPNS0_10ThreadTypeE = 0x905e4
_ZN2nn2os12ResumeThreadEPNS0_10ThreadTypeE = 0x905fc
_ZN2nn2os21GetThreadSuspendCountEPKNS0_10ThreadTypeE = 0x90614
_ZN2nn2os16GetThreadContextEPNS0_24ThreadContextInfoAarch64EPKNS0_10ThreadTypeE = 0x9061c
_ZN2nn2os15AllocateTlsSlotEPNS0_7TlsSlotEPFvmE = 0x9063c
_ZN2nn2os18SdkAllocateTlsSlotEPNS0_7TlsSlotEPFvmE = 0x9067c
_ZN2nn2os11FreeTlsSlotENS0_7TlsSlotE = 0x906bc
_ZN2nn2os11GetTlsValueENS0_7TlsSlotE = 0x906d0
_ZN2nn2os11SetTlsValueENS0_7TlsSlotEm = 0x906e4
_ZN2nn2os19GetUsedTlsSlotCountEv = 0x906f8
_ZN2nn2os13GetSystemTickEv = 0x90708
_ZN2nn2os22GetSystemTickFrequencyEv = 0x90710
_ZN2nn2os17ConvertToTimeSpanENS0_4TickE = 0x9071c
_ZN2nn2os13ConvertToTickENS_8TimeSpanE = 0x90734
_ZN2nn2os17SetMemoryHeapSizeEm = 0x9074c
_ZN2nn2os20GetMemoryHeapAddressEv = 0x90778
_ZN2nn2os17GetMemoryHeapSizeEv = 0x90788
_ZN2nn2os19AllocateMemoryBlockEPmm = 0x90798
_ZN2nn2os15FreeMemoryBlockEmm = 0x907cc
_ZN2nn2os19SetMemoryPermissionEmmNS0_16MemoryPermissionE = 0x9082c
_ZN2nn2os18SetMemoryAttributeEmmNS0_15MemoryAttributeE = 0x90830
_ZN2nn2os18CreateSharedMemoryEPNS0_16SharedMemoryTypeEmNS0_16MemoryPermissionES3_ = 0x90834
_ZN2nn2os18AttachSharedMemoryEPNS0_16SharedMemoryTypeEmjb = 0x90890
_ZN2nn2os19DestroySharedMemoryEPNS0_16SharedMemoryTypeE = 0x908d0
_ZN2nn2os17UnmapSharedMemoryEPNS0_16SharedMemoryTypeE = 0x9095c
_ZN2nn2os15MapSharedMemoryEPNS0_16SharedMemoryTypeENS0_16MemoryPermissionE = 0x909b8
_ZN2nn2os22GetSharedMemoryAddressEPKNS0_16SharedMemoryTypeE = 0x90b44
_ZN2nn2os19GetSharedMemorySizeEPKNS0_16SharedMemoryTypeE = 0x90b4c
_ZN2nn2os21GetSharedMemoryHandleEPKNS0_16SharedMemoryTypeE = 0x90b54
_ZN2nn2os20CreateTransferMemoryEPNS0_18TransferMemoryTypeEPvmNS0_16MemoryPermissionE = 0x90b5c
_ZN2nn2os20AttachTransferMemoryEPNS0_18TransferMemoryTypeEmjb = 0x90bb8
_ZN2nn2os20DetachTransferMemoryEPNS0_18TransferMemoryTypeE = 0x90bf8
_ZN2nn2os21DestroyTransferMemoryEPNS0_18TransferMemoryTypeE = 0x90c14
_ZN2nn2os19UnmapTransferMemoryEPNS0_18TransferMemoryTypeE = 0x90ca0
_ZN2nn2os17MapTransferMemoryEPPvPNS0_18TransferMemoryTypeENS0_16MemoryPermissionE = 0x90cfc
_ZN2nn2os17CloseNativeHandleEj = 0x90e78
_ZN2nn2os23SetUserExceptionHandlerEPFvPNS0_17UserExceptionInfoEEPvmS2_ = 0x90ec4
_ZN2nn2os37EnableUserExceptionHandlerOnDebuggingEb = 0x90f24
_ZN2nn2os27DefaultUserExceptionHandlerEPNS0_17UserExceptionInfoE = 0x90f38
_ZN2nn2os32SetMemoryAllocatorForThreadLocalEPFPvmmEPFvS1_mE = 0x90f80
_ZN2nn2os40MemoryAllocatorForThreadLocalInitializedEv = 0x90fd0
nnosAllocateMemoryForThreadLocal = 0x90fe4
nnosFreeMemoryForThreadLocal = 0x90ff4
nnosGetModuleCountMax = 0x9100c
_ZN2nn2os17GetLastThreadInfoEPPNS0_10ThreadTypeEPNS0_20SdkLastThreadContextEPj = 0x91014
_ZN2nn2os18GetThreadStackInfoEPmS1_PKNS0_10ThreadTypeE = 0x910c4
_ZN2nn2dd23GetCurrentProcessHandleEv = 0x91128
_ZN2nn2os23GetCurrentProcessHandleEv = 0x91130
nnosExitProcess = 0x91138
_ZN2nn2os6detail26ThreadManagerImplByHorizon15ExitProcessImplEv = 0x91150
nnosNotifyDebugger = 0x91174
nnosBreak = 0x91178
_ZN2nn2os30InitializeVirtualAddressMemoryEv = 0x9119c
_ZN2nn2os21AllocateAddressRegionEPmm = 0x911ac
_ZN2nn2os14AllocateMemoryEPmm = 0x911e0
_ZN2nn2os19AllocateMemoryPagesEmm = 0x91214
_ZN2nn2os17FreeAddressRegionEm = 0x91248
_ZN2nn2os15FreeMemoryPagesEmm = 0x91274
_ZN2nn2os36GetVirtualAddressMemoryResourceUsageEv = 0x912a8
_ZN2nn2os29IsVirtualAddressMemoryEnabledEv = 0x912b8
nnosCreateThread = 0x912c8
nnosCreateThreadWithCoreNumber = 0x912e0
nnosDestroyThread = 0x912f8
nnosStartThread = 0x912fc
nnosGetCurrentThread = 0x91300
nnosWaitThread = 0x91304
nnosYieldThread = 0x91308
nnosSleepThread = 0x9130c
nnosChangeThreadPriority = 0x91310
nnosGetThreadPriority = 0x91314
nnosGetThreadCurrentPriority = 0x91318
nnosSetThreadName = 0x9131c
nnosSetThreadNamePointer = 0x91320
nnosGetThreadNamePointer = 0x91324
nnosGetCurrentProcessorNumber = 0x91328
nnosGetCurrentCoreNumber = 0x9132c
nnosQuickExit = 0x91330
nnosInitializeMultiWaitHolderForThread = 0x9133c
nnosInitializeSemaphore = 0x91340
nnosFinalizeSemaphore = 0x91344
nnosAcquireSemaphore = 0x91348
nnosTryAcquireSemaphore = 0x9134c
nnosTimedAcquireSemaphore = 0x91350
nnosReleaseSemaphore = 0x91354
nnosReleaseSemaphoreCount = 0x91358
nnosGetCurrentSemaphoreCount = 0x9135c
nnosInitializeMultiWaitHolderForSemaphore = 0x91360
nnosInitializeTimerEvent = 0x91364
nnosFinalizeTimerEvent = 0x91368
nnosStartOneShotTimerEvent = 0x9136c
nnosStartPeriodicTimerEvent = 0x91370
nnosStopTimerEvent = 0x91374
nnosSignalTimerEvent = 0x91378
nnosClearTimerEvent = 0x9137c
nnosWaitTimerEvent = 0x91380
nnosTryWaitTimerEvent = 0x91384
nnosInitializeMultiWaitHolderForTimerEvent = 0x91388
nnosInitializeMutex = 0x9138c
nnosFinalizeMutex = 0x91394
nnosLockMutex = 0x91398
nnosTryLockMutex = 0x9139c
nnosUnlockMutex = 0x913a0
nnosInitializeConditionVariable = 0x913a4
nnosFinalizeConditionVariable = 0x913a8
nnosSignalConditionVariable = 0x913ac
nnosBroadcastConditionVariable = 0x913b0
nnosWaitConditionVariable = 0x913b4
nnosTimedWaitConditionVariable = 0x913b8
nnosCreateSystemEvent = 0x913bc
nnosAttachSystemEvent = 0x913d8
nnosAttachReadableHandleToSystemEvent = 0x913e4
nnosAttachWritableHandleToSystemEvent = 0x913ec
nnosDetachReadableHandleOfSystemEvent = 0x913f4
nnosDetachWritableHandleOfSystemEvent = 0x913f8
nnosDestroySystemEvent = 0x913fc
nnosWaitSystemEvent = 0x91400
nnosTryWaitSystemEvent = 0x91404
nnosTimedWaitSystemEvent = 0x91408
nnosSignalSystemEvent = 0x9140c
nnosClearSystemEvent = 0x91410
nnosGetReadableHandleOfSystemEvent = 0x91414
nnosGetWritableHandleOfSystemEvent = 0x91418
nnosInitializeMultiWaitHolderForSystemEvent = 0x9141c
nnosInitializeEvent = 0x91420
nnosFinalizeEvent = 0x91428
nnosWaitEvent = 0x9142c
nnosTimedWaitEvent = 0x91430
nnosTryWaitEvent = 0x91434
nnosSignalEvent = 0x91438
nnosClearEvent = 0x9143c
nnosInitializeMultiWaitHolderForEvent = 0x91440
nnosInitializeInterruptEvent = 0x91444
nnosFinalizeInterruptEvent = 0x91448
nnosWaitInterruptEvent = 0x9144c
nnosTimedWaitInterruptEvent = 0x91450
nnosTryWaitInterruptEvent = 0x91454
nnosClearInterruptEvent = 0x91458
nnosInitializeMultiWaitHolderForInterruptEvent = 0x9145c
nnosInitializeMessageQueue = 0x91460
nnosFinalizeMessageQueue = 0x91464
nnosSendMessageQueue = 0x91468
nnosTrySendMessageQueue = 0x9146c
nnosTimedSendMessageQueue = 0x91470
nnosJamMessageQueue = 0x91474
nnosTryJamMessageQueue = 0x91478
nnosTimedJamMessageQueue = 0x9147c
nnosReceiveMessageQueue = 0x91480
nnosTryReceiveMessageQueue = 0x91484
nnosTimedReceiveMessageQueue = 0x91488
nnosPeekMessageQueue = 0x9148c
nnosTryPeekMessageQueue = 0x91490
nnosTimedPeekMessageQueue = 0x91494
nnosInitializeMultiWaitHolderForMessageQueue = 0x91498
nnosInitializeMultiWait = 0x9149c
nnosFinalizeMultiWait = 0x914a0
nnosWaitAny = 0x914a4
nnosTryWaitAny = 0x914a8
nnosTimedWaitAny = 0x914ac
nnosFinalizeMultiWaitHolder = 0x914b0
nnosLinkMultiWaitHolder = 0x914b4
nnosUnlinkMultiWaitHolder = 0x914b8
nnosUnlinkAllMultiWaitHolder = 0x914bc
nnosMoveAllMultiWaitHolder = 0x914c0
nnosSetMultiWaitHolderUserData = 0x914c4
nnosGetMultiWaitHolderUserData = 0x914c8
nnosCloseNativeHandle = 0x914cc
nnosAllocateTlsSlot = 0x914d0
nnosFreeTlsSlot = 0x914e8
nnosGetTlsValue = 0x914f0
nnosSetTlsValue = 0x914f8
nnosGetUsedTlsSlotCount = 0x91500
nnosGetSystemTick = 0x91504
nnosGetSystemTickFrequency = 0x91508
nnosConvertTickToNanoSeconds = 0x9150c
nnosConvertNanoSecondsToTick = 0x91510
_ZN2nn2os6detail14NotImplementedEPKci = 0x91514
_ZN2nn2os6detail26ExpandUnsignedValueToAsciiEPcmi = 0x91534
_ZN2nn2os6detail23CreateInterProcessEventEPNS1_21InterProcessEventTypeENS0_14EventClearModeE = 0x9158c
_ZN2nn2os6detail24DestroyInterProcessEventEPNS1_21InterProcessEventTypeE = 0x915f4
_ZN2nn2os6detail23AttachInterProcessEventEPNS1_21InterProcessEventTypeEjbjbNS0_14EventClearModeE = 0x91644
_ZN2nn2os6detail39DetachReadableHandleOfInterProcessEventEPNS1_21InterProcessEventTypeE = 0x91674
_ZN2nn2os6detail39DetachWritableHandleOfInterProcessEventEPNS1_21InterProcessEventTypeE = 0x91688
_ZN2nn2os6detail21WaitInterProcessEventEPNS1_21InterProcessEventTypeE = 0x9169c
_ZN2nn2os6detail24TryWaitInterProcessEventEPNS1_21InterProcessEventTypeE = 0x916ac
_ZN2nn2os6detail26TimedWaitInterProcessEventEPNS1_21InterProcessEventTypeENS_8TimeSpanE = 0x916bc
_ZN2nn2os6detail23SignalInterProcessEventEPNS1_21InterProcessEventTypeE = 0x916d4
_ZN2nn2os6detail22ClearInterProcessEventEPNS1_21InterProcessEventTypeE = 0x916dc
_ZN2nn2os6detail36GetReadableHandleOfInterProcessEventEPKNS1_21InterProcessEventTypeE = 0x916f0
_ZN2nn2os6detail36GetWritableHandleOfInterProcessEventEPKNS1_21InterProcessEventTypeE = 0x916f8
_ZN2nn2os6detail23SetupThreadObjectUnsafeEPNS0_10ThreadTypeEPFvPvES4_S4_mi = 0x91700
_ZN2nn2os6detail13ThreadManager13CleanupThreadEv = 0x917a0
_ZN2nn2os6detail13ThreadManager22CreateAliasStackUnsafeEPNS0_10ThreadTypeE = 0x91820
_ZN2nn2os6detail13ThreadManager22DeleteAliasStackUnsafeEPNS0_10ThreadTypeE = 0x918ec
_ZN2nn2os6detail13ThreadManager12CreateThreadEPNS0_10ThreadTypeEPFvPvES5_S5_mii = 0x91920
_ZN2nn2os6detail13ThreadManager12CreateThreadEPNS0_10ThreadTypeEPFvPvES5_S5_mi = 0x91bc0
_ZN2nn2os6detail13ThreadManager11StartThreadEPNS0_10ThreadTypeE = 0x91bdc
_ZN2nn2os6detail13ThreadManager10WaitThreadEPNS0_10ThreadTypeE = 0x91c30
_ZN2nn2os6detail13ThreadManager13DestroyThreadEPNS0_10ThreadTypeE = 0x91c90
_ZN2nn2os6detail13ThreadManager13SuspendThreadEPNS0_10ThreadTypeE = 0x91d9c
_ZN2nn2os6detail13ThreadManager12ResumeThreadEPNS0_10ThreadTypeE = 0x91df8
_ZN2nn2os6detail13ThreadManager16GetThreadContextEPNS0_24ThreadContextInfoAarch64EPKNS0_10ThreadTypeE = 0x91e5c
_ZN2nn2os6detail13ThreadManager26SetZeroToAllThreadsTlsSafeEi = 0x91ea8
_ZN2nn2os6detail13ThreadManager26SetInitialThreadNameUnsafeEPNS0_10ThreadTypeE = 0x91f08
_ZN2nn2os6detail13ThreadManagerC2Ev = 0x91f84
_ZNK2nn2os6detail10TlsManager25SearchUnusedTlsSlotUnsafeEb = 0x92048
_ZN2nn2os6detail10TlsManagerC2Ev = 0x922ec
_ZN2nn2os6detail10TlsManager20InvokeTlsDestructorsEv = 0x92324
_ZN2nn2os6detail10TlsManager15AllocateTlsSlotEPNS0_7TlsSlotEPFvmEb = 0x923d4
_ZN2nn2os6detail10TlsManager11FreeTlsSlotENS0_7TlsSlotE = 0x924c8
_ZNK2nn2os6detail11TickManager17ConvertToTimeSpanENS0_4TickE = 0x92558
_ZNK2nn2os6detail11TickManager13ConvertToTickENS_8TimeSpanE = 0x925a0
_ZN2nn2os6detail17MemoryHeapManager39ConcatenatePreviousFreeMemoryNodeUnsafeENS_4util13IntrusiveListINS1_14FreeMemoryNodeENS3_29IntrusiveListMemberNodeTraitsIS5_XadL_ZNS5_6m_nodeEEES5_EEE8iteratorE = 0x92600
_ZN2nn2os6detail17MemoryHeapManager19FindFreeSpaceUnsafeEm = 0x9266c
_ZN2nn2os6detail17MemoryHeapManager25SplitFreeMemoryNodeUnsafeENS_4util13IntrusiveListINS1_14FreeMemoryNodeENS3_29IntrusiveListMemberNodeTraitsIS5_XadL_ZNS5_6m_nodeEEES5_EEE8iteratorEm = 0x926bc
_ZN2nn2os6detail17MemoryHeapManager20AddToFreeSpaceUnsafeEmm = 0x926f8
_ZN2nn2os6detail17MemoryHeapManager29IsRegionAllocatedMemoryUnsafeEmm = 0x927f0
_ZN2nn2os6detail17MemoryHeapManager11SetHeapSizeEm = 0x92838
_ZN2nn2os6detail17MemoryHeapManager16AllocateFromHeapEPmm = 0x929b0
_ZN2nn2os6detail17MemoryHeapManager13ReleaseToHeapEmm = 0x92aec
_ZNK2nn2os6detail13TimeoutHelper19GetLeftTimeOnTargetEv = 0x92bd4
_ZN2nn2os6detail12SaturatedAddENS_8TimeSpanES2_ = 0x92c04
_ZN2nn2os6detail15StopTimerUnsafeEPNS0_14TimerEventTypeE = 0x92c18
_ZN2nn2os6detail48UpdateSignalStateAndRecalcNextTimeToWakeupUnsafeEPNS0_14TimerEventTypeENS_8TimeSpanE = 0x92c24
_ZN2nn2os6detail13MultiWaitImpl22RecalcMultiWaitTimeoutEPNS_8TimeSpanES3_ = 0x92d04
_ZN2nn2os6detail13MultiWaitImpl21ConstructObjectsArrayEPjPPNS1_19MultiWaitHolderBaseEi = 0x92d8c
_ZN2nn2os6detail13MultiWaitImpl38AddToEachObjectListAndCheckObjectStateEv = 0x92e1c
_ZN2nn2os6detail13MultiWaitImpl24RemoveFromEachObjectListEv = 0x92e98
_ZN2nn2os6detail13MultiWaitImpl19InternalWaitAnyImplEbNS_8TimeSpanE = 0x92edc
_ZN2nn2os6detail13MultiWaitImpl11WaitAnyImplEbNS_8TimeSpanE = 0x9321c
_ZN2nn2os6detail13MultiWaitImpl21NotifyAndWakeupThreadEPNS1_19MultiWaitHolderBaseE = 0x932f8
_ZNK2nn2os6detail23MultiWaitHolderOfThread10IsSignaledEv = 0x93344
_ZN2nn2os6detail23MultiWaitHolderOfThread15AddToObjectListEv = 0x9338c
_ZN2nn2os6detail23MultiWaitHolderOfThread20RemoveFromObjectListEv = 0x933dc
_ZNK2nn2os6detail31MultiWaitHolderOfUserWaitObject15GetNativeHandleEPj = 0x9343c
_ZNK2nn2os6detail19MultiWaitHolderBase23GetAbsoluteTimeToWakeupEv = 0x93444
_ZNK2nn2os6detail26MultiWaitHolderOfSemaphore10IsSignaledEv = 0x9344c
_ZN2nn2os6detail26MultiWaitHolderOfSemaphore15AddToObjectListEv = 0x93494
_ZN2nn2os6detail26MultiWaitHolderOfSemaphore20RemoveFromObjectListEv = 0x934e4
_ZNK2nn2os6detail22MultiWaitHolderOfEvent10IsSignaledEv = 0x93540
_ZN2nn2os6detail22MultiWaitHolderOfEvent15AddToObjectListEv = 0x93580
_ZN2nn2os6detail22MultiWaitHolderOfEvent20RemoveFromObjectListEv = 0x935d0
_ZNK2nn2os6detail27MultiWaitHolderOfTimerEvent10IsSignaledEv = 0x9362c
_ZN2nn2os6detail27MultiWaitHolderOfTimerEvent15AddToObjectListEv = 0x93678
_ZN2nn2os6detail27MultiWaitHolderOfTimerEvent20RemoveFromObjectListEv = 0x936c8
_ZNK2nn2os6detail27MultiWaitHolderOfTimerEvent23GetAbsoluteTimeToWakeupEv = 0x93724
_ZNK2nn2os6detail31MultiWaitHolderOfInterruptEvent10IsSignaledEv = 0x93774
_ZNK2nn2os6detail31MultiWaitHolderOfInterruptEvent15GetNativeHandleEPj = 0x9377c
_ZN2nn2os6detail33MultiWaitHolderOfNativeWaitObject15AddToObjectListEv = 0x93790
_ZN2nn2os6detail33MultiWaitHolderOfNativeWaitObject20RemoveFromObjectListEv = 0x93794
_ZNK2nn2os6detail34MultiWaitHolderOfInterProcessEvent10IsSignaledEv = 0x93798
_ZNK2nn2os6detail34MultiWaitHolderOfInterProcessEvent15GetNativeHandleEPj = 0x937a0
_ZNK2nn2os6detail36MultiWaitHolderOfMessageQueueNotFull10IsSignaledEv = 0x937b4
_ZN2nn2os6detail36MultiWaitHolderOfMessageQueueNotFull15AddToObjectListEv = 0x937fc
_ZN2nn2os6detail36MultiWaitHolderOfMessageQueueNotFull20RemoveFromObjectListEv = 0x9384c
_ZNK2nn2os6detail37MultiWaitHolderOfMessageQueueNotEmpty10IsSignaledEv = 0x938a8
_ZN2nn2os6detail37MultiWaitHolderOfMessageQueueNotEmpty15AddToObjectListEv = 0x938f0
_ZN2nn2os6detail37MultiWaitHolderOfMessageQueueNotEmpty20RemoveFromObjectListEv = 0x93940
_ZNK2nn2os6detail29MultiWaitHolderOfNativeHandle10IsSignaledEv = 0x939a0
_ZNK2nn2os6detail29MultiWaitHolderOfNativeHandle15GetNativeHandleEPj = 0x939a8
_ZN2nn2os6detail21AddressSpaceAllocatorC2Emmm = 0x939b8
_ZN2nn2os6detail21AddressSpaceAllocator30GetNextNonOverlappedNodeUnsafeEmm = 0x93a04
_ZN2nn2os6detail21AddressSpaceAllocator13AllocateSpaceEmm = 0x93a64
_ZN2nn2os6detail21AddressSpaceAllocator15CheckGuardSpaceEmmm = 0x93b60
_ZN2nn2os6detail10RngManager17GenerateRandomU64Ev = 0x93bf8
_ZN2nn2os6detail11VammManagerC2Ev = 0x93c4c
_ZN2nn2os6detail24VammManagerImplByHorizon21GetReservedRegionImplEPmS3_ = 0x93c7c
_ZN2nn2os6detail11VammManager19InitializeIfEnabledEv = 0x93d1c
_ZNK2nn2os6detail11VammManager29IsVirtualAddressMemoryEnabledEv = 0x93d94
_ZN2nn2os6detail20AddressRegionManagerC2Emm = 0x93dd8
_ZN2nn2os6detail11VammManager21AllocateAddressRegionEPmm = 0x93ef4
_ZN2nn2os6detail11VammManager14AllocateMemoryEPmm = 0x940c8
_ZN2nn2os6detail11VammManager19AllocateMemoryPagesEmm = 0x945f4
_ZN2nn2os6detail11VammManager17FreeAddressRegionEm = 0x947bc
_ZN2nn2os6detail11VammManager15FreeMemoryPagesEmm = 0x948e8
_ZN2nn2os6detail11VammManager36GetVirtualAddressMemoryResourceUsageEv = 0x94ad4
_ZN2nn2os6detail18DebugImplByHorizon19GetCurrentStackInfoEPmS3_ = 0x94ea0
_ZN2nn2os6detail18DebugImplByHorizon15QueryMemoryInfoEPNS0_10MemoryInfoE = 0x94f48
_ZN2nn2os6detail38ExamineWholeAddressSpaceHasNoAttributeEmm = 0x95024
_ZN2nn2os6detail18FiberImplByHorizon10InitializeEPNS0_9FiberTypeEPFvS4_E = 0x950ac
_ZN2nn2os6detail18FiberImplByHorizon13MapAliasStackEPKvS4_m = 0x950c4
_ZN2nn2os6detail18FiberImplByHorizon15UnmapAliasStackEPKvS4_m = 0x950e0
_ZN2nn2os6detail20DispatchFiberContextEPPNS1_22FiberContextForHorizonES4_ = 0x950fc
_ZN2nn2os6detail17CallFiberFunctionEPFPNS0_9FiberTypeEPvES4_ = 0x95174
_ZN2nn2os6detail25SharedMemoryImplByHorizon6CreateEPjmNS0_16MemoryPermissionES4_ = 0x95190
_ZN2nn2os6detail25SharedMemoryImplByHorizon5CloseEj = 0x95264
_ZN2nn2os6detail25SharedMemoryImplByHorizon3MapEPPvjS3_mNS0_16MemoryPermissionE = 0x952ac
_ZN2nn2os6detail25SharedMemoryImplByHorizon5UnmapEjPvm = 0x95370
_ZN2nn2os6detail27TransferMemoryImplByHorizon6CreateEPjPvmNS0_16MemoryPermissionE = 0x953b8
_ZN2nn2os6detail27TransferMemoryImplByHorizon5CloseEj = 0x95488
_ZN2nn2os6detail27TransferMemoryImplByHorizon3MapEPPvjS3_mNS0_16MemoryPermissionE = 0x954d0
_ZN2nn2os6detail27TransferMemoryImplByHorizon5UnmapEjPvm = 0x955c4
_ZN2nn2os6detail22MultiWaitImplByHorizon20WaitSynchronizationNEiPjil = 0x9560c
_ZN2nn2os6detail22MultiWaitImplByHorizon10CancelWaitEv = 0x956a0
_ZN2nn2os6detail26ThreadManagerImplByHorizonC1EPNS0_10ThreadTypeE = 0x956e8
_ZNK2nn2os6detail26ThreadManagerImplByHorizon13MapAliasStackEPKvS4_m = 0x957cc
_ZNK2nn2os6detail26ThreadManagerImplByHorizon15UnmapAliasStackEPKvS4_m = 0x95900
_ZN2nn2os6detail26ThreadManagerImplByHorizon12CreateThreadEPNS0_10ThreadTypeEPFvS4_Ei = 0x95928
_ZN2nn2os6detail26ThreadManagerImplByHorizon11StartThreadEPKNS0_10ThreadTypeE = 0x95b6c
_ZN2nn2os6detail26ThreadManagerImplByHorizon19DestroyThreadUnsafeEPNS0_10ThreadTypeE = 0x95bb4
_ZN2nn2os6detail26ThreadManagerImplByHorizon17WaitForExitThreadEPNS0_10ThreadTypeE = 0x95c04
_ZN2nn2os6detail26ThreadManagerImplByHorizon11YieldThreadEv = 0x95ca8
_ZN2nn2os6detail26ThreadManagerImplByHorizon14ChangePriorityEPNS0_10ThreadTypeEi = 0x95cb0
_ZNK2nn2os6detail26ThreadManagerImplByHorizon18GetCurrentPriorityEPKNS0_10ThreadTypeE = 0x95d00
_ZNK2nn2os6detail26ThreadManagerImplByHorizon11GetThreadIdEPKNS0_10ThreadTypeE = 0x95d54
_ZN2nn2os6detail26ThreadManagerImplByHorizon19SuspendThreadUnsafeEPNS0_10ThreadTypeE = 0x95dc0
_ZN2nn2os6detail26ThreadManagerImplByHorizon18ResumeThreadUnsafeEPNS0_10ThreadTypeE = 0x95e0c
_ZN2nn2os6detail26ThreadManagerImplByHorizon22GetThreadContextUnsafeEPNS0_24ThreadContextInfoAarch64EPKNS0_10ThreadTypeE = 0x95e58
_ZNK2nn2os6detail26ThreadManagerImplByHorizon20GetCurrentCoreNumberEv = 0x95f14
_ZNK2nn2os6detail26ThreadManagerImplByHorizon17SetThreadCoreMaskEPNS0_10ThreadTypeEim = 0x95f18
_ZNK2nn2os6detail26ThreadManagerImplByHorizon17GetThreadCoreMaskEPiPmPKNS0_10ThreadTypeE = 0x95f68
_ZNK2nn2os6detail26ThreadManagerImplByHorizon26GetThreadAvailableCoreMaskEv = 0x95fe0
_ZN2nn2os6detail27InterruptEventImplByHorizonC1EiNS0_14EventClearModeE = 0x96038
_ZN2nn2os6detail27InterruptEventImplByHorizonD2Ev = 0x960a8
_ZN2nn2os6detail27InterruptEventImplByHorizon5ClearEv = 0x960f0
_ZN2nn2os6detail27InterruptEventImplByHorizon4WaitEv = 0x96138
_ZN2nn2os6detail27InterruptEventImplByHorizon7TryWaitEv = 0x961c0
_ZN2nn2os6detail27InterruptEventImplByHorizon9TimedWaitENS_8TimeSpanE = 0x9623c
_ZN2nn2os6detail30InterProcessEventImplByHorizon6CreateEPjS3_ = 0x96334
_ZN2nn2os6detail30InterProcessEventImplByHorizon5CloseEj = 0x963e0
_ZN2nn2os6detail30InterProcessEventImplByHorizon6SignalEj = 0x9642c
_ZN2nn2os6detail30InterProcessEventImplByHorizon5ClearEj = 0x96474
_ZN2nn2os6detail30InterProcessEventImplByHorizon4WaitEjb = 0x964bc
_ZN2nn2os6detail30InterProcessEventImplByHorizon7TryWaitEjb = 0x96574
_ZN2nn2os6detail30InterProcessEventImplByHorizon9TimedWaitEjbNS_8TimeSpanE = 0x965ec
_ZN2nn2os6detail30MemoryHeapManagerImplByHorizon11SetHeapSizeEPmm = 0x9672c
_ZN2nn2os6detail23SetMemoryPermissionImplEmmNS0_16MemoryPermissionE = 0x967b8
_ZN2nn2os6detail22SetMemoryAttributeImplEmmNS0_15MemoryAttributeE = 0x968b4
_ZN2nn2os6detail38InternalConditionVariableImplByHorizonC2Ev = 0x96998
_ZN2nn2os6detail38InternalConditionVariableImplByHorizon10InitializeEv = 0x969a0
_ZN2nn2os6detail38InternalConditionVariableImplByHorizon6SignalEv = 0x969a8
_ZN2nn2os6detail38InternalConditionVariableImplByHorizon9BroadcastEv = 0x969b0
_ZN2nn2os6detail38InternalConditionVariableImplByHorizon4WaitEPNS1_23InternalCriticalSectionE = 0x969b8
_ZN2nn2os6detail38InternalConditionVariableImplByHorizon9TimedWaitEPNS1_23InternalCriticalSectionERKNS1_13TimeoutHelperE = 0x96a20
_ZN2nn2os6detail26TimeoutHelperImplByHorizon5SleepENS_8TimeSpanE = 0x96ac0
nnosInitialize = 0x96ad8
_ZN2nn2os6detail17OsResourceManagerC2Ev = 0x96cc8
_ZN2nn2os6detail29AslrSpaceManagerImplByHorizon22GetAslrSpaceEndAddressEv = 0x96dd0
_ZN2nn2os6detail30StackGuardManagerImplByHorizon23GetStackGuardEndAddressEv = 0x96e54
_ZN2nn2os6detail36InternalCriticalSectionImplByHorizonC2Ev = 0x96ed8
_ZN2nn2os6detail36InternalCriticalSectionImplByHorizon10InitializeEv = 0x96ee0
_ZN2nn2os6detail36InternalCriticalSectionImplByHorizon5EnterEv = 0x96ee8
_ZN2nn2os6detail36InternalCriticalSectionImplByHorizon8TryEnterEv = 0x96f5c
_ZN2nn2os6detail36InternalCriticalSectionImplByHorizon5LeaveEv = 0x96f8c
_ZNK2nn2os6detail36InternalCriticalSectionImplByHorizon23IsLockedByCurrentThreadEv = 0x96fc8
_ZN2nn2os6detail10RngManagerC2Ev = 0x96fe8
_ZN2nn2os6detail20InitializeRandomImplEPNS_4util6TinyMtE = 0x97058
_ZN2nn2os6detail18NotifyDebuggerImplE22nnosNotificationReasonmm = 0x970c4
_ZN2nn2os6detail9BreakImplE15nnosBreakReasonmm = 0x970d4
_ZN2nn2os6detail20UserExceptionHandlerEv = 0x97108
_ZN2nn6result6detail17OnUnhandledResultENS_6ResultE = 0x9745c
nnResultGetModule = 0x97494
nnResultGetDescription = 0x9749c
nnResultIsSuccess = 0x974a4
nnResultIsFailure = 0x974b0
nnResultSuccess = 0x974bc
_ZN2nn2ro10InitializeEv = 0x974c4
_ZN2nn2ro8FinalizeEv = 0x976b4
_ZN2nn2ro13GetBufferSizeEPmPKv = 0x97848
_ZN2nn2ro18RegisterModuleInfoEPNS0_16RegistrationInfoEPKv = 0x97878
_ZN2nn2ro20UnregisterModuleInfoEPNS0_16RegistrationInfoE = 0x97980
_ZN2nn2ro10LoadModuleEPNS0_6ModuleEPKvPvmi = 0x97a68
_ZN2nn2ro12LookupSymbolEPmPKc = 0x97ce8
_ZN2nn2ro18LookupModuleSymbolEPmPKNS0_6ModuleEPKc = 0x97e0c
_ZN2nn2ro12UnloadModuleEPNS0_6ModuleE = 0x97e60
_ZN2nn2sf13SharedPointerINS_2ro6detail12IRoInterfaceEED2Ev = 0x97fcc
_ZN2nn2sf4hipc6client24Hipc2ClientCoreProcessorILNS1_6detail11MessageTypeE4ENS0_4cmif6detail14CoreMethodInfoINSt3__15tupleIJNS7_18OutRawArgumentInfoILm8ELm8ELl0EEENS7_17InRawArgumentInfoILm8ELm8ELl0EEENSD_ILm8ELm8ELl8EEENSD_ILm8ELm8ELl16EEENSD_ILm8ELm8ELl24EEENSD_ILm8ELm8ELl32EEEEEELm40ELm8ELb1EEESJ_E7ProcessEPNS2_26Hipc2ClientProxyBaseObjectENS6_6client24OutRawClientArgumentTypeILm8ELm8EEENSO_23InRawClientArgumentTypeILm8ELm8EvEESS_SS_SS_SS_j = 0x9816c
_ZN2nn2sf4hipc6client24Hipc2ClientCoreProcessorILNS1_6detail11MessageTypeE4ENS0_4cmif6detail14CoreMethodInfoINSt3__15tupleIJNS7_17InRawArgumentInfoILm8ELm8ELl0EEENSB_ILm8ELm8ELl8EEEEEELm16ELm0ELb1EEESE_E7ProcessEPNS2_26Hipc2ClientProxyBaseObjectENS6_6client23InRawClientArgumentTypeILm8ELm8EvEESL_j = 0x982a0
_ZN2nn2sf4hipc6client24Hipc2ClientCoreProcessorILNS1_6detail11MessageTypeE4ENS0_4cmif6detail14CoreMethodInfoINSt3__15tupleIJNS7_17InRawArgumentInfoILm8ELm8ELl0EEENSB_ILm8ELm8ELl8EEENSB_ILm8ELm8ELl16EEEEEELm24ELm0ELb1EEESF_E7ProcessEPNS2_26Hipc2ClientProxyBaseObjectENS6_6client23InRawClientArgumentTypeILm8ELm8EvEESM_SM_j = 0x983a0
_ZN2nn2sf4hipc6client24Hipc2ClientCoreProcessorILNS1_6detail11MessageTypeE4ENS0_4cmif6detail14CoreMethodInfoINSt3__15tupleIJNS7_17InRawArgumentInfoILm8ELm8ELl0EEENS7_20InHandleArgumentInfoILi0ELi1EEEEEELm8ELm0ELb1EEESF_E7ProcessEPNS2_26Hipc2ClientProxyBaseObjectENS6_6client23InRawClientArgumentTypeILm8ELm8EvEENSK_26InHandleClientArgumentTypeEj = 0x984a8
_ZN2nn2ro6detail16GetExceptionInfoEPNS1_13ExceptionInfoEm = 0x985fc
_ZN2nn2ro6detail4BindEPNS1_8RoModuleEj = 0x98808
_ZN2nn2ro6detail8RoModule8BindLazyEj = 0x98900
_ZN2nn2ro6detail18LookupGlobalManualEPKc = 0x989f8
_ZNK2nn2ro6detail8RoModule6LookupEPKc = 0x98b94
_ZN2nn2ro6detail8RoModule10InitializeEmPKNS1_3Elf5Elf643DynE = 0x98c8c
_ZN2nn2ro6detail8RoModule8CallInitEv = 0x98e80
_ZN2nn2ro6detail8RoModule8CallFiniEv = 0x98e90
_ZNK2nn2ro6detail8RoModule10ResolveSymEPmNS1_3Elf5Elf643SymE = 0x98ea0
_ZN2nn2ro6detail8RoModule10RelocationEb = 0x9901c
_ZN2nn2ro6detail8RoModule13BindVariablesEPKS2_ = 0x994d4
_ZN2nn2ro6detail8RoModule15RestoreFunctionEm = 0x99828
_ZN2nn2ro6detail8RoModule15RestoreVariableEPKcmm = 0x998f8
_ZN2nn2ro6detail8RoModule15RevertReferenceEPS2_m = 0x99b48
_ZN2nn2ro9BindEntryEv = 0x99c9c
_ZN2nn2sf26GetNewDeleteMemoryResourceEv = 0x99d18
_ZN2nn2sf30GetGlobalDefaultMemoryResourceEv = 0x99d5c
_ZN2nn2sf30SetGlobalDefaultMemoryResourceEPNS_14MemoryResourceE = 0x99d6c
_ZN2nn2sf24GetCurrentMemoryResourceEv = 0x99d84
_ZN2nn2sf24SetCurrentMemoryResourceEPNS_14MemoryResourceE = 0x99e18
_ZN2nn2sf33GetCurrentEffectiveMemoryResourceEv = 0x99ec8
_ZN2nn2sf33ScopedCurrentMemoryResourceSetterC1EPNS_14MemoryResourceE = 0x99fa0
_ZN2nn2sf33ScopedCurrentMemoryResourceSetterD2Ev = 0x9a054
_ZN2nn2sf6detail19DefaultAllocateImplEmmm = 0x9a068
_ZN2nn2sf6detail21DefaultDeallocateImplEPvmmm = 0x9a160
_ZN2nn14MemoryResourceD2Ev = 0x9a1a4
_ZN2nn2sf4cmif6server23CmifServerDomainManager14EntryAllocatorC1EPNSt3__115aligned_storageILm48ELm8EE4typeEi = 0x9a1e0
_ZN2nn2sf4cmif6server23CmifServerDomainManager14EntryAllocatorD2Ev = 0x9a274
_ZN2nn2sf4cmif6server23CmifServerDomainManager6DomainC2EPS3_ = 0x9a2dc
_ZN2nn2sf4cmif6server23CmifServerDomainManager6DomainD2Ev = 0x9a308
_ZN2nn2sf4cmif6server23CmifServerDomainManager14EntryAllocator15DeallocateEntryEPNS3_5EntryE = 0x9a3dc
_ZN2nn2sf4cmif6server23CmifServerDomainManager6Domain11DisposeImplEv = 0x9a420
_ZN2nn2sf4cmif6server23CmifServerDomainManager6Domain12ReserveEntryEPNS1_18CmifDomainObjectIdEi = 0x9a454
_ZN2nn2sf4cmif6server23CmifServerDomainManager14EntryAllocator13AllocateEntryEv = 0x9a514
_ZThn8_N2nn2sf4cmif6server23CmifServerDomainManager6Domain12ReserveEntryEPNS1_18CmifDomainObjectIdEi = 0x9a560
_ZN2nn2sf4cmif6server23CmifServerDomainManager6Domain14UnReserveEntryEPKNS1_18CmifDomainObjectIdEi = 0x9a620
_ZThn8_N2nn2sf4cmif6server23CmifServerDomainManager6Domain14UnReserveEntryEPKNS1_18CmifDomainObjectIdEi = 0x9a6c0
_ZN2nn2sf4cmif6server23CmifServerDomainManager6Domain14RegisterObjectENS1_18CmifDomainObjectIdEONS2_20CmifServerObjectInfoE = 0x9a760
_ZThn8_N2nn2sf4cmif6server23CmifServerDomainManager6Domain14RegisterObjectENS1_18CmifDomainObjectIdEONS2_20CmifServerObjectInfoE = 0x9a814
_ZN2nn2sf4cmif6server23CmifServerDomainManager6Domain16UnregisterObjectENS1_18CmifDomainObjectIdE = 0x9a8c8
_ZThn8_N2nn2sf4cmif6server23CmifServerDomainManager6Domain16UnregisterObjectENS1_18CmifDomainObjectIdE = 0x9a9f4
_ZN2nn2sf4cmif6server23CmifServerDomainManager6Domain9GetObjectENS1_18CmifDomainObjectIdE = 0x9aa00
_ZThn8_N2nn2sf4cmif6server23CmifServerDomainManager6Domain9GetObjectENS1_18CmifDomainObjectIdE = 0x9aad8
_ZN2nn2sf4cmif6server23CmifServerDomainManagerC2EPNSt3__115aligned_storageILm48ELm8EE4typeEi = 0x9abb0
_ZN2nn2sf4cmif6server23CmifServerDomainManager12CreateDomainEv = 0x9ac64
_ZN2nn2sf4cmif6server23CmifServerDomainManager6Domain12AddReferenceEv = 0x9acb8
_ZN2nn2sf4cmif6server23CmifServerDomainManager6Domain7ReleaseEv = 0x9acc0
_ZN2nn2sf14IServiceObject12GetProxyInfoEv = 0x9ad10
_ZN2nn2sf4cmif6server23CmifServerDomainManager6Domain9GetDomainEv = 0x9ad18
_ZN2nn2sf4hipc6client24HipcClientSessionManager19ConvertToDomainImplEPNS0_4cmif18CmifDomainObjectIdENS_3svc6HandleE = 0x9ad20
_ZN2nn2sf4hipc6client24HipcClientSessionManager16CreateNewSessionEPNS_3svc6HandleE = 0x9ad7c
_ZN2nn2sf4hipc6client22QueryPointerBufferSizeEPtNS_3svc6HandleE = 0x9addc
_ZN2nn2sf4hipc6client22ConvertSessionToDomainEPNS0_4cmif18CmifDomainObjectIdENS_3svc6HandleE = 0x9ae30
_ZN2nn2sf4hipc6client16DuplicateSessionEPNS_3svc6HandleES4_ = 0x9ae84
_ZN2nn2sf4hipc6client18DuplicateSessionExEPNS_3svc6HandleES4_j = 0x9af38
_ZNK2nn2sf4hipc6client22Hipc2ClientMessageBase19GetOutNativeHandlesEPNS0_12NativeHandleE = 0x9b66c
_ZN2nn2sf4hipc6detail25HipcMessageBufferAccessor6GetTagEPvm = 0x9b760
_ZN2nn2sf4hipc6detail25HipcMessageBufferAccessor15SetHeadPointersERKNS2_21HipcMessageHeaderInfoE = 0x9b790
_ZN2nn2sf4hipc6detail25HipcMessageBufferAccessor11SetupHeaderEPvmRKNS2_21HipcMessageHeaderInfoE = 0x9b8c8
_ZN2nn2sf4hipc6detail25HipcMessageBufferAccessor11ParseHeaderEPNS2_21HipcMessageHeaderInfoEPvm = 0x9baa8
_ZN2nn2sf4hipc6detail25HipcMessageBufferAccessor6SetTagEt = 0x9bb88
_ZNK2nn2sf4hipc6detail25HipcMessageBufferAccessor6GetTagEv = 0x9bb94
_ZN2nn2sf4hipc6detail25HipcMessageBufferAccessor12SetProcessIdEm = 0x9bba0
_ZNK2nn2sf4hipc6detail25HipcMessageBufferAccessor12GetProcessIdEv = 0x9bbac
_ZN2nn2sf4hipc6detail25HipcMessageBufferAccessor13SetCopyHandleEij = 0x9bbb8
_ZNK2nn2sf4hipc6detail25HipcMessageBufferAccessor13GetCopyHandleEi = 0x9bbc4
_ZN2nn2sf4hipc6detail25HipcMessageBufferAccessor13SetMoveHandleEij = 0x9bbd0
_ZNK2nn2sf4hipc6detail25HipcMessageBufferAccessor13GetMoveHandleEi = 0x9bbdc
_ZN2nn2sf4hipc6detail25HipcMessageBufferAccessor10SetPointerEimmi = 0x9bbe8
_ZNK2nn2sf4hipc6detail25HipcMessageBufferAccessor10GetPointerEi = 0x9bc20
_ZNK2nn2sf4hipc6detail25HipcMessageBufferAccessor22GetPointerReceiveIndexEi = 0x9bc48
_ZN2nn2sf4hipc6detail25HipcMessageBufferAccessor7SetSendEimmj = 0x9bc5c
_ZNK2nn2sf4hipc6detail25HipcMessageBufferAccessor7GetSendEi = 0x9bcac
_ZN2nn2sf4hipc6detail25HipcMessageBufferAccessor10SetReceiveEimmj = 0x9bce8
_ZNK2nn2sf4hipc6detail25HipcMessageBufferAccessor10GetReceiveEi = 0x9bd38
_ZN2nn2sf4hipc6detail25HipcMessageBufferAccessor11SetExchangeEimmj = 0x9bd74
_ZNK2nn2sf4hipc6detail25HipcMessageBufferAccessor11GetExchangeEi = 0x9bdc4
_ZNK2nn2sf4hipc6detail25HipcMessageBufferAccessor13GetRawPointerEv = 0x9be00
_ZN2nn2sf4hipc6detail25HipcMessageBufferAccessor14SetReceiveListEimm = 0x9be08
_ZNK2nn2sf4hipc6detail25HipcMessageBufferAccessor14GetReceiveListEi = 0x9be24
_ZN2nn2sf4hipc6server6detail29HipcAllInOneServerManagerBaseC2EPNSt3__115aligned_storageILm48ELm8EE4typeEi = 0x9be44
_ZN2nn2sf4hipc6server6detail29HipcAllInOneServerManagerBaseD2Ev = 0x9bf34
_ZN2nn2sf4hipc6server6detail29HipcAllInOneServerManagerBase16RegisterPortImplEPNS4_15PortForAllInOneENS_3svc6HandleE = 0x9c040
_ZN2nn2sf4hipc6server6detail29HipcAllInOneServerManagerBase14InitializePortEiNS_3svc6HandleE = 0x9c0a8
_ZN2nn2sf4hipc6server6detail29HipcAllInOneServerManagerBase18InitializePortImplEiONS0_4cmif6server20CmifServerObjectInfoENS_3svc6HandleE = 0x9c0e4
_ZN2nn2sf4hipc6server6detail29HipcAllInOneServerManagerBase14InitializePortEiiPKc = 0x9c1c8
_ZN2nn2sf4hipc6server6detail29HipcAllInOneServerManagerBase18InitializePortImplEiONS0_4cmif6server20CmifServerObjectInfoEiPKc = 0x9c220
_ZN2nn2sf4hipc6server6detail29HipcAllInOneServerManagerBase5StartEv = 0x9c34c
_ZN2nn2sf4hipc6server6detail29HipcAllInOneServerManagerBase11RequestStopEv = 0x9c354
_ZN2nn2sf4hipc6server6detail29HipcAllInOneServerManagerBase12WaitSignaledEv = 0x9c35c
_ZN2nn2sf4hipc6server6detail29HipcAllInOneServerManagerBase16ReceiveAsSessionEPNS_2os19MultiWaitHolderTypeE = 0x9c440
_ZN2nn2sf4hipc6server6detail29HipcAllInOneServerManagerBase16ReceiveAsSessionEPNS_2os19MultiWaitHolderTypeEPvm = 0x9c4d0
_ZN2nn2sf4hipc6server6detail29HipcAllInOneServerManagerBase16ProcessAsSessionEPNS_2os19MultiWaitHolderTypeE = 0x9c560
_ZN2nn2sf4hipc6server6detail29HipcAllInOneServerManagerBase16ProcessAsSessionEPNS_2os19MultiWaitHolderTypeEPvm = 0x9c610
_ZN2nn2sf4hipc6server6detail29HipcAllInOneServerManagerBase20ProcessInvokeRequestEPNS_2os19MultiWaitHolderTypeE = 0x9c6c0
_ZN2nn2sf4hipc6server6detail29HipcAllInOneServerManagerBase29ProcessInvokeRequestWithDeferEPNS_2os19MultiWaitHolderTypeE = 0x9c7cc
_ZN2nn2sf4hipc6server6detail29HipcAllInOneServerManagerBase13ProcessAsPortEPNS_2os19MultiWaitHolderTypeE = 0x9c940
_ZN2nn2sf4hipc6server6detail29HipcAllInOneServerManagerBase27RegisterServerSessionToWaitEPNS2_17HipcServerSessionE = 0x9caac
_ZN2nn2sf4hipc6server6detail29HipcAllInOneServerManagerBase11ProcessAutoEPNS_2os19MultiWaitHolderTypeE = 0x9cb0c
_ZN2nn2sf4hipc6server6detail29HipcAllInOneServerManagerBase22WaitAndProcessAutoImplEv = 0x9cb7c
_ZN2nn2sf4hipc6server6detail29HipcAllInOneServerManagerBase18WaitAndProcessAutoEv = 0x9cc34
_ZN2nn2sf4hipc6server6detail29HipcAllInOneServerManagerBase8LoopAutoEv = 0x9cc38
_ZN2nn2sf4hipc6server6detail29HipcAllInOneServerManagerBase17AddUserWaitHolderEPNS_2os19MultiWaitHolderTypeE = 0x9cc60
_ZN2nn2sf4hipc6server24HipcServerSessionManager20DestroyServerSessionEPNS2_21HipcServerSessionBaseE = 0x9ccb4
_ZN2nn2sf4hipc6server24HipcServerSessionManager31RegisterServerSessionToWaitBaseEPNS2_21HipcServerSessionBaseE = 0x9cd18
_ZN2nn2sf4hipc6server24HipcServerSessionManager19CreateServerSessionEONS0_4cmif6server20CmifServerObjectInfoE = 0x9cd24
_ZN2nn2sf4hipc6server24HipcServerSessionManager29AllocatePointerTransferBufferEPmPNS2_17HipcServerSessionE = 0x9cda0
_ZN2nn2sf4hipc6server24HipcServerSessionManager31DeallocatePointerTransferBufferEPNS2_17HipcServerSessionEPvm = 0x9cdac
_ZN2nn2sf4hipc6server24HipcServerSessionManager35GetHipcServerSessionManagerInternalEj = 0x9cdb0
_ZNK2nn2sf4cmif6server20CmifServerObjectInfo19FunctionForBoolTypeEv = 0x9cdb4
_ZNK2nn2sf13SharedPointerINS0_14IServiceObjectEE19FunctionForBoolTypeEv = 0x9cdb8
_ZN2nn2sf4hipc6server21HipcServerSessionBase5ReplyEPvm = 0x9cdbc
_ZN2nn2sf4hipc6server28HipcServerSessionManagerBase12RegisterBaseEPNS2_21HipcServerSessionBaseENS_3svc6HandleE = 0x9cdd8
_ZN2nn2sf4hipc6server28HipcServerSessionManagerBase10AcceptBaseEPNS2_21HipcServerSessionBaseENS_3svc6HandleE = 0x9ce30
_ZN2nn2sf4hipc6server28HipcServerSessionManagerBase18ReceiveRequestBaseEPNS2_21HipcServerSessionBaseEPvmS6_m = 0x9cea4
_ZN2nn2sf4hipc6server28HipcServerSessionManagerBase14ProcessRequestEPNS2_21HipcServerSessionBaseEPvm = 0x9d004
_ZN2nn2sf4hipc6server28HipcServerSessionManagerBase16CloseSessionBaseEPNS2_21HipcServerSessionBaseE = 0x9d16c
_ZN2nn2sf4hipc6server24HipcServerSessionManager23ProcessInvokeMethodImplEONS0_4cmif6server20CmifServerObjectInfoEPNS2_17HipcServerSessionEPKNS1_6detail25HipcMessageBufferAccessorEPKNSA_21HipcMessageHeaderInfoEPvm = 0x9d1b8
_ZN2nn2sf4hipc6server24HipcServerSessionManager20ProcessManagerInvokeEPNS2_17HipcServerSessionEPKNS1_6detail25HipcMessageBufferAccessorEPKNS6_21HipcMessageHeaderInfoEPvm = 0x9d258
_ZN2nn2sf4hipc6server24HipcServerSessionManager24Process2InvokeMethodImplEONS0_4cmif6server20CmifServerObjectInfoEPNS2_17HipcServerSessionEPvmSA_m = 0x9d260
_ZN2nn2sf4hipc6server24HipcServerSessionManager21Process2ManagerInvokeEPNS2_17HipcServerSessionEPvmS6_m = 0x9d3a4
_ZN2nn2sf4hipc6server24HipcServerSessionManager14ProcessMessageEPNS2_21HipcServerSessionBaseEPKNS1_6detail25HipcMessageBufferAccessorEPKNS6_21HipcMessageHeaderInfoEPvm = 0x9d3ac
_ZN2nn2sf4hipc6server24HipcServerSessionManager15ProcessMessage2EPNS2_21HipcServerSessionBaseEPvmS6_m = 0x9d4fc
_ZN2nn2sf4hipc6server17HipcServerMessage17PrepareForProcessERKNS0_4cmif19CmifMessageMetaInfoE = 0x9d670
_ZNK2nn2sf4hipc6server17HipcServerMessage24OverwriteClientProcessIdEPm = 0x9d83c
_ZNK2nn2sf4hipc6server17HipcServerMessage10GetBuffersEPNS0_6detail14PointerAndSizeE = 0x9d868
_ZNK2nn2sf4hipc6server17HipcServerMessage18GetInNativeHandlesEPNS0_12NativeHandleE = 0x9d9b0
_ZNK2nn2sf4hipc6server17HipcServerMessage12GetInObjectsEPNS0_4cmif6server20CmifServerObjectInfoE = 0x9daa0
_ZN2nn2sf4hipc6server17HipcServerMessage22BeginPreparingForReplyEPNS0_6detail14PointerAndSizeE = 0x9daa8
_ZN2nn2sf4hipc6server17HipcServerMessage10SetBuffersEPNS0_6detail14PointerAndSizeE = 0x9dba8
_ZN2nn2sf4hipc6server17HipcServerMessage13SetOutObjectsEPNS0_4cmif6server20CmifServerObjectInfoE = 0x9dc38
_ZN2nn2sf4hipc6server17HipcServerMessage19SetOutNativeHandlesEPNS0_12NativeHandleE = 0x9dc94
_ZN2nn2sf4hipc6server17HipcServerMessage27BeginPreparingForErrorReplyEPNS0_6detail14PointerAndSizeEm = 0x9dd64
_ZN2nn2sf4cmif6server17CmifServerMessage20EndPreparingForReplyEv = 0x9ddf0
_ZN2nn2sf4hipc6server17HipcServerMessage12SetOutObjectEiONS0_4cmif6server20CmifServerObjectInfoE = 0x9ddf4
_ZN2nn2sf4hipc6server18Hipc2ServerMessage17PrepareForProcessERKNS0_4cmif19CmifMessageMetaInfoE = 0x9ded8
_ZNK2nn2sf4hipc6server18Hipc2ServerMessage24OverwriteClientProcessIdEPm = 0x9e1e0
_ZNK2nn2sf4hipc6server18Hipc2ServerMessage10GetBuffersEPNS0_6detail14PointerAndSizeE = 0x9e200
_ZNK2nn2sf4hipc6server18Hipc2ServerMessage18GetInNativeHandlesEPNS0_12NativeHandleE = 0x9e418
_ZNK2nn2sf4hipc6server18Hipc2ServerMessage12GetInObjectsEPNS0_4cmif6server20CmifServerObjectInfoE = 0x9e510
_ZN2nn2sf4hipc6server18Hipc2ServerMessage22BeginPreparingForReplyEPNS0_6detail14PointerAndSizeE = 0x9e518
_ZN2nn2sf4hipc6server18Hipc2ServerMessage10SetBuffersEPNS0_6detail14PointerAndSizeE = 0x9e63c
_ZN2nn2sf4hipc6server18Hipc2ServerMessage13SetOutObjectsEPNS0_4cmif6server20CmifServerObjectInfoE = 0x9e768
_ZN2nn2sf4hipc6server18Hipc2ServerMessage19SetOutNativeHandlesEPNS0_12NativeHandleE = 0x9e7c4
_ZN2nn2sf4hipc6server18Hipc2ServerMessage27BeginPreparingForErrorReplyEPNS0_6detail14PointerAndSizeEm = 0x9e88c
_ZN2nn2sf4hipc6detail23MakeHipcMessageDataInfoERKNS2_21HipcMessageHeaderInfoE = 0x9e94c
_ZN2nn2sf4hipc6server18Hipc2ServerMessage12SetOutObjectEiONS0_4cmif6server20CmifServerObjectInfoE = 0x9eaf4
_ZN2nn2sf4hipc6server34HipcServerSessionManagerWithDomain20ProcessManagerInvokeEPNS2_17HipcServerSessionEPKNS1_6detail25HipcMessageBufferAccessorEPKNS6_21HipcMessageHeaderInfoEPvm = 0x9ebcc
_ZN2nn2sf4hipc6server34HipcServerSessionManagerWithDomain21Process2ManagerInvokeEPNS2_17HipcServerSessionEPvmS6_m = 0x9ec60
_ZN2nn2sf22UnmanagedServiceObjectINS0_4hipc6detail12IHipcManagerENS2_6server34HipcServerSessionManagerWithDomain15HipcManagerImplEE12AddReferenceEv = 0x9ecf4
_ZN2nn2sf22UnmanagedServiceObjectINS0_4hipc6detail12IHipcManagerENS2_6server34HipcServerSessionManagerWithDomain15HipcManagerImplEE7ReleaseEv = 0x9ecf8
_ZN2nn2sf4impl6detail17ImplTemplateBaseTINS0_4hipc6detail12IHipcManagerES6_NS0_6detail27UnmanagedEmplacedImplHolderINS4_6server34HipcServerSessionManagerWithDomain15HipcManagerImplEEESC_S6_E40_nn_sf_sync_ConvertCurrentObjectToDomainENS0_3OutINS0_4cmif18CmifDomainObjectIdEvEE = 0x9ecfc
_ZN2nn2sf4impl6detail17ImplTemplateBaseTINS0_4hipc6detail12IHipcManagerES6_NS0_6detail27UnmanagedEmplacedImplHolderINS4_6server34HipcServerSessionManagerWithDomain15HipcManagerImplEEESC_S6_E33_nn_sf_sync_CopyFromCurrentDomainENS0_3OutINS0_12NativeHandleEvEENS0_4cmif18CmifDomainObjectIdE = 0x9edd8
_ZN2nn2sf4impl6detail17ImplTemplateBaseTINS0_4hipc6detail12IHipcManagerES6_NS0_6detail27UnmanagedEmplacedImplHolderINS4_6server34HipcServerSessionManagerWithDomain15HipcManagerImplEEESC_S6_E30_nn_sf_sync_CloneCurrentObjectENS0_3OutINS0_12NativeHandleEvEE = 0x9edf8
_ZN2nn2sf4impl6detail17ImplTemplateBaseTINS0_4hipc6detail12IHipcManagerES6_NS0_6detail27UnmanagedEmplacedImplHolderINS4_6server34HipcServerSessionManagerWithDomain15HipcManagerImplEEESC_S6_E34_nn_sf_sync_QueryPointerBufferSizeENS0_3OutItvEE = 0x9ee14
_ZN2nn2sf4impl6detail17ImplTemplateBaseTINS0_4hipc6detail12IHipcManagerES6_NS0_6detail27UnmanagedEmplacedImplHolderINS4_6server34HipcServerSessionManagerWithDomain15HipcManagerImplEEESC_S6_E32_nn_sf_sync_CloneCurrentObjectExENS0_3OutINS0_12NativeHandleEvEEj = 0x9ee28
_ZN2nn2sf4cmif6server22CmifDomainServerObject14ProcessMessageEPNS0_14IServiceObjectEPNS2_17CmifServerMessageERKNS0_6detail14PointerAndSizeE = 0x9ee80
_ZN2nn2sf4cmif6server22CmifDomainServerObject18ProcessMessageImplEPNS2_17CmifServerMessageEPNS2_16CmifServerDomainENS0_6detail14PointerAndSizeE = 0x9eec0
_ZN2nn2sf4cmif6server22CmifDomainServerObject23CmifDomainServerMessage17PrepareForProcessERKNS1_19CmifMessageMetaInfoE = 0x9f054
_ZNK2nn2sf4cmif6server22CmifDomainServerObject23CmifDomainServerMessage24OverwriteClientProcessIdEPm = 0x9f148
_ZNK2nn2sf4cmif6server22CmifDomainServerObject23CmifDomainServerMessage10GetBuffersEPNS0_6detail14PointerAndSizeE = 0x9f16c
_ZNK2nn2sf4cmif6server22CmifDomainServerObject23CmifDomainServerMessage18GetInNativeHandlesEPNS0_12NativeHandleE = 0x9f190
_ZNK2nn2sf4cmif6server22CmifDomainServerObject23CmifDomainServerMessage12GetInObjectsEPNS2_20CmifServerObjectInfoE = 0x9f1b4
_ZN2nn2sf4cmif6server22CmifDomainServerObject23CmifDomainServerMessage22BeginPreparingForReplyEPNS0_6detail14PointerAndSizeE = 0x9f258
_ZN2nn2sf4cmif6server22CmifDomainServerObject23CmifDomainServerMessage10SetBuffersEPNS0_6detail14PointerAndSizeE = 0x9f2c4
_ZN2nn2sf4cmif6server22CmifDomainServerObject23CmifDomainServerMessage13SetOutObjectsEPNS2_20CmifServerObjectInfoE = 0x9f2d4
_ZN2nn2sf4cmif6server22CmifDomainServerObject23CmifDomainServerMessage19SetOutNativeHandlesEPNS0_12NativeHandleE = 0x9f394
_ZN2nn2sf4cmif6server22CmifDomainServerObject23CmifDomainServerMessage27BeginPreparingForErrorReplyEPNS0_6detail14PointerAndSizeEm = 0x9f3a4
_ZN2nn2sf4cmif6server22CmifDomainServerObject23CmifDomainServerMessage20EndPreparingForReplyEv = 0x9f418
_ZN2nn2sf4hipc6server34HipcServerSessionManagerWithDomain15HipcManagerImpl21CopyFromCurrentDomainENS0_3OutINS0_12NativeHandleEvEENS0_4cmif18CmifDomainObjectIdE = 0x9f428
_ZN2nn2sf4hipc6server34HipcServerSessionManagerWithDomain15HipcManagerImpl22CloneCurrentObjectImplENS0_3OutINS0_12NativeHandleEvEEPNS2_24HipcServerSessionManagerE = 0x9f598
_ZN2nn2sf4cmif6server6detail38CmifProcessFunctionTableGetterImplBaseINS0_4hipc6detail12IHipcManagerEE20ProcessServerMessageEPNS0_14IServiceObjectEPNS2_17CmifServerMessageERKNS0_6detail14PointerAndSizeE = 0x9f6f0
_ZN2nn2sf4cmif6server6detail34CmifProcessFunctionTableGetterImplINS0_4hipc6detail12IHipcManagerEE36Process_ConvertCurrentObjectToDomainEPPNS1_13CmifOutHeaderEPS7_PNS2_17CmifServerMessageEONS0_6detail14PointerAndSizeE = 0x9f890
_ZN2nn2sf4cmif6server6detail34CmifProcessFunctionTableGetterImplINS0_4hipc6detail12IHipcManagerEE29Process_CopyFromCurrentDomainEPPNS1_13CmifOutHeaderEPS7_PNS2_17CmifServerMessageEONS0_6detail14PointerAndSizeE = 0x9f9e0
_ZN2nn2sf4cmif6server6detail34CmifProcessFunctionTableGetterImplINS0_4hipc6detail12IHipcManagerEE26Process_CloneCurrentObjectEPPNS1_13CmifOutHeaderEPS7_PNS2_17CmifServerMessageEONS0_6detail14PointerAndSizeE = 0x9fb50
_ZN2nn2sf4cmif6server6detail34CmifProcessFunctionTableGetterImplINS0_4hipc6detail12IHipcManagerEE30Process_QueryPointerBufferSizeEPPNS1_13CmifOutHeaderEPS7_PNS2_17CmifServerMessageEONS0_6detail14PointerAndSizeE = 0x9fca4
_ZN2nn2sf4cmif6server6detail34CmifProcessFunctionTableGetterImplINS0_4hipc6detail12IHipcManagerEE28Process_CloneCurrentObjectExEPPNS1_13CmifOutHeaderEPS7_PNS2_17CmifServerMessageEONS0_6detail14PointerAndSizeE = 0x9fdf4
_ZN2nn2sf4impl6detail21ServiceObjectImplBase12AddReferenceEv = 0x9ff64
_ZN2nn2sf4impl6detail21ServiceObjectImplBase7ReleaseEv = 0x9ffa4
_ZN2nn2sf4impl6detail22ServiceObjectImplBase216AddReferenceImplEv = 0x9fff0
_ZN2nn2sf4impl6detail22ServiceObjectImplBase211ReleaseImplEv = 0xa002c
_ZN2nn2sf4hipc21CloseClientPortHandleENS_3svc6HandleE = 0xa006c
_ZN2nn2sf4hipc13ConnectToPortEPNS_3svc6HandleES3_ = 0xa00b4
_ZN2nn2sf4hipc24CloseClientSessionHandleENS_3svc6HandleE = 0xa00d0
_ZN2nn2sf4hipc21GetMessageBufferOnTlsEv = 0xa0118
_ZN2nn2sf4hipc15SendSyncRequestENS_3svc6HandleEPvm = 0xa0120
_ZN2nn2sf4hipc16SendAsyncRequestEPNS_3svc6HandleES3_Pvm = 0xa0180
_ZN2nn2sf4hipc23WaitClientRequestHandleENS_3svc6HandleEPvm = 0xa01c8
_ZN2nn2sf4hipc24CloseClientRequestHandleENS_3svc6HandleE = 0xa0240
_ZN2nn2sf4hipc10CreatePortEPNS_3svc6HandleES4_i = 0xa0288
_ZN2nn2sf4hipc21CloseServerPortHandleENS_3svc6HandleE = 0xa02a8
_ZN2nn2sf4hipc25AttachWaitHolderForAcceptEPNS_2os19MultiWaitHolderTypeENS_3svc6HandleE = 0xa02f0
_ZN2nn2sf4hipc13AcceptSessionEPNS_3svc6HandleES3_ = 0xa02f4
_ZN2nn2sf4hipc13CreateSessionEPNS_3svc6HandleES4_ = 0xa0310
_ZN2nn2sf4hipc24CloseServerSessionHandleENS_3svc6HandleE = 0xa0358
_ZN2nn2sf4hipc26AttachWaitHolderForReceiveEPNS_2os19MultiWaitHolderTypeENS_3svc6HandleE = 0xa03a0
_ZN2nn2sf4hipc7ReceiveEPbNS_3svc6HandleEPvm = 0xa03a4
_ZN2nn2sf4hipc7ReceiveEPNS1_13ReceiveResultENS_3svc6HandleEPvm = 0xa0450
_ZN2nn2sf4hipc5ReplyENS_3svc6HandleEPvm = 0xa0520
_ZN2nn2sf4hipc24AttachWaitHolderForReplyEPNS_2os19MultiWaitHolderTypeENS_3svc6HandleE = 0xa05d8
_ZN2nn2sf4hipc31InitializeHipcServiceResolutionEv = 0xa05dc
_ZN2nn2sf4hipc29FinalizeHipcServiceResolutionEv = 0xa0620
_ZN2nn2sf4hipc19RegisterHipcServiceEPNS_3svc6HandleEiPKc = 0xa0664
_ZN2nn2sf4hipc21UnregisterHipcServiceEPKc = 0xa06b4
_ZN2nn2sf4hipc23IsHipcServiceRegisteredEPKc = 0xa0708
_ZN2nn2sf4hipc20ConnectToHipcServiceEPNS_3svc6HandleEPKc = 0xa0728
_ZN2nn2sf4hipc23TryConnectToHipcServiceEPbPNS_3svc6HandleEPKc = 0xa0764
_ZN2nn2sm10InitializeEv = 0xa0784
_ZN2nn2sm8FinalizeEv = 0xa0948
_ZN2nn2sm16GetServiceHandleEPNS_3svc6HandleEPKcm = 0xa0950
_ZN2nn2sm15RegisterServiceEPNS_3svc6HandleEPKcmib = 0xa0a78
_ZN2nn2sm17UnregisterServiceEPKcm = 0xa0ba4
_ZN2nn2sf4hipc6client24Hipc2ClientCoreProcessorILNS1_6detail11MessageTypeE4ENS0_4cmif6detail14CoreMethodInfoINSt3__15tupleIJNS7_17InRawArgumentInfoILm8ELm8ELl0EEEEEELm8ELm0ELb1EEESD_E7ProcessEPNS2_26Hipc2ClientProxyBaseObjectENS6_6client23InRawClientArgumentTypeILm8ELm8EvEEj = 0xa0e54
_ZN2nn2sf4hipc6client24Hipc2ClientCoreProcessorILNS1_6detail11MessageTypeE4ENS0_4cmif6detail14CoreMethodInfoINSt3__15tupleIJNS7_21OutHandleArgumentInfoILi0ELi2EEENS7_17InRawArgumentInfoILm8ELm1ELl0EEEEEELm8ELm0ELb0EEESF_E7ProcessEPNS2_26Hipc2ClientProxyBaseObjectENS6_6client27OutHandleClientArgumentTypeENSK_23InRawClientArgumentTypeILm8ELm1EvEEj = 0xa0f48
_ZN2nn2sf4hipc6client24Hipc2ClientCoreProcessorILNS1_6detail11MessageTypeE4ENS0_4cmif6detail14CoreMethodInfoINSt3__15tupleIJNS7_21OutHandleArgumentInfoILi0ELi2EEENS7_17InRawArgumentInfoILm8ELm1ELl0EEENSD_ILm4ELm4ELl12EEENSD_ILm1ELm1ELl8EEEEEELm16ELm0ELb0EEESH_E7ProcessEPNS2_26Hipc2ClientProxyBaseObjectENS6_6client27OutHandleClientArgumentTypeENSM_23InRawClientArgumentTypeILm8ELm1EvEENSO_ILm4ELm4EvEENSO_ILm1ELm1EvEEj = 0xa10a4
_ZN2nn2sf4hipc6client24Hipc2ClientCoreProcessorILNS1_6detail11MessageTypeE4ENS0_4cmif6detail14CoreMethodInfoINSt3__15tupleIJNS7_17InRawArgumentInfoILm8ELm1ELl0EEEEEELm8ELm0ELb0EEESD_E7ProcessEPNS2_26Hipc2ClientProxyBaseObjectENS6_6client23InRawClientArgumentTypeILm8ELm1EvEEj = 0xa121c
_ZN2nn2sm20InitializeForManagerEv = 0xa1304
_ZN2nn2sm18FinalizeForManagerEv = 0xa1404
_ZN2nn2sm15RegisterProcessENS_2os9ProcessIdEPKvmS4_m = 0xa1424
_ZN2nn2sm17UnregisterProcessENS_2os9ProcessIdE = 0xa1470
_ZN2nn2sf13SharedPointerINS_2sm6detail17IManagerInterfaceEED2Ev = 0xa14a4
_ZN2nn2sf4hipc6client24Hipc2ClientCoreProcessorILNS1_6detail11MessageTypeE4ENS0_4cmif6detail14CoreMethodInfoINSt3__15tupleIJNS7_17InRawArgumentInfoILm8ELm8ELl0EEENS7_18BufferArgumentInfoILi0ELi5ELm0EEENSD_ILi1ELi5ELm0EEEEEELm8ELm0ELb0EEESG_E7ProcessEPNS2_26Hipc2ClientProxyBaseObjectENS6_6client23InRawClientArgumentTypeILm8ELm8EvEENSL_24BufferClientArgumentTypeESO_j = 0xa15f4
_ZN2nn2sf4hipc6client24Hipc2ClientCoreProcessorILNS1_6detail11MessageTypeE4ENS0_4cmif6detail14CoreMethodInfoINSt3__15tupleIJNS7_17InRawArgumentInfoILm8ELm8ELl0EEEEEELm8ELm0ELb0EEESD_E7ProcessEPNS2_26Hipc2ClientProxyBaseObjectENS6_6client23InRawClientArgumentTypeILm8ELm8EvEEj = 0xa176c
_ZN2nn6socket4RecvEiPvmi = 0xa1878
_ZN2nn6socket8RecvFromEiPvmiP8sockaddrPj = 0xa187c
_ZN2nn6socket4SendEiPKvmi = 0xa1880
_ZN2nn6socket6SendToEiPKvmiPK8sockaddrj = 0xa1884
_ZN2nn6socket6AcceptEiP8sockaddrPj = 0xa1888
_ZN2nn6socket4BindEiPK8sockaddrj = 0xa188c
_ZN2nn6socket7ConnectEiPK8sockaddrj = 0xa1890
_ZN2nn6socket11GetPeerNameEiP8sockaddrPj = 0xa1894
_ZN2nn6socket11GetSockNameEiP8sockaddrPj = 0xa1898
_ZN2nn6socket10GetSockOptEiiiPvPj = 0xa189c
_ZN2nn6socket6ListenEii = 0xa18a0
_ZN2nn6socket10SetSockOptEiiiPKvj = 0xa18a4
_ZN2nn6socket10SockAtMarkEi = 0xa18a8
_ZN2nn6socket8ShutdownEii = 0xa18ac
_ZN2nn6socket18ShutdownAllSocketsEb = 0xa18b0
_ZN2nn6socket6SocketEiii = 0xa18b8
_ZN2nn6socket12SocketExemptEiii = 0xa18bc
_ZN2nn6socket5WriteEiPKvm = 0xa18c0
_ZN2nn6socket4ReadEiPvm = 0xa18c4
_ZN2nn6socket5CloseEi = 0xa18c8
_ZN2nn6socket6SelectEiP6fd_setS2_S2_P7timeval = 0xa18cc
_ZN2nn6socket4PollEP6pollfdmi = 0xa18d0
_ZN2nn6socket5FcntlEiiz = 0xa18d4
_ZN2nn6socket8InetPtonEiPKcPv = 0xa1970
_ZN2nn6socket8InetNtopEiPKvPcj = 0xa1974
_ZN2nn6socket8InetAtonEPKcP7in_addr = 0xa1978
_ZN2nn6socket8InetNtoaE7in_addr = 0xa197c
_ZN2nn6socket9InetHtonsEt = 0xa1984
_ZN2nn6socket9InetHtonlEj = 0xa1988
_ZN2nn6socket9InetNtohsEt = 0xa198c
_ZN2nn6socket9InetNtohlEj = 0xa1990
_ZN2nn6socket12GetLastErrnoEv = 0xa1994
_ZN2nn6socket12SetLastErrnoEi = 0xa1998
_ZN2nn6socket7RecvMsgEiP6msghdri = 0xa199c
_ZN2nn6socket8RecvMMsgEiP7mmsghdrmiPNS_8TimeSpanE = 0xa19a0
_ZN2nn6socket7SendMsgEiPK6msghdri = 0xa19a4
_ZN2nn6socket8SendMMsgEiPK7mmsghdrmi = 0xa19a8
_ZN2nn6socket5IoctlEijPvm = 0xa19ac
_ZN2nn6socket4OpenEPKci = 0xa19b0
_ZN2nn6socket10InitializeEPvmmi = 0xa19b4
_ZN2nn6socket10InitializeERKNS0_6ConfigE = 0xa19cc
_ZN2nn6socket8FinalizeEv = 0xa19e4
_ZN2nn6socket11GetAddrInfoEPKcS2_PK8addrinfoPPS3_ = 0xa19fc
_ZN2nn6socket11GetAddrInfoEPKcS2_PK8addrinfoPPS3_PKNS0_14ResolverOptionEm = 0xa1a08
_ZN2nn6socket12FreeAddrInfoEP8addrinfo = 0xa1a0c
_ZN2nn6socket11GetNameInfoEPK8sockaddrjPcjS4_ji = 0xa1a10
_ZN2nn6socket11GetNameInfoEPK8sockaddrjPcjS4_jiPKNS0_14ResolverOptionEm = 0xa1a34
_ZN2nn6socket13GetHostByNameEPKc = 0xa1a40
_ZN2nn6socket13GetHostByNameEPKcPKNS0_14ResolverOptionEm = 0xa1a4c
_ZN2nn6socket13GetHostByAddrEPKvji = 0xa1a50
_ZN2nn6socket13GetHostByAddrEPKvjiPKNS0_14ResolverOptionEm = 0xa1a5c
_ZN2nn6socket19RequestCancelHandleEv = 0xa1a60
_ZN2nn6socket6CancelEi = 0xa1a64
_ZN2nn6socket9GetHErrnoEv = 0xa1a68
_ZN2nn6socket9HStrErrorEi = 0xa1a6c
_ZN2nn6socket11GAIStrErrorEi = 0xa1a70
_ZN2nn6socket6SysctlEPimPvPmS2_m = 0xa1a74
_ZN2nn6socket15DuplicateSocketEim = 0xa1a78
_ZN2nn6socket21GetResourceStatisticsENS0_14StatisticsTypeEPvmj = 0xa1a7c
nnsocketRecv = 0xa1a80
nnsocketRecvFrom = 0xa1a84
nnsocketSend = 0xa1a88
nnsocketSendTo = 0xa1a8c
nnsocketAccept = 0xa1a90
nnsocketBind = 0xa1a94
nnsocketConnect = 0xa1a98
nnsocketGetPeerName = 0xa1a9c
nnsocketGetSockName = 0xa1aa0
nnsocketGetSockOpt = 0xa1aa4
nnsocketListen = 0xa1aa8
nnsocketSetSockOpt = 0xa1aac
nnsocketSockAtMark = 0xa1ab0
nnsocketShutdown = 0xa1ab4
nnsocketSocket = 0xa1ab8
nnsocketWrite = 0xa1abc
nnsocketRead = 0xa1ac0
nnsocketClose = 0xa1ac4
nnsocketSelect = 0xa1ac8
nnsocketPoll = 0xa1acc
nnsocketFcntl = 0xa1ad0
nnsocketInetPton = 0xa1b6c
nnsocketInetNtop = 0xa1b70
nnsocketInetAton = 0xa1b74
nnsocketInetNtoa = 0xa1b78
nnsocketInetHtons = 0xa1b80
nnsocketInetHtonl = 0xa1b84
nnsocketInetNtohs = 0xa1b88
nnsocketInetNtohl = 0xa1b8c
nnsocketGetLastErrno = 0xa1b90
nnsocketSetLastErrno = 0xa1b94
nnsocketRecvMsg = 0xa1b98
nnsocketSendMsg = 0xa1b9c
nnsocketIoctl = 0xa1ba0
nnsocketOpen = 0xa1ba4
nnsocketInitialize = 0xa1ba8
nnsocketFinalize = 0xa1bc0
nnsocketGetAddrInfo = 0xa1bd8
nnsocketGetAddrInfoWithOptions = 0xa1be4
nnsocketGetHostByName = 0xa1be8
nnsocketGetHostByNameWithOptions = 0xa1bf4
nnsocketGetHostByAddr = 0xa1bf8
nnsocketGetHostByAddrWithOptions = 0xa1c04
nnsocketGetNameInfo = 0xa1c08
nnsocketGetNameInfoWithOptions = 0xa1c2c
nnsocketFreeAddrInfo = 0xa1c38
nnsocketRequestCancelHandle = 0xa1c3c
nnsocketCancel = 0xa1c40
nnsocketGetHErrno = 0xa1c44
nnsocketHStrError = 0xa1c48
nnsocketGAIStrError = 0xa1c4c
nnsocketSysctl = 0xa1c50
nnsocketDuplicateSocket = 0xa1c54
GetResourceStatistics = 0xa1c58
_ZN2nn2sf13SharedPointerINS_6socket2sf7IClientEED2Ev = 0xa1c5c
_ZN2nn6socket6detail5AllocEm = 0xa1c74
_ZN2nn6socket6detail12AllocAlignedEmm = 0xa1cb8
_ZN2nn6socket6detail6CallocEmm = 0xa1d04
_ZN2nn6socket6detail7ReallocEPvm = 0xa1d7c
_ZN2nn6socket6detail4FreeEPv = 0xa1e5c
_ZN2nn6socket6detail15HeapIsAvailableEi = 0xa1e80
_ZN2nn6socket6detail17GetHeapGenerationEv = 0xa1eac
_ZN2nn6socket6detail16InitializeCommonERKNS0_6ConfigE = 0xa1eb8
_ZN2nn6socket6detail10InitializeEPvmmi = 0xa2174
_ZN2nn6socket6detail10InitializeERKNS0_6ConfigE = 0xa21d8
_ZN2nn6socket6detail8FinalizeEv = 0xa21f0
_ZN2nn6socket6detail12SetLastErrnoEi = 0xa226c
_ZN2nn6socket6detail12GetLastErrnoEv = 0xa22a0
_ZN2nn6socket6detail4RecvEiPvmi = 0xa22d0
_ZN2nn6socket6detail8RecvFromEiPvmiP8sockaddrPj = 0xa2460
_ZN2nn6socket6detail7RecvMsgEiP6msghdri = 0xa2624
_ZN2nn6socket6detail8RecvMMsgEiP7mmsghdrmiPNS_8TimeSpanE = 0xa2680
_ZN2nn6socket6detail4SendEiPKvmi = 0xa2974
_ZN2nn6socket6detail6SendToEiPKvmiPK8sockaddrj = 0xa2b08
_ZN2nn6socket6detail7SendMsgEiPK6msghdri = 0xa2cc0
_ZN2nn6socket6detail8SendMMsgEiPK7mmsghdrmi = 0xa2d1c
_ZN2nn6socket6detail6AcceptEiP8sockaddrPj = 0xa31d8
_ZN2nn6socket6detail4BindEiPK8sockaddrj = 0xa3368
_ZN2nn6socket6detail7ConnectEiPK8sockaddrj = 0xa34c8
_ZN2nn6socket6detail11GetPeerNameEiP8sockaddrPj = 0xa3628
_ZN2nn6socket6detail11GetSockNameEiP8sockaddrPj = 0xa3798
_ZN2nn6socket6detail10GetSockOptEiiiPvPj = 0xa3908
_ZN2nn6socket6detail6ListenEii = 0xa3a88
_ZN2nn6socket6detail5FcntlEiiz = 0xa3bc0
_ZN2nn6socket6detail10SetSockOptEiiiPKvj = 0xa3d90
_ZN2nn6socket6detail8ShutdownEii = 0xa3f00
_ZN2nn6socket6detail18ShutdownAllSocketsEb = 0xa4038
_ZN2nn6socket6detail5WriteEiPKvm = 0xa4168
_ZN2nn6socket6detail4ReadEiPvm = 0xa42ec
_ZN2nn6socket6detail10SockAtMarkEi = 0xa4470
_ZN2nn6socket6detail5IoctlEijPvm = 0xa44e0
_ZN2nn6socket6detail6SelectEiP6fd_setS3_S3_P7timeval = 0xa4a00
_ZN2nn6socket6detail4PollEP6pollfdmi = 0xa4c10
_ZN2nn6socket6detail6SocketEiii = 0xa4da4
_ZN2nn6socket6detail12SocketExemptEiii = 0xa4ee4
_ZN2nn6socket6detail4OpenEPKci = 0xa5024
_ZN2nn6socket6detail5CloseEi = 0xa51a4
_ZN2nn6socket6detail6SysctlEPimPvPmS3_m = 0xa52d4
_ZN2nn6socket6detail15DuplicateSocketEim = 0xa5498
_ZN2nn6socket6detail21GetResourceStatisticsENS0_14StatisticsTypeEPvmj = 0xa55d0
_ZN2nn6socket6detail8InetNtopEiPKvPcj = 0xa5750
_ZN2nn6socket6detail8InetPtonEiPKcPv = 0xa5754
_ZN2nn6socket6detail8InetAtonEPKcP7in_addr = 0xa5758
_ZN2nn6socket6detail8InetNtoaE7in_addr = 0xa575c
_ZN2nn6socket6detail9InetHtonsEt = 0xa5764
_ZN2nn6socket6detail9InetHtonlEj = 0xa5770
_ZN2nn6socket6detail9InetNtohsEt = 0xa5778
_ZN2nn6socket6detail9InetNtohlEj = 0xa5784
_ZNK2nn2sf13SharedPointerINS_6socket2sf7IClientEE19FunctionForBoolTypeEv = 0xa578c
_ZN2nn6socket6detail10socketAtonEPKcP7in_addr = 0xa57ec
_ZN2nn6socket6detail25CreateClientMonitorByHipcEPKc = 0xa5978
_ZN2nn6socket6detail25CreateClientServiceByHipcEiPKc = 0xa5a5c
_ZN2nn6socket6detail26DestroyClientMonitorByHipcEPNS_2sf13SharedPointerINS0_2sf7IClientEEE = 0xa5c20
_ZN2nn6socket6detail26DestroyClientServiceByHipcEPNS_2sf13SharedPointerINS0_2sf7IClientEEE = 0xa5c78
_ZN2nn2sf4hipc6client24Hipc2ClientCoreProcessorILNS1_6detail11MessageTypeE4ENS0_4cmif6detail14CoreMethodInfoINSt3__15tupleIJNS7_18OutRawArgumentInfoILm4ELm4ELl0EEENS7_17InRawArgumentInfoILm8ELm8ELl32EEENS7_20InHandleArgumentInfoILi0ELi1EEENSD_ILm8ELm8ELl40EEENSD_ILm32ELm4ELl0EEEEEELm48ELm4ELb1EEESJ_E7ProcessEPNS2_26Hipc2ClientProxyBaseObjectENS6_6client24OutRawClientArgumentTypeILm4ELm4EEENSO_23InRawClientArgumentTypeILm8ELm8EvEENSO_26InHandleClientArgumentTypeESS_NSR_ILm32ELm4EvEEj = 0xa6498
_ZN2nn2sf4hipc6client24Hipc2ClientCoreProcessorILNS1_6detail11MessageTypeE4ENS0_4cmif6detail14CoreMethodInfoINSt3__15tupleIJNS7_18OutRawArgumentInfoILm4ELm4ELl0EEENSB_ILm4ELm4ELl4EEENS7_17InRawArgumentInfoILm4ELm4ELl0EEENSE_ILm4ELm4ELl4EEENSE_ILm4ELm4ELl8EEEEEELm12ELm8ELb0EEESI_E7ProcessEPNS2_26Hipc2ClientProxyBaseObjectENS6_6client24OutRawClientArgumentTypeILm4ELm4EEESP_NSN_23InRawClientArgumentTypeILm4ELm4EvEESR_SR_j = 0xa6610
_ZN2nn2sf4hipc6client24Hipc2ClientCoreProcessorILNS1_6detail11MessageTypeE4ENS0_4cmif6detail14CoreMethodInfoINSt3__15tupleIJNS7_18OutRawArgumentInfoILm4ELm4ELl0EEENSB_ILm4ELm4ELl4EEENS7_18BufferArgumentInfoILi0ELi33ELm0EEENS7_17InRawArgumentInfoILm4ELm4ELl0EEEEEELm4ELm8ELb0EEESI_E7ProcessEPNS2_26Hipc2ClientProxyBaseObjectENS6_6client24OutRawClientArgumentTypeILm4ELm4EEESP_NSN_24BufferClientArgumentTypeENSN_23InRawClientArgumentTypeILm4ELm4EvEEj = 0xa6730
_ZN2nn2sf4hipc6client24Hipc2ClientCoreProcessorILNS1_6detail11MessageTypeE4ENS0_4cmif6detail14CoreMethodInfoINSt3__15tupleIJNS7_18OutRawArgumentInfoILm4ELm4ELl0EEENSB_ILm4ELm4ELl4EEENS7_17InRawArgumentInfoILm4ELm4ELl0EEENS7_18BufferArgumentInfoILi0ELi33ELm0EEENSG_ILi1ELi33ELm0EEENSG_ILi2ELi33ELm0EEENSG_ILi3ELi34ELm0EEENSG_ILi4ELi34ELm0EEENSG_ILi5ELi34ELm0EEENSE_ILm24ELm8ELl8EEEEEELm32ELm8ELb0EEESO_E7ProcessEPNS2_26Hipc2ClientProxyBaseObjectENS6_6client24OutRawClientArgumentTypeILm4ELm4EEESV_NST_23InRawClientArgumentTypeILm4ELm4EvEENST_24BufferClientArgumentTypeESY_SY_SY_SY_SY_NSW_ILm24ELm8EvEEj = 0xa6930
_ZN2nn2sf4hipc6client24Hipc2ClientCoreProcessorILNS1_6detail11MessageTypeE4ENS0_4cmif6detail14CoreMethodInfoINSt3__15tupleIJNS7_18OutRawArgumentInfoILm4ELm4ELl0EEENSB_ILm4ELm4ELl4EEENS7_18BufferArgumentInfoILi0ELi33ELm0EEENSE_ILi1ELi34ELm0EEENS7_17InRawArgumentInfoILm4ELm4ELl0EEENSH_ILm4ELm4ELl4EEEEEELm8ELm8ELb0EEESK_E7ProcessEPNS2_26Hipc2ClientProxyBaseObjectENS6_6client24OutRawClientArgumentTypeILm4ELm4EEESR_NSP_24BufferClientArgumentTypeESS_NSP_23InRawClientArgumentTypeILm4ELm4EvEESU_j = 0xa6bcc
_ZN2nn2sf4hipc6client24Hipc2ClientCoreProcessorILNS1_6detail11MessageTypeE4ENS0_4cmif6detail14CoreMethodInfoINSt3__15tupleIJNS7_18OutRawArgumentInfoILm4ELm4ELl0EEENSB_ILm4ELm4ELl4EEENS7_18BufferArgumentInfoILi0ELi33ELm0EEENSE_ILi1ELi34ELm0EEENSB_ILm4ELm4ELl8EEENSE_ILi2ELi33ELm0EEEEEELm0ELm12ELb0EEESJ_E7ProcessEPNS2_26Hipc2ClientProxyBaseObjectENS6_6client24OutRawClientArgumentTypeILm4ELm4EEESQ_NSO_24BufferClientArgumentTypeESR_SQ_SR_j = 0xa6de0
_ZN2nn2sf4hipc6client24Hipc2ClientCoreProcessorILNS1_6detail11MessageTypeE4ENS0_4cmif6detail14CoreMethodInfoINSt3__15tupleIJNS7_18OutRawArgumentInfoILm4ELm4ELl0EEENSB_ILm4ELm4ELl4EEENS7_17InRawArgumentInfoILm4ELm4ELl0EEENS7_18BufferArgumentInfoILi0ELi34ELm0EEENSE_ILm4ELm4ELl4EEEEEELm8ELm8ELb0EEESJ_E7ProcessEPNS2_26Hipc2ClientProxyBaseObjectENS6_6client24OutRawClientArgumentTypeILm4ELm4EEESQ_NSO_23InRawClientArgumentTypeILm4ELm4EvEENSO_24BufferClientArgumentTypeESS_j = 0xa7008
_ZN2nn2sf4hipc6client24Hipc2ClientCoreProcessorILNS1_6detail11MessageTypeE4ENS0_4cmif6detail14CoreMethodInfoINSt3__15tupleIJNS7_18OutRawArgumentInfoILm4ELm4ELl0EEENSB_ILm4ELm4ELl4EEENS7_17InRawArgumentInfoILm4ELm4ELl0EEENS7_18BufferArgumentInfoILi0ELi34ELm0EEENSE_ILm4ELm4ELl4EEENSG_ILi1ELi34ELm0EEENSB_ILm4ELm4ELl8EEEEEELm8ELm12ELb0EEESL_E7ProcessEPNS2_26Hipc2ClientProxyBaseObjectENS6_6client24OutRawClientArgumentTypeILm4ELm4EEESS_NSQ_23InRawClientArgumentTypeILm4ELm4EvEENSQ_24BufferClientArgumentTypeESU_SV_SS_j = 0xa720c
_ZN2nn2sf4hipc6client24Hipc2ClientCoreProcessorILNS1_6detail11MessageTypeE4ENS0_4cmif6detail14CoreMethodInfoINSt3__15tupleIJNS7_18OutRawArgumentInfoILm4ELm4ELl0EEENSB_ILm4ELm4ELl4EEENS7_17InRawArgumentInfoILm4ELm4ELl0EEENS7_18BufferArgumentInfoILi0ELi33ELm0EEENSE_ILm4ELm4ELl4EEEEEELm8ELm8ELb0EEESJ_E7ProcessEPNS2_26Hipc2ClientProxyBaseObjectENS6_6client24OutRawClientArgumentTypeILm4ELm4EEESQ_NSO_23InRawClientArgumentTypeILm4ELm4EvEENSO_24BufferClientArgumentTypeESS_j = 0xa742c
_ZN2nn2sf4hipc6client24Hipc2ClientCoreProcessorILNS1_6detail11MessageTypeE4ENS0_4cmif6detail14CoreMethodInfoINSt3__15tupleIJNS7_18OutRawArgumentInfoILm4ELm4ELl0EEENSB_ILm4ELm4ELl4EEENS7_17InRawArgumentInfoILm4ELm4ELl0EEENS7_18BufferArgumentInfoILi0ELi33ELm0EEENSE_ILm4ELm4ELl4EEENSG_ILi1ELi33ELm0EEEEEELm8ELm8ELb0EEESK_E7ProcessEPNS2_26Hipc2ClientProxyBaseObjectENS6_6client24OutRawClientArgumentTypeILm4ELm4EEESR_NSP_23InRawClientArgumentTypeILm4ELm4EvEENSP_24BufferClientArgumentTypeEST_SU_j = 0xa7630
_ZN2nn2sf4hipc6client24Hipc2ClientCoreProcessorILNS1_6detail11MessageTypeE4ENS0_4cmif6detail14CoreMethodInfoINSt3__15tupleIJNS7_18OutRawArgumentInfoILm4ELm4ELl0EEENSB_ILm4ELm4ELl4EEENS7_17InRawArgumentInfoILm4ELm4ELl0EEENS7_18BufferArgumentInfoILi0ELi34ELm0EEENSB_ILm4ELm4ELl8EEEEEELm4ELm12ELb0EEESJ_E7ProcessEPNS2_26Hipc2ClientProxyBaseObjectENS6_6client24OutRawClientArgumentTypeILm4ELm4EEESQ_NSO_23InRawClientArgumentTypeILm4ELm4EvEENSO_24BufferClientArgumentTypeESQ_j = 0xa7844
_ZN2nn2sf4hipc6client24Hipc2ClientCoreProcessorILNS1_6detail11MessageTypeE4ENS0_4cmif6detail14CoreMethodInfoINSt3__15tupleIJNS7_18OutRawArgumentInfoILm4ELm4ELl0EEENSB_ILm4ELm4ELl4EEENS7_17InRawArgumentInfoILm4ELm4ELl0EEENS7_18BufferArgumentInfoILi0ELi33ELm0EEEEEELm4ELm8ELb0EEESI_E7ProcessEPNS2_26Hipc2ClientProxyBaseObjectENS6_6client24OutRawClientArgumentTypeILm4ELm4EEESP_NSN_23InRawClientArgumentTypeILm4ELm4EvEENSN_24BufferClientArgumentTypeEj = 0xa7a50
_ZN2nn2sf4hipc6client24Hipc2ClientCoreProcessorILNS1_6detail11MessageTypeE4ENS0_4cmif6detail14CoreMethodInfoINSt3__15tupleIJNS7_18OutRawArgumentInfoILm4ELm4ELl0EEENSB_ILm4ELm4ELl4EEENS7_17InRawArgumentInfoILm4ELm4ELl0EEENSE_ILm4ELm4ELl4EEENSE_ILm4ELm4ELl8EEENS7_18BufferArgumentInfoILi0ELi34ELm0EEENSB_ILm4ELm4ELl8EEEEEELm12ELm12ELb0EEESL_E7ProcessEPNS2_26Hipc2ClientProxyBaseObjectENS6_6client24OutRawClientArgumentTypeILm4ELm4EEESS_NSQ_23InRawClientArgumentTypeILm4ELm4EvEESU_SU_NSQ_24BufferClientArgumentTypeESS_j = 0xa7c50
_ZN2nn2sf4hipc6client24Hipc2ClientCoreProcessorILNS1_6detail11MessageTypeE4ENS0_4cmif6detail14CoreMethodInfoINSt3__15tupleIJNS7_18OutRawArgumentInfoILm4ELm4ELl0EEENSB_ILm4ELm4ELl4EEENS7_17InRawArgumentInfoILm4ELm4ELl0EEENSE_ILm4ELm4ELl4EEEEEELm8ELm8ELb0EEESH_E7ProcessEPNS2_26Hipc2ClientProxyBaseObjectENS6_6client24OutRawClientArgumentTypeILm4ELm4EEESO_NSM_23InRawClientArgumentTypeILm4ELm4EvEESQ_j = 0xa7e68
_ZN2nn2sf4hipc6client24Hipc2ClientCoreProcessorILNS1_6detail11MessageTypeE4ENS0_4cmif6detail14CoreMethodInfoINSt3__15tupleIJNS7_18OutRawArgumentInfoILm4ELm4ELl0EEENSB_ILm4ELm4ELl4EEENS7_17InRawArgumentInfoILm4ELm4ELl0EEENSE_ILm4ELm4ELl4EEENS7_18BufferArgumentInfoILi0ELi33ELm0EEENSH_ILi1ELi33ELm0EEENSH_ILi2ELi33ELm0EEENSH_ILi3ELi33ELm0EEENSH_ILi4ELi34ELm0EEENSH_ILi5ELi34ELm0EEENSH_ILi6ELi34ELm0EEENSH_ILi7ELi34ELm0EEENSE_ILm4ELm4ELl8EEEEEELm12ELm8ELb0EEESR_E7ProcessEPNS2_26Hipc2ClientProxyBaseObjectENS6_6client24OutRawClientArgumentTypeILm4ELm4EEESY_NSW_23InRawClientArgumentTypeILm4ELm4EvEES10_NSW_24BufferClientArgumentTypeES11_S11_S11_S11_S11_S11_S11_S10_j = 0xa7f80
_ZN2nn2sf4hipc6client24Hipc2ClientCoreProcessorILNS1_6detail11MessageTypeE4ENS0_4cmif6detail14CoreMethodInfoINSt3__15tupleIJNS7_18OutRawArgumentInfoILm4ELm4ELl0EEENSB_ILm4ELm4ELl4EEENS7_17InRawArgumentInfoILm4ELm4ELl0EEENSE_ILm4ELm4ELl4EEENSE_ILm4ELm4ELl8EEENS7_18BufferArgumentInfoILi0ELi33ELm0EEEEEELm12ELm8ELb0EEESK_E7ProcessEPNS2_26Hipc2ClientProxyBaseObjectENS6_6client24OutRawClientArgumentTypeILm4ELm4EEESR_NSP_23InRawClientArgumentTypeILm4ELm4EvEEST_ST_NSP_24BufferClientArgumentTypeEj = 0xa823c
_ZN2nn2sf4hipc6client24Hipc2ClientCoreProcessorILNS1_6detail11MessageTypeE4ENS0_4cmif6detail14CoreMethodInfoINSt3__15tupleIJNS7_18OutRawArgumentInfoILm4ELm4ELl0EEENSB_ILm4ELm4ELl4EEENS7_17InRawArgumentInfoILm4ELm4ELl0EEEEEELm4ELm8ELb0EEESG_E7ProcessEPNS2_26Hipc2ClientProxyBaseObjectENS6_6client24OutRawClientArgumentTypeILm4ELm4EEESN_NSL_23InRawClientArgumentTypeILm4ELm4EvEEj = 0xa8448
_ZN2nn2sf4hipc6client24Hipc2ClientCoreProcessorILNS1_6detail11MessageTypeE4ENS0_4cmif6detail14CoreMethodInfoINSt3__15tupleIJNS7_18OutRawArgumentInfoILm4ELm4ELl0EEENSB_ILm4ELm4ELl4EEENS7_17InRawArgumentInfoILm4ELm4ELl0EEENS7_18BufferArgumentInfoILi0ELi34ELm0EEEEEELm4ELm8ELb0EEESI_E7ProcessEPNS2_26Hipc2ClientProxyBaseObjectENS6_6client24OutRawClientArgumentTypeILm4ELm4EEESP_NSN_23InRawClientArgumentTypeILm4ELm4EvEENSN_24BufferClientArgumentTypeEj = 0xa8554
_ZN2nn2sf4hipc6client24Hipc2ClientCoreProcessorILNS1_6detail11MessageTypeE4ENS0_4cmif6detail14CoreMethodInfoINSt3__15tupleIJNS7_18OutRawArgumentInfoILm4ELm4ELl0EEENSB_ILm4ELm4ELl4EEENS7_17InRawArgumentInfoILm4ELm4ELl0EEENSE_ILm8ELm8ELl8EEEEEELm16ELm8ELb0EEESH_E7ProcessEPNS2_26Hipc2ClientProxyBaseObjectENS6_6client24OutRawClientArgumentTypeILm4ELm4EEESO_NSM_23InRawClientArgumentTypeILm4ELm4EvEENSP_ILm8ELm8EvEEj = 0xa8754
_ZN2nn2sf4hipc6client24Hipc2ClientCoreProcessorILNS1_6detail11MessageTypeE4ENS0_4cmif6detail14CoreMethodInfoINSt3__15tupleIJNS7_18OutRawArgumentInfoILm4ELm4ELl0EEENSB_ILm4ELm4ELl4EEENS7_17InRawArgumentInfoILm8ELm8ELl8EEENSE_ILm4ELm4ELl0EEENS7_18BufferArgumentInfoILi0ELi34ELm0EEENSE_ILm4ELm4ELl4EEEEEELm16ELm8ELb1EEESK_E7ProcessEPNS2_26Hipc2ClientProxyBaseObjectENS6_6client24OutRawClientArgumentTypeILm4ELm4EEESR_NSP_23InRawClientArgumentTypeILm8ELm8EvEENSS_ILm4ELm4EvEENSP_24BufferClientArgumentTypeESU_j = 0xa8874
_ZN2nn2sf4hipc6client24Hipc2ClientCoreProcessorILNS1_6detail11MessageTypeE4ENS0_4cmif6detail14CoreMethodInfoINSt3__15tupleIJNS7_18OutRawArgumentInfoILm4ELm4ELl0EEENSB_ILm4ELm4ELl4EEENS7_17InRawArgumentInfoILm4ELm4ELl0EEENS7_18BufferArgumentInfoILi0ELi34ELm0EEENSE_ILm4ELm4ELl4EEENSE_ILm4ELm4ELl8EEENSE_ILm16ELm8ELl16EEEEEELm32ELm8ELb0EEESL_E7ProcessEPNS2_26Hipc2ClientProxyBaseObjectENS6_6client24OutRawClientArgumentTypeILm4ELm4EEESS_NSQ_23InRawClientArgumentTypeILm4ELm4EvEENSQ_24BufferClientArgumentTypeESU_SU_NST_ILm16ELm8EvEEj = 0xa8a84
_ZN2nn2sf4hipc6client24Hipc2ClientCoreProcessorILNS1_6detail11MessageTypeE4ENS0_4cmif6detail14CoreMethodInfoINSt3__15tupleIJNS7_18OutRawArgumentInfoILm4ELm4ELl0EEENSB_ILm4ELm4ELl4EEENS7_17InRawArgumentInfoILm4ELm4ELl0EEENS7_18BufferArgumentInfoILi0ELi33ELm0EEENSE_ILm4ELm4ELl4EEENSG_ILi1ELi33ELm0EEENSE_ILm4ELm4ELl8EEEEEELm12ELm8ELb0EEESL_E7ProcessEPNS2_26Hipc2ClientProxyBaseObjectENS6_6client24OutRawClientArgumentTypeILm4ELm4EEESS_NSQ_23InRawClientArgumentTypeILm4ELm4EvEENSQ_24BufferClientArgumentTypeESU_SV_SU_j = 0xa8cac
_ZN2nn2sf4cmif6client34CmifDomainProxyClientCoreProcessorINS0_4hipc6client38Hipc2ClientSessionManagedProxyKindBaseINS5_18Hipc2ProxyKindBaseILNS4_6detail11MessageTypeE4EEEEENS1_6detail14CoreMethodInfoINSt3__15tupleIJNSC_18OutRawArgumentInfoILm4ELm4ELl0EEENSC_17InRawArgumentInfoILm8ELm8ELl32EEENSC_20InHandleArgumentInfoILi0ELi1EEENSI_ILm8ELm8ELl40EEENSI_ILm32ELm4ELl0EEEEEELm48ELm4ELb1EEESO_E7ProcessEPNS2_23CmifDomainClientMessageISB_E15ProxyBaseObjectENS2_24OutRawClientArgumentTypeILm4ELm4EEENS2_23InRawClientArgumentTypeILm8ELm8EvEENS2_26InHandleClientArgumentTypeESY_NSX_ILm32ELm4EvEEj = 0xa967c
_ZN2nn2sf4cmif6client34CmifDomainProxyClientCoreProcessorINS0_4hipc6client38Hipc2ClientSessionManagedProxyKindBaseINS5_18Hipc2ProxyKindBaseILNS4_6detail11MessageTypeE4EEEEENS1_6detail14CoreMethodInfoINSt3__15tupleIJNSC_18OutRawArgumentInfoILm4ELm4ELl0EEENSG_ILm4ELm4ELl4EEENSC_17InRawArgumentInfoILm4ELm4ELl0EEENSJ_ILm4ELm4ELl4EEENSJ_ILm4ELm4ELl8EEEEEELm12ELm8ELb0EEESN_E7ProcessEPNS2_23CmifDomainClientMessageISB_E15ProxyBaseObjectENS2_24OutRawClientArgumentTypeILm4ELm4EEESV_NS2_23InRawClientArgumentTypeILm4ELm4EvEESX_SX_j = 0xa9844
_ZN2nn2sf4cmif6client34CmifDomainProxyClientCoreProcessorINS0_4hipc6client38Hipc2ClientSessionManagedProxyKindBaseINS5_18Hipc2ProxyKindBaseILNS4_6detail11MessageTypeE4EEEEENS1_6detail14CoreMethodInfoINSt3__15tupleIJNSC_18OutRawArgumentInfoILm4ELm4ELl0EEENSG_ILm4ELm4ELl4EEENSC_18BufferArgumentInfoILi0ELi33ELm0EEENSC_17InRawArgumentInfoILm4ELm4ELl0EEEEEELm4ELm8ELb0EEESN_E7ProcessEPNS2_23CmifDomainClientMessageISB_E15ProxyBaseObjectENS2_24OutRawClientArgumentTypeILm4ELm4EEESV_NS2_24BufferClientArgumentTypeENS2_23InRawClientArgumentTypeILm4ELm4EvEEj = 0xa99bc
_ZN2nn2sf4cmif6client34CmifDomainProxyClientCoreProcessorINS0_4hipc6client38Hipc2ClientSessionManagedProxyKindBaseINS5_18Hipc2ProxyKindBaseILNS4_6detail11MessageTypeE4EEEEENS1_6detail14CoreMethodInfoINSt3__15tupleIJNSC_18OutRawArgumentInfoILm4ELm4ELl0EEENSG_ILm4ELm4ELl4EEENSC_17InRawArgumentInfoILm4ELm4ELl0EEENSC_18BufferArgumentInfoILi0ELi33ELm0EEENSL_ILi1ELi33ELm0EEENSL_ILi2ELi33ELm0EEENSL_ILi3ELi34ELm0EEENSL_ILi4ELi34ELm0EEENSL_ILi5ELi34ELm0EEENSJ_ILm24ELm8ELl8EEEEEELm32ELm8ELb0EEEST_E7ProcessEPNS2_23CmifDomainClientMessageISB_E15ProxyBaseObjectENS2_24OutRawClientArgumentTypeILm4ELm4EEES11_NS2_23InRawClientArgumentTypeILm4ELm4EvEENS2_24BufferClientArgumentTypeES14_S14_S14_S14_S14_NS12_ILm24ELm8EvEEj = 0xa9bac
_ZN2nn2sf4cmif6client34CmifDomainProxyClientCoreProcessorINS0_4hipc6client38Hipc2ClientSessionManagedProxyKindBaseINS5_18Hipc2ProxyKindBaseILNS4_6detail11MessageTypeE4EEEEENS1_6detail14CoreMethodInfoINSt3__15tupleIJNSC_18OutRawArgumentInfoILm4ELm4ELl0EEENSG_ILm4ELm4ELl4EEENSC_18BufferArgumentInfoILi0ELi33ELm0EEENSJ_ILi1ELi34ELm0EEENSC_17InRawArgumentInfoILm4ELm4ELl0EEENSM_ILm4ELm4ELl4EEEEEELm8ELm8ELb0EEESP_E7ProcessEPNS2_23CmifDomainClientMessageISB_E15ProxyBaseObjectENS2_24OutRawClientArgumentTypeILm4ELm4EEESX_NS2_24BufferClientArgumentTypeESY_NS2_23InRawClientArgumentTypeILm4ELm4EvEES10_j = 0xa9e2c
_ZN2nn2sf4cmif6client34CmifDomainProxyClientCoreProcessorINS0_4hipc6client38Hipc2ClientSessionManagedProxyKindBaseINS5_18Hipc2ProxyKindBaseILNS4_6detail11MessageTypeE4EEEEENS1_6detail14CoreMethodInfoINSt3__15tupleIJNSC_18OutRawArgumentInfoILm4ELm4ELl0EEENSG_ILm4ELm4ELl4EEENSC_18BufferArgumentInfoILi0ELi33ELm0EEENSJ_ILi1ELi34ELm0EEENSG_ILm4ELm4ELl8EEENSJ_ILi2ELi33ELm0EEEEEELm0ELm12ELb0EEESO_E7ProcessEPNS2_23CmifDomainClientMessageISB_E15ProxyBaseObjectENS2_24OutRawClientArgumentTypeILm4ELm4EEESW_NS2_24BufferClientArgumentTypeESX_SW_SX_j = 0xaa030
_ZN2nn2sf4cmif6client34CmifDomainProxyClientCoreProcessorINS0_4hipc6client38Hipc2ClientSessionManagedProxyKindBaseINS5_18Hipc2ProxyKindBaseILNS4_6detail11MessageTypeE4EEEEENS1_6detail14CoreMethodInfoINSt3__15tupleIJNSC_18OutRawArgumentInfoILm4ELm4ELl0EEENSG_ILm4ELm4ELl4EEENSC_17InRawArgumentInfoILm4ELm4ELl0EEENSC_18BufferArgumentInfoILi0ELi34ELm0EEENSJ_ILm4ELm4ELl4EEEEEELm8ELm8ELb0EEESO_E7ProcessEPNS2_23CmifDomainClientMessageISB_E15ProxyBaseObjectENS2_24OutRawClientArgumentTypeILm4ELm4EEESW_NS2_23InRawClientArgumentTypeILm4ELm4EvEENS2_24BufferClientArgumentTypeESY_j = 0xaa250
_ZN2nn2sf4cmif6client34CmifDomainProxyClientCoreProcessorINS0_4hipc6client38Hipc2ClientSessionManagedProxyKindBaseINS5_18Hipc2ProxyKindBaseILNS4_6detail11MessageTypeE4EEEEENS1_6detail14CoreMethodInfoINSt3__15tupleIJNSC_18OutRawArgumentInfoILm4ELm4ELl0EEENSG_ILm4ELm4ELl4EEENSC_17InRawArgumentInfoILm4ELm4ELl0EEENSC_18BufferArgumentInfoILi0ELi34ELm0EEENSJ_ILm4ELm4ELl4EEENSL_ILi1ELi34ELm0EEENSG_ILm4ELm4ELl8EEEEEELm8ELm12ELb0EEESQ_E7ProcessEPNS2_23CmifDomainClientMessageISB_E15ProxyBaseObjectENS2_24OutRawClientArgumentTypeILm4ELm4EEESY_NS2_23InRawClientArgumentTypeILm4ELm4EvEENS2_24BufferClientArgumentTypeES10_S11_SY_j = 0xaa444
_ZN2nn2sf4cmif6client34CmifDomainProxyClientCoreProcessorINS0_4hipc6client38Hipc2ClientSessionManagedProxyKindBaseINS5_18Hipc2ProxyKindBaseILNS4_6detail11MessageTypeE4EEEEENS1_6detail14CoreMethodInfoINSt3__15tupleIJNSC_18OutRawArgumentInfoILm4ELm4ELl0EEENSG_ILm4ELm4ELl4EEENSC_17InRawArgumentInfoILm4ELm4ELl0EEENSC_18BufferArgumentInfoILi0ELi33ELm0EEENSJ_ILm4ELm4ELl4EEEEEELm8ELm8ELb0EEESO_E7ProcessEPNS2_23CmifDomainClientMessageISB_E15ProxyBaseObjectENS2_24OutRawClientArgumentTypeILm4ELm4EEESW_NS2_23InRawClientArgumentTypeILm4ELm4EvEENS2_24BufferClientArgumentTypeESY_j = 0xaa658
_ZN2nn2sf4cmif6client34CmifDomainProxyClientCoreProcessorINS0_4hipc6client38Hipc2ClientSessionManagedProxyKindBaseINS5_18Hipc2ProxyKindBaseILNS4_6detail11MessageTypeE4EEEEENS1_6detail14CoreMethodInfoINSt3__15tupleIJNSC_18OutRawArgumentInfoILm4ELm4ELl0EEENSG_ILm4ELm4ELl4EEENSC_17InRawArgumentInfoILm4ELm4ELl0EEENSC_18BufferArgumentInfoILi0ELi33ELm0EEENSJ_ILm4ELm4ELl4EEENSL_ILi1ELi33ELm0EEEEEELm8ELm8ELb0EEESP_E7ProcessEPNS2_23CmifDomainClientMessageISB_E15ProxyBaseObjectENS2_24OutRawClientArgumentTypeILm4ELm4EEESX_NS2_23InRawClientArgumentTypeILm4ELm4EvEENS2_24BufferClientArgumentTypeESZ_S10_j = 0xaa84c
_ZN2nn2sf4cmif6client34CmifDomainProxyClientCoreProcessorINS0_4hipc6client38Hipc2ClientSessionManagedProxyKindBaseINS5_18Hipc2ProxyKindBaseILNS4_6detail11MessageTypeE4EEEEENS1_6detail14CoreMethodInfoINSt3__15tupleIJNSC_18OutRawArgumentInfoILm4ELm4ELl0EEENSG_ILm4ELm4ELl4EEENSC_17InRawArgumentInfoILm4ELm4ELl0EEENSC_18BufferArgumentInfoILi0ELi34ELm0EEENSG_ILm4ELm4ELl8EEEEEELm4ELm12ELb0EEESO_E7ProcessEPNS2_23CmifDomainClientMessageISB_E15ProxyBaseObjectENS2_24OutRawClientArgumentTypeILm4ELm4EEESW_NS2_23InRawClientArgumentTypeILm4ELm4EvEENS2_24BufferClientArgumentTypeESW_j = 0xaaa54
_ZN2nn2sf4cmif6client34CmifDomainProxyClientCoreProcessorINS0_4hipc6client38Hipc2ClientSessionManagedProxyKindBaseINS5_18Hipc2ProxyKindBaseILNS4_6detail11MessageTypeE4EEEEENS1_6detail14CoreMethodInfoINSt3__15tupleIJNSC_18OutRawArgumentInfoILm4ELm4ELl0EEENSG_ILm4ELm4ELl4EEENSC_17InRawArgumentInfoILm4ELm4ELl0EEENSC_18BufferArgumentInfoILi0ELi33ELm0EEEEEELm4ELm8ELb0EEESN_E7ProcessEPNS2_23CmifDomainClientMessageISB_E15ProxyBaseObjectENS2_24OutRawClientArgumentTypeILm4ELm4EEESV_NS2_23InRawClientArgumentTypeILm4ELm4EvEENS2_24BufferClientArgumentTypeEj = 0xaac50
_ZN2nn2sf4cmif6client34CmifDomainProxyClientCoreProcessorINS0_4hipc6client38Hipc2ClientSessionManagedProxyKindBaseINS5_18Hipc2ProxyKindBaseILNS4_6detail11MessageTypeE4EEEEENS1_6detail14CoreMethodInfoINSt3__15tupleIJNSC_18OutRawArgumentInfoILm4ELm4ELl0EEENSG_ILm4ELm4ELl4EEENSC_17InRawArgumentInfoILm4ELm4ELl0EEENSJ_ILm4ELm4ELl4EEENSJ_ILm4ELm4ELl8EEENSC_18BufferArgumentInfoILi0ELi34ELm0EEENSG_ILm4ELm4ELl8EEEEEELm12ELm12ELb0EEESQ_E7ProcessEPNS2_23CmifDomainClientMessageISB_E15ProxyBaseObjectENS2_24OutRawClientArgumentTypeILm4ELm4EEESY_NS2_23InRawClientArgumentTypeILm4ELm4EvEES10_S10_NS2_24BufferClientArgumentTypeESY_j = 0xaae40
_ZN2nn2sf4cmif6client34CmifDomainProxyClientCoreProcessorINS0_4hipc6client38Hipc2ClientSessionManagedProxyKindBaseINS5_18Hipc2ProxyKindBaseILNS4_6detail11MessageTypeE4EEEEENS1_6detail14CoreMethodInfoINSt3__15tupleIJNSC_18OutRawArgumentInfoILm4ELm4ELl0EEENSG_ILm4ELm4ELl4EEENSC_17InRawArgumentInfoILm4ELm4ELl0EEENSJ_ILm4ELm4ELl4EEEEEELm8ELm8ELb0EEESM_E7ProcessEPNS2_23CmifDomainClientMessageISB_E15ProxyBaseObjectENS2_24OutRawClientArgumentTypeILm4ELm4EEESU_NS2_23InRawClientArgumentTypeILm4ELm4EvEESW_j = 0xab048
_ZN2nn2sf4cmif6client34CmifDomainProxyClientCoreProcessorINS0_4hipc6client38Hipc2ClientSessionManagedProxyKindBaseINS5_18Hipc2ProxyKindBaseILNS4_6detail11MessageTypeE4EEEEENS1_6detail14CoreMethodInfoINSt3__15tupleIJNSC_18OutRawArgumentInfoILm4ELm4ELl0EEENSG_ILm4ELm4ELl4EEENSC_17InRawArgumentInfoILm4ELm4ELl0EEENSJ_ILm4ELm4ELl4EEENSC_18BufferArgumentInfoILi0ELi33ELm0EEENSM_ILi1ELi33ELm0EEENSM_ILi2ELi33ELm0EEENSM_ILi3ELi33ELm0EEENSM_ILi4ELi34ELm0EEENSM_ILi5ELi34ELm0EEENSM_ILi6ELi34ELm0EEENSM_ILi7ELi34ELm0EEENSJ_ILm4ELm4ELl8EEEEEELm12ELm8ELb0EEESW_E7ProcessEPNS2_23CmifDomainClientMessageISB_E15ProxyBaseObjectENS2_24OutRawClientArgumentTypeILm4ELm4EEES14_NS2_23InRawClientArgumentTypeILm4ELm4EvEES16_NS2_24BufferClientArgumentTypeES17_S17_S17_S17_S17_S17_S17_S16_j = 0xab1b8
_ZN2nn2sf4cmif6client34CmifDomainProxyClientCoreProcessorINS0_4hipc6client38Hipc2ClientSessionManagedProxyKindBaseINS5_18Hipc2ProxyKindBaseILNS4_6detail11MessageTypeE4EEEEENS1_6detail14CoreMethodInfoINSt3__15tupleIJNSC_18OutRawArgumentInfoILm4ELm4ELl0EEENSG_ILm4ELm4ELl4EEENSC_17InRawArgumentInfoILm4ELm4ELl0EEENSJ_ILm4ELm4ELl4EEENSJ_ILm4ELm4ELl8EEENSC_18BufferArgumentInfoILi0ELi33ELm0EEEEEELm12ELm8ELb0EEESP_E7ProcessEPNS2_23CmifDomainClientMessageISB_E15ProxyBaseObjectENS2_24OutRawClientArgumentTypeILm4ELm4EEESX_NS2_23InRawClientArgumentTypeILm4ELm4EvEESZ_SZ_NS2_24BufferClientArgumentTypeEj = 0xab464
_ZN2nn2sf4cmif6client34CmifDomainProxyClientCoreProcessorINS0_4hipc6client38Hipc2ClientSessionManagedProxyKindBaseINS5_18Hipc2ProxyKindBaseILNS4_6detail11MessageTypeE4EEEEENS1_6detail14CoreMethodInfoINSt3__15tupleIJNSC_18OutRawArgumentInfoILm4ELm4ELl0EEENSG_ILm4ELm4ELl4EEENSC_17InRawArgumentInfoILm4ELm4ELl0EEEEEELm4ELm8ELb0EEESL_E7ProcessEPNS2_23CmifDomainClientMessageISB_E15ProxyBaseObjectENS2_24OutRawClientArgumentTypeILm4ELm4EEEST_NS2_23InRawClientArgumentTypeILm4ELm4EvEEj = 0xab660
_ZN2nn2sf4cmif6client34CmifDomainProxyClientCoreProcessorINS0_4hipc6client38Hipc2ClientSessionManagedProxyKindBaseINS5_18Hipc2ProxyKindBaseILNS4_6detail11MessageTypeE4EEEEENS1_6detail14CoreMethodInfoINSt3__15tupleIJNSC_18OutRawArgumentInfoILm4ELm4ELl0EEENSG_ILm4ELm4ELl4EEENSC_17InRawArgumentInfoILm4ELm4ELl0EEENSC_18BufferArgumentInfoILi0ELi34ELm0EEEEEELm4ELm8ELb0EEESN_E7ProcessEPNS2_23CmifDomainClientMessageISB_E15ProxyBaseObjectENS2_24OutRawClientArgumentTypeILm4ELm4EEESV_NS2_23InRawClientArgumentTypeILm4ELm4EvEENS2_24BufferClientArgumentTypeEj = 0xab7c4
_ZN2nn2sf4cmif6client34CmifDomainProxyClientCoreProcessorINS0_4hipc6client38Hipc2ClientSessionManagedProxyKindBaseINS5_18Hipc2ProxyKindBaseILNS4_6detail11MessageTypeE4EEEEENS1_6detail14CoreMethodInfoINSt3__15tupleIJNSC_18OutRawArgumentInfoILm4ELm4ELl0EEENSG_ILm4ELm4ELl4EEENSC_17InRawArgumentInfoILm4ELm4ELl0EEENSJ_ILm8ELm8ELl8EEEEEELm16ELm8ELb0EEESM_E7ProcessEPNS2_23CmifDomainClientMessageISB_E15ProxyBaseObjectENS2_24OutRawClientArgumentTypeILm4ELm4EEESU_NS2_23InRawClientArgumentTypeILm4ELm4EvEENSV_ILm8ELm8EvEEj = 0xab9b4
_ZN2nn2sf4cmif6client34CmifDomainProxyClientCoreProcessorINS0_4hipc6client38Hipc2ClientSessionManagedProxyKindBaseINS5_18Hipc2ProxyKindBaseILNS4_6detail11MessageTypeE4EEEEENS1_6detail14CoreMethodInfoINSt3__15tupleIJNSC_18OutRawArgumentInfoILm4ELm4ELl0EEENSG_ILm4ELm4ELl4EEENSC_17InRawArgumentInfoILm8ELm8ELl8EEENSJ_ILm4ELm4ELl0EEENSC_18BufferArgumentInfoILi0ELi34ELm0EEENSJ_ILm4ELm4ELl4EEEEEELm16ELm8ELb1EEESP_E7ProcessEPNS2_23CmifDomainClientMessageISB_E15ProxyBaseObjectENS2_24OutRawClientArgumentTypeILm4ELm4EEESX_NS2_23InRawClientArgumentTypeILm8ELm8EvEENSY_ILm4ELm4EvEENS2_24BufferClientArgumentTypeES10_j = 0xabb2c
_ZN2nn2sf4cmif6client34CmifDomainProxyClientCoreProcessorINS0_4hipc6client38Hipc2ClientSessionManagedProxyKindBaseINS5_18Hipc2ProxyKindBaseILNS4_6detail11MessageTypeE4EEEEENS1_6detail14CoreMethodInfoINSt3__15tupleIJNSC_18OutRawArgumentInfoILm4ELm4ELl0EEENSG_ILm4ELm4ELl4EEENSC_17InRawArgumentInfoILm4ELm4ELl0EEENSC_18BufferArgumentInfoILi0ELi34ELm0EEENSJ_ILm4ELm4ELl4EEENSJ_ILm4ELm4ELl8EEENSJ_ILm16ELm8ELl16EEEEEELm32ELm8ELb0EEESQ_E7ProcessEPNS2_23CmifDomainClientMessageISB_E15ProxyBaseObjectENS2_24OutRawClientArgumentTypeILm4ELm4EEESY_NS2_23InRawClientArgumentTypeILm4ELm4EvEENS2_24BufferClientArgumentTypeES10_S10_NSZ_ILm16ELm8EvEEj = 0xabd2c
_ZN2nn2sf4cmif6client34CmifDomainProxyClientCoreProcessorINS0_4hipc6client38Hipc2ClientSessionManagedProxyKindBaseINS5_18Hipc2ProxyKindBaseILNS4_6detail11MessageTypeE4EEEEENS1_6detail14CoreMethodInfoINSt3__15tupleIJNSC_18OutRawArgumentInfoILm4ELm4ELl0EEENSG_ILm4ELm4ELl4EEENSC_17InRawArgumentInfoILm4ELm4ELl0EEENSC_18BufferArgumentInfoILi0ELi33ELm0EEENSJ_ILm4ELm4ELl4EEENSL_ILi1ELi33ELm0EEENSJ_ILm4ELm4ELl8EEEEEELm12ELm8ELb0EEESQ_E7ProcessEPNS2_23CmifDomainClientMessageISB_E15ProxyBaseObjectENS2_24OutRawClientArgumentTypeILm4ELm4EEESY_NS2_23InRawClientArgumentTypeILm4ELm4EvEENS2_24BufferClientArgumentTypeES10_S11_S10_j = 0xabf44
_ZN2nn6socket6detail10socketNtoaE7in_addr = 0xac2c8
_ZN2nn6socket6detail11socketNtoaRE7in_addrPcm = 0xac310
_ZN2nn6socket6detail10socketNtopEiPKvPcj = 0xac358
_ZN2nn6socket6detail10socketPtonEiPKcPv = 0xac400
_ZN2nn6socket8resolver3tls17GetHeapGenerationEPNS2_30ResolverThreadLocalStoragePairE = 0xac5b0
_ZN2nn6socket8resolver3tls17GetTlsPairPointerERPNS2_30ResolverThreadLocalStoragePairE = 0xac5b8
_ZN2nn6socket8resolver3tls23AddGenerationToTlsValueERPNS2_30ResolverThreadLocalStoragePairE = 0xac5c8
_ZN2nn6socket8resolver3tls16GetCreateTLSPairERPNS2_30ResolverThreadLocalStoragePairE = 0xac5f8
_ZN2nn6socket8resolver3tls19TlsDestructFunctionEm = 0xac6c4
_ZN2nn6socket8resolver3tls10InitializeEv = 0xac740
_ZN2nn6socket8resolver3tls8FinalizeEv = 0xac7a8
_ZN2nn6socket8resolver3tls12GetServerTLSERPv = 0xac7b0
_ZN2nn6socket8resolver3tls12SetServerTLSEPFvPvES3_ = 0xac7f4
_ZN2nn6socket8resolver3tls12GetClientTLSERPv = 0xac864
_ZN2nn6socket8resolver3tls12SetClientTLSEPFvPvES3_ = 0xac8a8
nnResolverGetspecificPrivate = 0xac914
nnResolverSetspecificPrivate = 0xac94c
_ZN2nn6socket8resolver9GetOptionENS1_6Option4typeERm = 0xac9bc
_ZN2nn6socket8resolver9SetOptionENS1_6Option4typeEm = 0xaca28
_ZN2nn6socket8resolver33WaitForAllResolverCallsToCompleteEv = 0xaca8c
_ZN2nn6socket8resolver20DisableResolverCallsEv = 0xacae0
_ZN2nn6socket8resolver19EnableResolverCallsEv = 0xacb00
_ZN2nn6socket8resolver23AreResolverCallsEnabledEv = 0xacb40
_ZN2nn6socket8resolver16InitializeClientEv = 0xacb58
_ZN2nn6socket8resolver14FinalizeClientEv = 0xacbc8
_ZN2nn6socket8resolver22SetDnsAddressesPrivateEP11sockaddr_inm = 0xacc28
_ZN2nn6socket8resolver20GetDnsAddressPrivateEjR11sockaddr_in = 0xacc30
_ZN2nn6socket8resolver18GetHostStringErrorEj = 0xacc38
_ZN2nn6socket8resolver17GetGaiStringErrorEj = 0xace34
_ZN2nn6socket8resolver13GetHostByNameEPKc = 0xad030
_ZN2nn6socket8resolver13GetHostByNameEPKcPKNS0_14ResolverOptionEm = 0xad414
_ZN2nn6socket8resolver13GetHostByAddrEPKvjj = 0xad418
_ZN2nn6socket8resolver13GetHostByAddrEPKvjjPKNS0_14ResolverOptionEm = 0xad76c
_ZN2nn6socket8resolver11GetAddrInfoEPKcS3_PK8addrinfoPPS4_ = 0xad770
_ZN2nn6socket8resolver11GetAddrInfoEPKcS3_PK8addrinfoPPS4_PKNS0_14ResolverOptionEm = 0xadc3c
_ZN2nn6socket8resolver11GetNameInfoEPK8sockaddrjPcmS5_mi = 0xadc40
_ZN2nn6socket8resolver11GetNameInfoEPK8sockaddrjPcmS5_miPKNS0_14ResolverOptionEm = 0xadee8
_ZN2nn6socket8resolver19RequestCancelHandleEv = 0xadef4
_ZN2nn6socket8resolver16CancelSocketCallEi = 0xadf18
_ZN2nn6socket8resolver3tls6Client29ClientThreadLocalStorage_dtorEPv = 0xae0cc
_ZN2nn6socket8resolver3tls6Client10InitializeEv = 0xae134
_ZN2nn6socket8resolver3tls6Client18GetCreateClientTLSERPv = 0xae14c
_ZN2nn6socket8resolver3tls6Client8FinalizeEv = 0xae22c
_ZN2nn6socket8resolver3tls6Client17InternalHostErrnoEv = 0xae244
_ZN2nn6socket8resolver3tls6Client17GetCurrentHostentEv = 0xae280
_ZN2nn6socket8resolver3tls6Client17SetCurrentHostentEP7hostent = 0xae2bc
_ZN2nn6socket8resolver3tls6Client22GetCurrentHErrorStringEv = 0xae324
_ZN2nn6socket8resolver3tls6Client22SetCurrentHErrorStringEPKc = 0xae360
_ZN2nn6socket8resolver3tls6Client24GetCurrentGaiErrorStringEv = 0xae3f0
_ZN2nn6socket8resolver3tls6Client24SetCurrentGaiErrorStringEPKc = 0xae42c
_ZN2nn6socket8resolver20CreateResolverByHipcERNS_2sf13SharedPointerINS1_9IResolverEEE = 0xae4bc
_ZN2nn2sf4hipc6client24Hipc2ClientCoreProcessorILNS1_6detail11MessageTypeE4ENS0_4cmif6detail14CoreMethodInfoINSt3__15tupleIJNS7_18BufferArgumentInfoILi0ELi5ELm0EEENS7_17InRawArgumentInfoILm4ELm4ELl0EEEEEELm4ELm0ELb0EEESF_E7ProcessEPNS2_26Hipc2ClientProxyBaseObjectENS6_6client24BufferClientArgumentTypeENSK_23InRawClientArgumentTypeILm4ELm4EvEEj = 0xae8f8
_ZN2nn2sf4hipc6client24Hipc2ClientCoreProcessorILNS1_6detail11MessageTypeE4ENS0_4cmif6detail14CoreMethodInfoINSt3__15tupleIJNS7_17InRawArgumentInfoILm4ELm4ELl0EEENS7_18BufferArgumentInfoILi0ELi6ELm0EEEEEELm4ELm0ELb0EEESF_E7ProcessEPNS2_26Hipc2ClientProxyBaseObjectENS6_6client23InRawClientArgumentTypeILm4ELm4EvEENSK_24BufferClientArgumentTypeEj = 0xaea58
_ZN2nn2sf4hipc6client24Hipc2ClientCoreProcessorILNS1_6detail11MessageTypeE4ENS0_4cmif6detail14CoreMethodInfoINSt3__15tupleIJNS7_17InRawArgumentInfoILm4ELm4ELl4EEENSB_ILm8ELm8ELl8EEENSB_ILm1ELm1ELl0EEENS7_18BufferArgumentInfoILi0ELi5ELm0EEENS7_18OutRawArgumentInfoILm4ELm4ELl0EEENSH_ILm4ELm4ELl4EEENSF_ILi1ELi6ELm0EEENSH_ILm4ELm4ELl8EEEEEELm16ELm12ELb1EEESM_E7ProcessEPNS2_26Hipc2ClientProxyBaseObjectENS6_6client23InRawClientArgumentTypeILm4ELm4EvEENSS_ILm8ELm8EvEENSS_ILm1ELm1EvEENSR_24BufferClientArgumentTypeENSR_24OutRawClientArgumentTypeILm4ELm4EEESY_SW_SY_j = 0xaebb8
_ZN2nn2sf4hipc6client24Hipc2ClientCoreProcessorILNS1_6detail11MessageTypeE4ENS0_4cmif6detail14CoreMethodInfoINSt3__15tupleIJNS7_17InRawArgumentInfoILm4ELm4ELl0EEENSB_ILm8ELm8ELl16EEENS7_18BufferArgumentInfoILi0ELi5ELm0EEENSB_ILm4ELm4ELl4EEENSB_ILm4ELm4ELl8EEENS7_18OutRawArgumentInfoILm4ELm4ELl0EEENSI_ILm4ELm4ELl4EEENSE_ILi1ELi6ELm0EEENSI_ILm4ELm4ELl8EEEEEELm24ELm12ELb1EEESN_E7ProcessEPNS2_26Hipc2ClientProxyBaseObjectENS6_6client23InRawClientArgumentTypeILm4ELm4EvEENST_ILm8ELm8EvEENSS_24BufferClientArgumentTypeESU_SU_NSS_24OutRawClientArgumentTypeILm4ELm4EEESY_SW_SY_j = 0xaed78
_ZN2nn2sf4hipc6client24Hipc2ClientCoreProcessorILNS1_6detail11MessageTypeE4ENS0_4cmif6detail14CoreMethodInfoINSt3__15tupleIJNS7_17InRawArgumentInfoILm4ELm4ELl4EEENSB_ILm8ELm8ELl8EEENSB_ILm1ELm1ELl0EEENS7_18BufferArgumentInfoILi0ELi5ELm0EEENSF_ILi1ELi5ELm0EEENSF_ILi2ELi5ELm0EEENSF_ILi3ELi6ELm0EEENS7_18OutRawArgumentInfoILm4ELm4ELl0EEENSK_ILm4ELm4ELl4EEENSK_ILm4ELm4ELl8EEEEEELm16ELm12ELb1EEESO_E7ProcessEPNS2_26Hipc2ClientProxyBaseObjectENS6_6client23InRawClientArgumentTypeILm4ELm4EvEENSU_ILm8ELm8EvEENSU_ILm1ELm1EvEENST_24BufferClientArgumentTypeESY_SY_SY_NST_24OutRawClientArgumentTypeILm4ELm4EEES10_S10_j = 0xaef3c
_ZN2nn2sf4hipc6client24Hipc2ClientCoreProcessorILNS1_6detail11MessageTypeE4ENS0_4cmif6detail14CoreMethodInfoINSt3__15tupleIJNS7_17InRawArgumentInfoILm4ELm4ELl0EEENSB_ILm8ELm8ELl8EEENS7_18BufferArgumentInfoILi0ELi5ELm0EEENSE_ILi1ELi6ELm0EEENSE_ILi2ELi6ELm0EEENSB_ILm4ELm4ELl4EEENS7_18OutRawArgumentInfoILm4ELm4ELl0EEENSJ_ILm4ELm4ELl4EEEEEELm16ELm8ELb1EEESM_E7ProcessEPNS2_26Hipc2ClientProxyBaseObjectENS6_6client23InRawClientArgumentTypeILm4ELm4EvEENSS_ILm8ELm8EvEENSR_24BufferClientArgumentTypeESV_SV_ST_NSR_24OutRawClientArgumentTypeILm4ELm4EEESX_j = 0xaf11c
_ZN2nn2sf4hipc6client24Hipc2ClientCoreProcessorILNS1_6detail11MessageTypeE4ENS0_4cmif6detail14CoreMethodInfoINSt3__15tupleIJNS7_17InRawArgumentInfoILm8ELm8ELl0EEENS7_18OutRawArgumentInfoILm4ELm4ELl0EEEEEELm8ELm4ELb1EEESF_E7ProcessEPNS2_26Hipc2ClientProxyBaseObjectENS6_6client23InRawClientArgumentTypeILm8ELm8EvEENSK_24OutRawClientArgumentTypeILm4ELm4EEEj = 0xaf2d4
_ZN2nn2sf4hipc6client24Hipc2ClientCoreProcessorILNS1_6detail11MessageTypeE4ENS0_4cmif6detail14CoreMethodInfoINSt3__15tupleIJNS7_17InRawArgumentInfoILm8ELm8ELl8EEENSB_ILm4ELm4ELl0EEEEEELm16ELm0ELb1EEESE_E7ProcessEPNS2_26Hipc2ClientProxyBaseObjectENS6_6client23InRawClientArgumentTypeILm8ELm8EvEENSK_ILm4ELm4EvEEj = 0xaf3e0
_ZN2nn6socket8resolver10serializer20FreeAddrinfoContentsER8addrinfo = 0xaf530
_ZN2nn6socket8resolver10serializer20AddrInfoSingleSizeOfEPK8addrinfo = 0xaf5a0
_ZN2nn6socket8resolver10serializer13DNSSerializer6SizeOfI8addrinfoEEmRKT_ = 0xaf654
_ZN2nn6socket8resolver10serializer13DNSSerializer16ToBufferInternalI8addrinfoEElPhmRKT_ = 0xaf720
_ZN2nn6socket8resolver10serializer13DNSSerializer8ToBufferI8addrinfoEElPhmRKT_ = 0xaf944
_ZN2nn6socket8resolver10serializer13DNSSerializer18FromBufferInternalI8addrinfoEElRT_PKhm = 0xafa94
_ZN2nn6socket8resolver10serializer13DNSSerializer10FromBufferI8addrinfoEElRT_PKhm = 0xafdb8
_ZN2nn6socket8resolver10serializer13DNSSerializer6SizeOfIcEEmPKT_ = 0xafef4
_ZN2nn6socket8resolver10serializer13DNSSerializer6SizeOfIcEEmPPKT_Rj = 0xaff1c
_ZN2nn6socket8resolver10serializer13DNSSerializer8ToBufferIcEElPhmPT_ = 0xaff9c
_ZN2nn6socket8resolver10serializer13DNSSerializer10FromBufferIcEElRPT_PKhm = 0xb0038
_ZN2nn6socket8resolver10serializer13DNSSerializer8ToBufferIcEElPhmPPT_ = 0xb00c4
_ZN2nn6socket8resolver10serializer13DNSSerializer10FromBufferIcEElRPPT_PKhm = 0xb020c
_ZN2nn6socket8resolver10serializer19FreeHostentContentsER7hostent = 0xb037c
_ZN2nn6socket8resolver10serializer13DNSSerializer6SizeOfI7hostentEEmRKT_ = 0xb0438
_ZN2nn6socket8resolver10serializer13DNSSerializer10FromBufferI7hostentEElRT_PKhm = 0xb04a8
_ZN2nn6socket8resolver10serializer13DNSSerializer8ToBufferI7hostentEElPhmRKT_ = 0xb05c0
_ZN2nn6socket8resolver10serializer13DNSSerializer6SizeOfI7in_addrEEmRKT_ = 0xb0784
_ZN2nn6socket8resolver10serializer13DNSSerializer6SizeOfI7in_addrEEmPPKT_Rj = 0xb078c
_ZN2nn6socket8resolver10serializer13DNSSerializer8ToBufferI7in_addrEElPhmRKT_ = 0xb07cc
_ZN2nn6socket8resolver10serializer13DNSSerializer10FromBufferI7in_addrEElRT_PKhm = 0xb0834
_ZN2nn6socket8resolver10serializer13DNSSerializer8ToBufferI7in_addrEElPhmPPT_ = 0xb0874
_ZN2nn6socket8resolver10serializer13DNSSerializer10FromBufferI7in_addrEElRPPT_PKhm = 0xb09d8
_ZN2nn6socket8resolver10serializer13DNSSerializer6SizeOfI11sockaddr_inEEmRKT_ = 0xb0b74
_ZN2nn6socket8resolver10serializer13DNSSerializer8ToBufferI11sockaddr_inEElPhmRKT_ = 0xb0b90
_ZN2nn6socket8resolver10serializer13DNSSerializer10FromBufferI11sockaddr_inEElRT_PKhm = 0xb0c78
_ZN2nn6socket8resolver10serializer13DNSSerializer6SizeOfI12sockaddr_in6EEmRKT_ = 0xb0d40
_ZN2nn6socket8resolver10serializer13DNSSerializer8ToBufferI12sockaddr_in6EElPhmRKT_ = 0xb0d48
_ZN2nn6socket8resolver10serializer13DNSSerializer10FromBufferI12sockaddr_in6EElRT_PKhm = 0xb0e60
_ZN2nn6socket8resolver10serializer13DNSSerializer10FromBufferItEElRT_PKhm = 0xb0f58
_ZN2nn6socket8resolver10serializer13DNSSerializer8ToBufferItEElPhmRKT_ = 0xb0f94
_ZN2nn6socket8resolver10serializer13DNSSerializer10FromBufferIjEElRT_PKhm = 0xb0ffc
_ZN2nn6socket8resolver10serializer13DNSSerializer8ToBufferIjEElPhmRKT_ = 0xb1038
_ZN2nn6socket8resolver10serializer13DNSSerializer7hexdumpEPKcPKhl = 0xb10a0
_ZN2nn6socket8resolver10serializer13DNSSerializer22CheckToBufferArgumentsEPKhmmi = 0xb10a4
_ZN2nn6socket8resolver10serializer13DNSSerializer12InternalHtonERKj = 0xb10c0
_ZN2nn6socket8resolver10serializer13DNSSerializer12InternalHtonERKt = 0xb10c8
_ZN2nn6socket8resolver10serializer13DNSSerializer12InternalNtohERKj = 0xb10d0
_ZN2nn6socket8resolver10serializer13DNSSerializer12InternalNtohERKt = 0xb10d8
_ZN2nn6socket8resolver14CreateRandomIdERj = 0xb10e0
_ZN2nn6socket8resolver23GetOperationStateStringERKNS1_14OperationStateEb = 0xb1198
_ZNSt3__124uniform_int_distributionIjEclINS_23mersenne_twister_engineIjLm32ELm624ELm397ELm31ELj2567483615ELm11ELj4294967295ELm7ELj2636928640ELm15ELj4022730752ELm18ELj1812433253EEEEEjRT_RKNS1_10param_typeE = 0xb11e0
_ZN2nn6socket6detail13GetHostByNameEPKcPKNS0_14ResolverOptionEm = 0xb13a0
_ZN2nn6socket6detail13GetHostByAddrEPKvjiPKNS0_14ResolverOptionEm = 0xb13a4
_ZN2nn6socket6detail9HStrErrorEi = 0xb13a8
_ZN2nn6socket6detail11GAIStrErrorEi = 0xb13ac
_ZN2nn6socket6detail11GetAddrInfoEPKcS3_PK8addrinfoPPS4_PKNS0_14ResolverOptionEm = 0xb13b0
_ZN2nn6socket6detail11GetNameInfoEPK8sockaddrjPcjS5_jiPKNS0_14ResolverOptionEm = 0xb13b4
_ZN2nn6socket6detail19RequestCancelHandleEv = 0xb13c8
_ZN2nn6socket6detail6CancelEi = 0xb13cc
_ZN2nn6socket6detail12FreeAddrInfoEP8addrinfo = 0xb13d0
_ZN2nn6socket6detail9GetHErrnoEv = 0xb1408
_ZNK2nn2os6detail26ThreadManagerImplByHorizon20GetCurrentCoreNumberEv_1 = 0xb14ec
_ZN2nn2os20FlushEntireDataCacheEv_0 = 0xb1604
_ZN2nn4util20GenerateUuidVersion5EPKv = 0xb1774
_ZN2nn4util12GenerateUuidEv = 0xb17d8
_ZNK2nn7account10UiSettings9GetUiModeEv = 0xb1870
_ZNK2nn7account10UiSettings35GetNintendoAccountStartupDialogTypeEv = 0xb189c
_ZNK2nn7account10UiSettings14GetLicenseTypeEv = 0xb18c8
_ZN2nn7account25ShowUserSelectorForSystemEPNS0_3UidERKNS0_21UserSelectionSettingsERKNS0_37UserSelectionSettingsForSystemServiceE = 0xb18f4
_ZN2nn7account27ShowUserSelectorForLauncherEPNS0_3UidERKNS0_21UserSelectionSettingsERKNS_13ApplicationIdE = 0xb19d4
_ZN2nn7account16ShowUserSelectorEPNS0_3UidERKNS0_21UserSelectionSettingsE = 0xb1ab0
_ZN2nn7account15ShowUserCreatorEv = 0xb1b84
_ZN2nn7account18ShowUserIconEditorERKNS0_3UidE = 0xb1bf4
_ZN2nn7account22ShowUserNicknameEditorERKNS0_3UidE = 0xb1c4c
_ZN2nn7account25ShowUserCreatorForStarterEv = 0xb1ca4
_ZN2nn7account29ShowNintendoAccountNnidLinkerERKNS0_3UidE = 0xb1ce0
_ZN2nn7account27GetUiResultFromContextStackEPNS0_11UiReturnArgENS_6applet13StorageHandleE = 0xb1d38
_ZN2nn7account61ShowUiToIntroduceExternalNetworkServiceAccountForRegistrationERKNS0_9SessionIdE = 0xb1d6c
_ZN2nn7account40ShowLicenseRequirementsForNetworkServiceERKNS0_3UidE = 0xb1dc4
_ZN2nn7account40ShowLicenseRequirementsForNetworkServiceERKNS0_3UidERKNS_3err9ErrorCodeE = 0xb1e2c
_ZN2nn7account40ShowLicenseRequirementsForNetworkServiceERKNS0_10UserHandleE = 0xb1e94
_ZN2nn7account40ShowLicenseRequirementsForNetworkServiceERKNS0_10UserHandleERKNS_3err9ErrorCodeE = 0xb1f08
_ZN2nn7account6detail18OAuthProcedureBaseC2Ev = 0xb1f80
_ZN2nn7account6detail18OAuthProcedureBaseC1ERKNS0_3UidEPNS0_4http15IOAuthProcedureE = 0xb1f98
_ZN2nn7account6detail18OAuthProcedureBaseC1EOS2_ = 0xb1fc0
_ZN2nn7account6detail18OAuthProcedureBaseD0Ev = 0xb1ff4
_ZN2nn7account6detail18OAuthProcedureBaseaSEOS2_ = 0xb2038
_ZN2nn7account6detail18OAuthProcedureBase4SwapERS2_ = 0xb20c4
_ZNK2nn7account6detail18OAuthProcedureBase6GetPtrEv = 0xb210c
_ZN2nn7account6detail18OAuthProcedureBase12PrepareAsyncEPNS0_12AsyncContextE = 0xb2114
_ZN2nn7account6detail18OAuthProcedureBase10GetRequestEPNS0_10RequestUrlEPNS0_11CallbackUriE = 0xb21c8
_ZN2nn7account6detail18OAuthProcedureBase13ApplyResponseEPKcm = 0xb21ec
_ZN2nn7account6detail18OAuthProcedureBase18ApplyResponseAsyncEPNS0_12AsyncContextEPKcm = 0xb2220
_ZN2nn7account6detail18OAuthProcedureBase7SuspendEPNS0_9SessionIdE = 0xb22dc
_ZN2nn7account6detail24SimpleOAuthProcedureBaseC2Ev = 0xb2334
_ZN2nn7account6detail24SimpleOAuthProcedureBaseC2ERKNS0_3UidEPNS0_4http15IOAuthProcedureE = 0xb234c
_ZN2nn7account6detail24SimpleOAuthProcedureBaseC1EOS2_ = 0xb2380
_ZN2nn7account6detail24SimpleOAuthProcedureBaseaSEOS2_ = 0xb23c4
_ZN2nn7account6detail24SimpleOAuthProcedureBase4SwapERS2_ = 0xb2450
_ZN2nn7account6detail18OAuthProcedureBaseD2Ev = 0xb2498
_ZN2nn7account6detail24SimpleOAuthProcedureBaseD0Ev = 0xb24c0
_ZN2nn7account6detail21TryPopPreselectedUserEv = 0xb2504
_ZN2nn7account6detail25CheckInternetAvailabilityEv = 0xb25d8
_ZN2nn7account6detail15StartPselAppletERKNS0_10UiSettingsE = 0xb2600
_ZN2nn7account6detail15StartPselAppletERKNS0_10UiSettingsEPKvm = 0xb2744
_ZN2nn7account6detail22ShowUserSelectorCommonEPNS0_3UidERKNS0_10UiSettingsE = 0xb2780
_ZN2nn7account6detail12ObjectHolderD2Ev = 0xb2848
_ZN2nn7account10InitializeEv = 0xb28f4
_ZN2nn7account26InitializeForSystemServiceEv = 0xb29e8
_ZN2nn7account26InitializeForAdministratorEv = 0xb2a9c
_ZN2nn7account14InitializeWithEONS_2sf13SharedPointerINS0_31IAccountServiceForAdministratorEEE = 0xb2b54
_ZN2nn7account8FinalizeEv = 0xb2bd0
_ZN2nn7account6detail31TrySelectUserWithoutInteractionEPNS0_3UidEb = 0xb2c84
_ZN2nn7account12GetUserCountEPi = 0xb2cbc
_ZN2nn7account16GetUserExistenceEPbRKNS0_3UidE = 0xb2d0c
_ZN2nn7account12ListAllUsersEPiPNS0_3UidEi = 0xb2d48
_ZN2nn7account13ListOpenUsersEPiPNS0_3UidEi = 0xb2f70
_ZN2nn7account17GetLastOpenedUserEPNS0_3UidE = 0xb3198
_ZN2nn7account16GetProfileDigestEPNS0_13ProfileDigestERKNS0_3UidE = 0xb31cc
_ZN2nn7account11GetNicknameEPNS0_8NicknameERKNS0_3UidE = 0xb3208
_ZN2nn7account16LoadProfileImageEPmPvmRKNS0_3UidE = 0xb32c0
_ZN2nn7account34IsUserRegistrationRequestPermittedEPb = 0xb33a4
_ZN2nn7account8OpenUserEPNS0_10UserHandleERKNS0_3UidE = 0xb33e4
_ZN2nn7account19OpenPreselectedUserEPNS0_10UserHandleE = 0xb3478
_ZN2nn7account9CloseUserERKNS0_10UserHandleE = 0xb3530
_ZN2nn7account9GetUserIdEPNS0_3UidERKNS0_10UserHandleE = 0xb3540
_ZN2nn7account36CheckNetworkServiceAvailabilityAsyncEPNS0_12AsyncContextE = 0xb3550
_ZN2nn7account38IntroduceExternalNetworkServiceAccountEPNS0_33ExternalNetworkServiceAccountInfoEPvm = 0xb35f0
_ZN2nn7account43DebugIntroduceExternalNetworkServiceAccountEPmmPNS0_33ExternalNetworkServiceAccountInfoEPvm = 0xb3790
_ZN2nn7account27StoreSaveDataThumbnailImageERKNS0_3UidEPKvm = 0xb3914
_ZN2nn7account28DeleteSaveDataThumbnailImageERKNS0_3UidE = 0xb396c
_ZN2nn7account27GetUserRegistrationNotifierEPNS0_8NotifierE = 0xb39a8
_ZN2nn7account26GetUserStateChangeNotifierEPNS0_8NotifierE = 0xb3a48
_ZN2nn7account24GetProfileUpdateNotifierEPNS0_8NotifierE = 0xb3ae8
_ZN2nn7account50GetNetworkServiceAccountAvailabilityChangeNotifierEPNS0_8NotifierE = 0xb3b88
_ZN2nn7account28GetUserLastOpenedApplicationEPNS_13ApplicationIdEPjRKNS0_3UidE = 0xb3c28
_ZN2nn7account31GetNetworkServiceAccountManagerEPNS0_28NetworkServiceAccountManagerERKNS0_3UidE = 0xb3c74
_ZN2nn7account36CheckNetworkServiceAvailabilityAsyncEPNS0_12AsyncContextERKNS0_27SystemProgramIdentificationE = 0xb3d20
_ZN2nn7account27StoreSaveDataThumbnailImageERKNS0_3UidERKNS_13ApplicationIdEPKvm = 0xb3dcc
_ZN2nn7account28DeleteSaveDataThumbnailImageERKNS0_3UidERKNS_13ApplicationIdE = 0xb3e28
_ZN2nn7account26LoadSaveDataThumbnailImageEPvmRKNS0_3UidERKNS_13ApplicationIdE = 0xb3e68
_ZN2nn7account21BeginUserRegistrationEPNS0_3UidE = 0xb3ec8
_ZN2nn7account24CompleteUserRegistrationERKNS0_3UidE = 0xb3efc
_ZN2nn7account32CompleteUserRegistrationForciblyERKNS0_3UidE = 0xb3f30
_ZN2nn7account22CancelUserRegistrationERKNS0_3UidE = 0xb3f64
_ZN2nn7account10DeleteUserERKNS0_3UidE = 0xb3f98
_ZN2nn7account15SetUserPositionERKNS0_3UidEi = 0xb3fcc
_ZN2nn7account16GetProfileEditorEPNS0_13ProfileEditorERKNS0_3UidE = 0xb4008
_ZN2nn7account24AuthenticateServiceAsyncEPNS0_12AsyncContextE = 0xb40c4
_ZN2nn7account37GetNetworkServiceAccountAdministratorEPNS0_34NetworkServiceAccountAdministratorERKNS0_3UidE = 0xb4164
_ZN2nn7account44CreateExternalNetworkServiceAccountRegistrarEPNS0_38ExternalNetworkServiceAccountRegistrarEPvm = 0xb4210
_ZN2nn7account69ProxyProcedureToIntroduceExternalNetworkServiceAccountForRegistrationEPNS0_49ExternalNetworkServiceAccountIntroducingProcedureERKNS0_9SessionIdE = 0xb4334
_ZN2nn7account54ProxyProcedureToIntroduceExternalNetworkServiceAccountEPNS0_49ExternalNetworkServiceAccountIntroducingProcedureERKNS0_9SessionIdE = 0xb43e8
_ZN2nn7account11Declaration4SwapERS1_ = 0xb449c
_ZN2nn7account11DeclarationD2Ev = 0xb44b0
_ZN2nn7account25DebugInvalidateTokenCacheERKNS0_3UidE = 0xb44c8
_ZN2nn7account21DebugSetUserStateOpenERKNS0_3UidE = 0xb4528
_ZN2nn7account22DebugSetUserStateCloseERKNS0_3UidE = 0xb455c
_ZN2nn7account25SuspendBackgroundActivityEv = 0xb4590
_ZN2nn7account6detail12ObjectHolder11AcquireImplINS0_29IAccountServiceForApplicationEEENS_6ResultEPPT_PKc = 0xb4608
_ZN2nn2sf4hipc6client34HipcSimpleClientSessionManagerBase4Impl18InitializeByHandleINS_7account29IAccountServiceForApplicationENS0_25StatelessAllocationPolicyINS0_22ExpHeapStaticAllocatorILm2048ENS6_6detail12ObjectHolder24ObjectHolderAllocatorTagEEEEEEENS_6ResultEPNS0_13SharedPointerIT_EENS_3svc6HandleE = 0xb4710
_ZN2nn2sf6detail39ObjectImplFactoryWithStatelessAllocatorINS0_4cmif6client16CmifProxyFactoryINS_7account29IAccountServiceForApplicationENS4_15CmifDomainProxyINS0_4hipc6client38Hipc2ClientSessionManagedProxyKindBaseINSA_18Hipc2ProxyKindBaseILNS9_6detail11MessageTypeE4EEEEEEENS0_25StatelessAllocationPolicyINS0_22ExpHeapStaticAllocatorILm2048ENS6_6detail12ObjectHolder24ObjectHolderAllocatorTagEEEEEE13ServiceObjectESO_E6Object12AddReferenceEv = 0xb4824
_ZN2nn2sf6detail39ObjectImplFactoryWithStatelessAllocatorINS0_4cmif6client16CmifProxyFactoryINS_7account29IAccountServiceForApplicationENS4_15CmifDomainProxyINS0_4hipc6client38Hipc2ClientSessionManagedProxyKindBaseINSA_18Hipc2ProxyKindBaseILNS9_6detail11MessageTypeE4EEEEEEENS0_25StatelessAllocationPolicyINS0_22ExpHeapStaticAllocatorILm2048ENS6_6detail12ObjectHolder24ObjectHolderAllocatorTagEEEEEE13ServiceObjectESO_E6Object7ReleaseEv = 0xb482c
_ZN2nn2sf4cmif6client6detail13CmifProxyImplINS_7account19IAccountServiceBaseENS2_15CmifDomainProxyINS0_4hipc6client38Hipc2ClientSessionManagedProxyKindBaseINS9_18Hipc2ProxyKindBaseILNS8_6detail11MessageTypeE4EEEEEEENS0_25StatelessAllocationPolicyINS0_22ExpHeapStaticAllocatorILm2048ENS5_6detail12ObjectHolder24ObjectHolderAllocatorTagEEEEENS5_29IAccountServiceForApplicationEE12GetProxyInfoEv = 0xb48a0
_ZN2nn2sf4cmif6client6detail13CmifProxyImplINS_7account19IAccountServiceBaseENS2_15CmifDomainProxyINS0_4hipc6client38Hipc2ClientSessionManagedProxyKindBaseINS9_18Hipc2ProxyKindBaseILNS8_6detail11MessageTypeE4EEEEEEENS0_25StatelessAllocationPolicyINS0_22ExpHeapStaticAllocatorILm2048ENS5_6detail12ObjectHolder24ObjectHolderAllocatorTagEEEEENS5_29IAccountServiceForApplicationEE24_nn_sf_sync_GetUserCountENS0_3OutIivEE = 0xb48a8
_ZN2nn2sf4cmif6client6detail13CmifProxyImplINS_7account19IAccountServiceBaseENS2_15CmifDomainProxyINS0_4hipc6client38Hipc2ClientSessionManagedProxyKindBaseINS9_18Hipc2ProxyKindBaseILNS8_6detail11MessageTypeE4EEEEEEENS0_25StatelessAllocationPolicyINS0_22ExpHeapStaticAllocatorILm2048ENS5_6detail12ObjectHolder24ObjectHolderAllocatorTagEEEEENS5_29IAccountServiceForApplicationEE28_nn_sf_sync_GetUserExistenceENS0_3OutIbvEERKNS5_3UidE = 0xb48c8
_ZN2nn2sf4cmif6client6detail13CmifProxyImplINS_7account19IAccountServiceBaseENS2_15CmifDomainProxyINS0_4hipc6client38Hipc2ClientSessionManagedProxyKindBaseINS9_18Hipc2ProxyKindBaseILNS8_6detail11MessageTypeE4EEEEEEENS0_25StatelessAllocationPolicyINS0_22ExpHeapStaticAllocatorILm2048ENS5_6detail12ObjectHolder24ObjectHolderAllocatorTagEEEEENS5_29IAccountServiceForApplicationEE24_nn_sf_sync_ListAllUsersERKNS0_8OutArrayINS5_3UidEEE = 0xb48e8
_ZN2nn2sf4cmif6client6detail13CmifProxyImplINS_7account19IAccountServiceBaseENS2_15CmifDomainProxyINS0_4hipc6client38Hipc2ClientSessionManagedProxyKindBaseINS9_18Hipc2ProxyKindBaseILNS8_6detail11MessageTypeE4EEEEEEENS0_25StatelessAllocationPolicyINS0_22ExpHeapStaticAllocatorILm2048ENS5_6detail12ObjectHolder24ObjectHolderAllocatorTagEEEEENS5_29IAccountServiceForApplicationEE25_nn_sf_sync_ListOpenUsersERKNS0_8OutArrayINS5_3UidEEE = 0xb4914
_ZN2nn2sf4cmif6client6detail13CmifProxyImplINS_7account19IAccountServiceBaseENS2_15CmifDomainProxyINS0_4hipc6client38Hipc2ClientSessionManagedProxyKindBaseINS9_18Hipc2ProxyKindBaseILNS8_6detail11MessageTypeE4EEEEEEENS0_25StatelessAllocationPolicyINS0_22ExpHeapStaticAllocatorILm2048ENS5_6detail12ObjectHolder24ObjectHolderAllocatorTagEEEEENS5_29IAccountServiceForApplicationEE29_nn_sf_sync_GetLastOpenedUserENS0_3OutINS5_3UidEvEE = 0xb4940
_ZN2nn2sf4cmif6client6detail13CmifProxyImplINS_7account19IAccountServiceBaseENS2_15CmifDomainProxyINS0_4hipc6client38Hipc2ClientSessionManagedProxyKindBaseINS9_18Hipc2ProxyKindBaseILNS8_6detail11MessageTypeE4EEEEEEENS0_25StatelessAllocationPolicyINS0_22ExpHeapStaticAllocatorILm2048ENS5_6detail12ObjectHolder24ObjectHolderAllocatorTagEEEEENS5_29IAccountServiceForApplicationEE22_nn_sf_sync_GetProfileENS0_3OutINS0_13SharedPointerINS5_7profile8IProfileEEEvEERKNS5_3UidE = 0xb4960
_ZN2nn2sf4cmif6client6detail13CmifProxyImplINS_7account19IAccountServiceBaseENS2_15CmifDomainProxyINS0_4hipc6client38Hipc2ClientSessionManagedProxyKindBaseINS9_18Hipc2ProxyKindBaseILNS8_6detail11MessageTypeE4EEEEEEENS0_25StatelessAllocationPolicyINS0_22ExpHeapStaticAllocatorILm2048ENS5_6detail12ObjectHolder24ObjectHolderAllocatorTagEEEEENS5_29IAccountServiceForApplicationEE28_nn_sf_sync_GetProfileDigestENS0_3OutINS5_13ProfileDigestEvEERKNS5_3UidE = 0xb49fc
_ZN2nn2sf4cmif6client6detail13CmifProxyImplINS_7account19IAccountServiceBaseENS2_15CmifDomainProxyINS0_4hipc6client38Hipc2ClientSessionManagedProxyKindBaseINS9_18Hipc2ProxyKindBaseILNS8_6detail11MessageTypeE4EEEEEEENS0_25StatelessAllocationPolicyINS0_22ExpHeapStaticAllocatorILm2048ENS5_6detail12ObjectHolder24ObjectHolderAllocatorTagEEEEENS5_29IAccountServiceForApplicationEE46_nn_sf_sync_IsUserRegistrationRequestPermittedENS0_3OutIbvEEm = 0xb4a1c
_ZN2nn2sf4cmif6client6detail13CmifProxyImplINS_7account19IAccountServiceBaseENS2_15CmifDomainProxyINS0_4hipc6client38Hipc2ClientSessionManagedProxyKindBaseINS9_18Hipc2ProxyKindBaseILNS8_6detail11MessageTypeE4EEEEEEENS0_25StatelessAllocationPolicyINS0_22ExpHeapStaticAllocatorILm2048ENS5_6detail12ObjectHolder24ObjectHolderAllocatorTagEEEEENS5_29IAccountServiceForApplicationEE43_nn_sf_sync_TrySelectUserWithoutInteractionENS0_3OutINS5_3UidEvEEb = 0xb4a3c
_ZN2nn2sf4cmif6client6detail13CmifProxyImplINS_7account29IAccountServiceForApplicationENS2_15CmifDomainProxyINS0_4hipc6client38Hipc2ClientSessionManagedProxyKindBaseINS9_18Hipc2ProxyKindBaseILNS8_6detail11MessageTypeE4EEEEEEENS0_25StatelessAllocationPolicyINS0_22ExpHeapStaticAllocatorILm2048ENS5_6detail12ObjectHolder24ObjectHolderAllocatorTagEEEEES6_E37_nn_sf_sync_InitializeApplicationInfoEm = 0xb4a60
_ZN2nn2sf4cmif6client6detail13CmifProxyImplINS_7account29IAccountServiceForApplicationENS2_15CmifDomainProxyINS0_4hipc6client38Hipc2ClientSessionManagedProxyKindBaseINS9_18Hipc2ProxyKindBaseILNS8_6detail11MessageTypeE4EEEEEEENS0_25StatelessAllocationPolicyINS0_22ExpHeapStaticAllocatorILm2048ENS5_6detail12ObjectHolder24ObjectHolderAllocatorTagEEEEES6_E47_nn_sf_sync_GetBaasAccountManagerForApplicationENS0_3OutINS0_13SharedPointerINS5_4baas22IManagerForApplicationEEEvEERKNS5_3UidE = 0xb4a80
_ZN2nn2sf4cmif6client6detail13CmifProxyImplINS_7account29IAccountServiceForApplicationENS2_15CmifDomainProxyINS0_4hipc6client38Hipc2ClientSessionManagedProxyKindBaseINS9_18Hipc2ProxyKindBaseILNS8_6detail11MessageTypeE4EEEEEEENS0_25StatelessAllocationPolicyINS0_22ExpHeapStaticAllocatorILm2048ENS5_6detail12ObjectHolder24ObjectHolderAllocatorTagEEEEES6_E40_nn_sf_sync_AuthenticateApplicationAsyncENS0_3OutINS0_13SharedPointerINSJ_13IAsyncContextEEEvEE = 0xb4b1c
_ZN2nn2sf4cmif6client6detail13CmifProxyImplINS_7account29IAccountServiceForApplicationENS2_15CmifDomainProxyINS0_4hipc6client38Hipc2ClientSessionManagedProxyKindBaseINS9_18Hipc2ProxyKindBaseILNS8_6detail11MessageTypeE4EEEEEEENS0_25StatelessAllocationPolicyINS0_22ExpHeapStaticAllocatorILm2048ENS5_6detail12ObjectHolder24ObjectHolderAllocatorTagEEEEES6_E48_nn_sf_sync_CheckNetworkServiceAvailabilityAsyncENS0_3OutINS0_13SharedPointerINSJ_13IAsyncContextEEEvEE = 0xb4bac
_ZN2nn2sf4cmif6client6detail13CmifProxyImplINS_7account29IAccountServiceForApplicationENS2_15CmifDomainProxyINS0_4hipc6client38Hipc2ClientSessionManagedProxyKindBaseINS9_18Hipc2ProxyKindBaseILNS8_6detail11MessageTypeE4EEEEEEENS0_25StatelessAllocationPolicyINS0_22ExpHeapStaticAllocatorILm2048ENS5_6detail12ObjectHolder24ObjectHolderAllocatorTagEEEEES6_E34_nn_sf_sync_StoreSaveDataThumbnailERKNS5_3UidERKNS0_8InBufferE = 0xb4c3c
_ZN2nn2sf4cmif6client6detail13CmifProxyImplINS_7account29IAccountServiceForApplicationENS2_15CmifDomainProxyINS0_4hipc6client38Hipc2ClientSessionManagedProxyKindBaseINS9_18Hipc2ProxyKindBaseILNS8_6detail11MessageTypeE4EEEEEEENS0_25StatelessAllocationPolicyINS0_22ExpHeapStaticAllocatorILm2048ENS5_6detail12ObjectHolder24ObjectHolderAllocatorTagEEEEES6_E34_nn_sf_sync_ClearSaveDataThumbnailERKNS5_3UidE = 0xb4c64
_ZN2nn2sf4cmif6client6detail13CmifProxyImplINS_7account29IAccountServiceForApplicationENS2_15CmifDomainProxyINS0_4hipc6client38Hipc2ClientSessionManagedProxyKindBaseINS9_18Hipc2ProxyKindBaseILNS8_6detail11MessageTypeE4EEEEEEENS0_25StatelessAllocationPolicyINS0_22ExpHeapStaticAllocatorILm2048ENS5_6detail12ObjectHolder24ObjectHolderAllocatorTagEEEEES6_E35_nn_sf_sync_CreateGuestLoginRequestENS0_3OutINS0_13SharedPointerINS5_4baas18IGuestLoginRequestEEEvEEONS0_12NativeHandleEj = 0xb4c84
_ZN2nn2sf4cmif6client6detail13CmifProxyImplINS_7account19IAccountServiceBaseENS2_15CmifDomainProxyINS0_4hipc6client38Hipc2ClientSessionManagedProxyKindBaseINS9_18Hipc2ProxyKindBaseILNS8_6detail11MessageTypeE4EEEEEEENS0_25StatelessAllocationPolicyINS0_22ExpHeapStaticAllocatorILm2048ENS5_6detail12ObjectHolder24ObjectHolderAllocatorTagEEEEENS5_29IAccountServiceForApplicationEE17GetCmifBaseObjectEv = 0xb4d2c
_ZThn32_N2nn2sf4cmif6client6detail13CmifProxyImplINS_7account19IAccountServiceBaseENS2_15CmifDomainProxyINS0_4hipc6client38Hipc2ClientSessionManagedProxyKindBaseINS9_18Hipc2ProxyKindBaseILNS8_6detail11MessageTypeE4EEEEEEENS0_25StatelessAllocationPolicyINS0_22ExpHeapStaticAllocatorILm2048ENS5_6detail12ObjectHolder24ObjectHolderAllocatorTagEEEEENS5_29IAccountServiceForApplicationEE17GetCmifBaseObjectEv = 0xb4d3c
_ZN2nn2sf4cmif6client34CmifDomainProxyClientCoreProcessorINS0_4hipc6client38Hipc2ClientSessionManagedProxyKindBaseINS5_18Hipc2ProxyKindBaseILNS4_6detail11MessageTypeE4EEEEENS1_6detail14CoreMethodInfoINSt3__15tupleIJNSC_18OutRawArgumentInfoILm1ELm1ELl0EEENSC_17InRawArgumentInfoILm16ELm8ELl0EEEEEELm16ELm1ELb0EEESK_E7ProcessEPNS2_23CmifDomainClientMessageISB_E15ProxyBaseObjectENS2_24OutRawClientArgumentTypeILm1ELm1EEENS2_23InRawClientArgumentTypeILm16ELm8EvEEj = 0xb4d44
_ZN2nn2sf4cmif6client34CmifDomainProxyClientCoreProcessorINS0_4hipc6client38Hipc2ClientSessionManagedProxyKindBaseINS5_18Hipc2ProxyKindBaseILNS4_6detail11MessageTypeE4EEEEENS1_6detail14CoreMethodInfoINSt3__15tupleIJNSC_18BufferArgumentInfoILi0ELi10ELm0EEEEEELm0ELm0ELb0EEESI_E7ProcessEPNS2_23CmifDomainClientMessageISB_E15ProxyBaseObjectENS2_24BufferClientArgumentTypeEj = 0xb4ea8
_ZN2nn2sf4cmif6client34CmifDomainProxyClientCoreProcessorINS0_4hipc6client38Hipc2ClientSessionManagedProxyKindBaseINS5_18Hipc2ProxyKindBaseILNS4_6detail11MessageTypeE4EEEEENS1_6detail14CoreMethodInfoINSt3__15tupleIJNSC_18OutRawArgumentInfoILm16ELm8ELl0EEEEEELm0ELm16ELb0EEESI_E7ProcessEPNS2_23CmifDomainClientMessageISB_E15ProxyBaseObjectENS2_24OutRawClientArgumentTypeILm16ELm8EEEj = 0xb5060
_ZN2nn2sf4cmif6client34CmifDomainProxyClientCoreProcessorINS0_4hipc6client38Hipc2ClientSessionManagedProxyKindBaseINS5_18Hipc2ProxyKindBaseILNS4_6detail11MessageTypeE4EEEEENS1_6detail14CoreMethodInfoINSt3__15tupleIJNSC_21OutObjectArgumentInfoILi0ELi0EEENSC_17InRawArgumentInfoILm16ELm8ELl0EEEEEELm16ELm0ELb0EEESK_E21ProcessWithOutObjectsEPNS2_23CmifDomainClientMessageISB_E15ProxyBaseObjectENS2_27OutObjectClientArgumentTypeENS2_23InRawClientArgumentTypeILm16ELm8EvEEjPNS0_13SharedPointerINS0_14IServiceObjectEEE = 0xb51b0
_ZN2nn2sf4cmif6client32GetClientProcessorWithObjectBaseINS2_15CmifDomainProxyINS0_4hipc6client38Hipc2ClientSessionManagedProxyKindBaseINS6_18Hipc2ProxyKindBaseILNS5_6detail11MessageTypeE4EEEEEEEE14ObjectAssignerINS0_25StatelessAllocationPolicyINS0_22ExpHeapStaticAllocatorILm2048ENS_7account6detail12ObjectHolder24ObjectHolderAllocatorTagEEEEENS0_6detail23StatelessDummyAllocatorEE14AllocateObjectINSI_7profile8IProfileEEEvi = 0xb5390
_ZN2nn2sf6detail39ObjectImplFactoryWithStatelessAllocatorINS0_4cmif6client16CmifProxyFactoryINS_7account7profile8IProfileENS4_15CmifDomainProxyINS0_4hipc6client38Hipc2ClientSessionManagedProxyKindBaseINSB_18Hipc2ProxyKindBaseILNSA_6detail11MessageTypeE4EEEEEEENS0_25StatelessAllocationPolicyINS0_22ExpHeapStaticAllocatorILm2048ENS6_6detail12ObjectHolder24ObjectHolderAllocatorTagEEEEEE13ServiceObjectESP_E6Object12AddReferenceEv = 0xb5444
_ZN2nn2sf6detail39ObjectImplFactoryWithStatelessAllocatorINS0_4cmif6client16CmifProxyFactoryINS_7account7profile8IProfileENS4_15CmifDomainProxyINS0_4hipc6client38Hipc2ClientSessionManagedProxyKindBaseINSB_18Hipc2ProxyKindBaseILNSA_6detail11MessageTypeE4EEEEEEENS0_25StatelessAllocationPolicyINS0_22ExpHeapStaticAllocatorILm2048ENS6_6detail12ObjectHolder24ObjectHolderAllocatorTagEEEEEE13ServiceObjectESP_E6Object7ReleaseEv = 0xb544c
_ZN2nn2sf4cmif6client6detail13CmifProxyImplINS_7account7profile8IProfileENS2_15CmifDomainProxyINS0_4hipc6client38Hipc2ClientSessionManagedProxyKindBaseINSA_18Hipc2ProxyKindBaseILNS9_6detail11MessageTypeE4EEEEEEENS0_25StatelessAllocationPolicyINS0_22ExpHeapStaticAllocatorILm2048ENS5_6detail12ObjectHolder24ObjectHolderAllocatorTagEEEEES7_E12GetProxyInfoEv = 0xb54c0
_ZN2nn2sf4cmif6client6detail13CmifProxyImplINS_7account7profile8IProfileENS2_15CmifDomainProxyINS0_4hipc6client38Hipc2ClientSessionManagedProxyKindBaseINSA_18Hipc2ProxyKindBaseILNS9_6detail11MessageTypeE4EEEEEEENS0_25StatelessAllocationPolicyINS0_22ExpHeapStaticAllocatorILm2048ENS5_6detail12ObjectHolder24ObjectHolderAllocatorTagEEEEES7_E15_nn_sf_sync_GetENS0_3OutINS6_11ProfileBaseEvEENSQ_INS6_8UserDataEvEE = 0xb54c8
_ZN2nn2sf4cmif6client6detail13CmifProxyImplINS_7account7profile8IProfileENS2_15CmifDomainProxyINS0_4hipc6client38Hipc2ClientSessionManagedProxyKindBaseINSA_18Hipc2ProxyKindBaseILNS9_6detail11MessageTypeE4EEEEEEENS0_25StatelessAllocationPolicyINS0_22ExpHeapStaticAllocatorILm2048ENS5_6detail12ObjectHolder24ObjectHolderAllocatorTagEEEEES7_E19_nn_sf_sync_GetBaseENS0_3OutINS6_11ProfileBaseEvEE = 0xb54ec
_ZN2nn2sf4cmif6client6detail13CmifProxyImplINS_7account7profile8IProfileENS2_15CmifDomainProxyINS0_4hipc6client38Hipc2ClientSessionManagedProxyKindBaseINSA_18Hipc2ProxyKindBaseILNS9_6detail11MessageTypeE4EEEEEEENS0_25StatelessAllocationPolicyINS0_22ExpHeapStaticAllocatorILm2048ENS5_6detail12ObjectHolder24ObjectHolderAllocatorTagEEEEES7_E24_nn_sf_sync_GetImageSizeENS0_3OutIjvEE = 0xb550c
_ZN2nn2sf4cmif6client6detail13CmifProxyImplINS_7account7profile8IProfileENS2_15CmifDomainProxyINS0_4hipc6client38Hipc2ClientSessionManagedProxyKindBaseINSA_18Hipc2ProxyKindBaseILNS9_6detail11MessageTypeE4EEEEEEENS0_25StatelessAllocationPolicyINS0_22ExpHeapStaticAllocatorILm2048ENS5_6detail12ObjectHolder24ObjectHolderAllocatorTagEEEEES7_E21_nn_sf_sync_LoadImageENS0_3OutIjvEERKNS0_9OutBufferE = 0xb552c
_ZN2nn2sf4cmif6client6detail13CmifProxyImplINS_7account7profile8IProfileENS2_15CmifDomainProxyINS0_4hipc6client38Hipc2ClientSessionManagedProxyKindBaseINSA_18Hipc2ProxyKindBaseILNS9_6detail11MessageTypeE4EEEEEEENS0_25StatelessAllocationPolicyINS0_22ExpHeapStaticAllocatorILm2048ENS5_6detail12ObjectHolder24ObjectHolderAllocatorTagEEEEES7_E17GetCmifBaseObjectEv = 0xb5554
_ZThn32_N2nn2sf4cmif6client6detail13CmifProxyImplINS_7account7profile8IProfileENS2_15CmifDomainProxyINS0_4hipc6client38Hipc2ClientSessionManagedProxyKindBaseINSA_18Hipc2ProxyKindBaseILNS9_6detail11MessageTypeE4EEEEEEENS0_25StatelessAllocationPolicyINS0_22ExpHeapStaticAllocatorILm2048ENS5_6detail12ObjectHolder24ObjectHolderAllocatorTagEEEEES7_E17GetCmifBaseObjectEv = 0xb5564
_ZN2nn2sf4cmif6client34CmifDomainProxyClientCoreProcessorINS0_4hipc6client38Hipc2ClientSessionManagedProxyKindBaseINS5_18Hipc2ProxyKindBaseILNS4_6detail11MessageTypeE4EEEEENS1_6detail14CoreMethodInfoINSt3__15tupleIJNSC_18OutRawArgumentInfoILm56ELm8ELl0EEENSC_18BufferArgumentInfoILi0ELi26ELm128EEEEEELm0ELm56ELb0EEESK_E7ProcessEPNS2_23CmifDomainClientMessageISB_E15ProxyBaseObjectENS2_24OutRawClientArgumentTypeILm56ELm8EEENS2_24BufferClientArgumentTypeEj = 0xb556c
_ZN2nn2sf4cmif6client34CmifDomainProxyClientCoreProcessorINS0_4hipc6client38Hipc2ClientSessionManagedProxyKindBaseINS5_18Hipc2ProxyKindBaseILNS4_6detail11MessageTypeE4EEEEENS1_6detail14CoreMethodInfoINSt3__15tupleIJNSC_18OutRawArgumentInfoILm56ELm8ELl0EEEEEELm0ELm56ELb0EEESI_E7ProcessEPNS2_23CmifDomainClientMessageISB_E15ProxyBaseObjectENS2_24OutRawClientArgumentTypeILm56ELm8EEEj = 0xb5748
_ZN2nn2sf4cmif6client34CmifDomainProxyClientCoreProcessorINS0_4hipc6client38Hipc2ClientSessionManagedProxyKindBaseINS5_18Hipc2ProxyKindBaseILNS4_6detail11MessageTypeE4EEEEENS1_6detail14CoreMethodInfoINSt3__15tupleIJNSC_18OutRawArgumentInfoILm4ELm4ELl0EEENSC_18BufferArgumentInfoILi0ELi6ELm0EEEEEELm0ELm4ELb0EEESK_E7ProcessEPNS2_23CmifDomainClientMessageISB_E15ProxyBaseObjectENS2_24OutRawClientArgumentTypeILm4ELm4EEENS2_24BufferClientArgumentTypeEj = 0xb5898
_ZN2nn2sf4cmif6client34CmifDomainProxyClientCoreProcessorINS0_4hipc6client38Hipc2ClientSessionManagedProxyKindBaseINS5_18Hipc2ProxyKindBaseILNS4_6detail11MessageTypeE4EEEEENS1_6detail14CoreMethodInfoINSt3__15tupleIJNSC_18OutRawArgumentInfoILm16ELm1ELl0EEENSC_17InRawArgumentInfoILm16ELm8ELl0EEEEEELm16ELm16ELb0EEESK_E7ProcessEPNS2_23CmifDomainClientMessageISB_E15ProxyBaseObjectENS2_24OutRawClientArgumentTypeILm16ELm1EEENS2_23InRawClientArgumentTypeILm16ELm8EvEEj = 0xb5a70
_ZN2nn2sf4cmif6client34CmifDomainProxyClientCoreProcessorINS0_4hipc6client38Hipc2ClientSessionManagedProxyKindBaseINS5_18Hipc2ProxyKindBaseILNS4_6detail11MessageTypeE4EEEEENS1_6detail14CoreMethodInfoINSt3__15tupleIJNSC_18OutRawArgumentInfoILm1ELm1ELl0EEENSC_17InRawArgumentInfoILm8ELm8ELl0EEEEEELm8ELm1ELb1EEESK_E7ProcessEPNS2_23CmifDomainClientMessageISB_E15ProxyBaseObjectENS2_24OutRawClientArgumentTypeILm1ELm1EEENS2_23InRawClientArgumentTypeILm8ELm8EvEEj = 0xb5bdc
_ZN2nn2sf4cmif6client34CmifDomainProxyClientCoreProcessorINS0_4hipc6client38Hipc2ClientSessionManagedProxyKindBaseINS5_18Hipc2ProxyKindBaseILNS4_6detail11MessageTypeE4EEEEENS1_6detail14CoreMethodInfoINSt3__15tupleIJNSC_18OutRawArgumentInfoILm16ELm8ELl0EEENSC_17InRawArgumentInfoILm1ELm1ELl0EEEEEELm1ELm16ELb0EEESK_E7ProcessEPNS2_23CmifDomainClientMessageISB_E15ProxyBaseObjectENS2_24OutRawClientArgumentTypeILm16ELm8EEENS2_23InRawClientArgumentTypeILm1ELm1EvEEj = 0xb5d3c
_ZN2nn2sf4cmif6client32GetClientProcessorWithObjectBaseINS2_15CmifDomainProxyINS0_4hipc6client38Hipc2ClientSessionManagedProxyKindBaseINS6_18Hipc2ProxyKindBaseILNS5_6detail11MessageTypeE4EEEEEEEE14ObjectAssignerINS0_25StatelessAllocationPolicyINS0_22ExpHeapStaticAllocatorILm2048ENS_7account6detail12ObjectHolder24ObjectHolderAllocatorTagEEEEENS0_6detail23StatelessDummyAllocatorEE14AllocateObjectINSI_4baas22IManagerForApplicationEEEvi = 0xb5e9c
_ZN2nn2sf6detail39ObjectImplFactoryWithStatelessAllocatorINS0_4cmif6client16CmifProxyFactoryINS_7account4baas22IManagerForApplicationENS4_15CmifDomainProxyINS0_4hipc6client38Hipc2ClientSessionManagedProxyKindBaseINSB_18Hipc2ProxyKindBaseILNSA_6detail11MessageTypeE4EEEEEEENS0_25StatelessAllocationPolicyINS0_22ExpHeapStaticAllocatorILm2048ENS6_6detail12ObjectHolder24ObjectHolderAllocatorTagEEEEEE13ServiceObjectESP_E6Object12AddReferenceEv = 0xb5f50
_ZN2nn2sf6detail39ObjectImplFactoryWithStatelessAllocatorINS0_4cmif6client16CmifProxyFactoryINS_7account4baas22IManagerForApplicationENS4_15CmifDomainProxyINS0_4hipc6client38Hipc2ClientSessionManagedProxyKindBaseINSB_18Hipc2ProxyKindBaseILNSA_6detail11MessageTypeE4EEEEEEENS0_25StatelessAllocationPolicyINS0_22ExpHeapStaticAllocatorILm2048ENS6_6detail12ObjectHolder24ObjectHolderAllocatorTagEEEEEE13ServiceObjectESP_E6Object7ReleaseEv = 0xb5f58
_ZN2nn2sf4cmif6client6detail13CmifProxyImplINS_7account4baas12IManagerBaseENS2_15CmifDomainProxyINS0_4hipc6client38Hipc2ClientSessionManagedProxyKindBaseINSA_18Hipc2ProxyKindBaseILNS9_6detail11MessageTypeE4EEEEEEENS0_25StatelessAllocationPolicyINS0_22ExpHeapStaticAllocatorILm2048ENS5_6detail12ObjectHolder24ObjectHolderAllocatorTagEEEEENS6_22IManagerForApplicationEE12GetProxyInfoEv = 0xb5fcc
_ZN2nn2sf4cmif6client6detail13CmifProxyImplINS_7account4baas12IManagerBaseENS2_15CmifDomainProxyINS0_4hipc6client38Hipc2ClientSessionManagedProxyKindBaseINSA_18Hipc2ProxyKindBaseILNS9_6detail11MessageTypeE4EEEEEEENS0_25StatelessAllocationPolicyINS0_22ExpHeapStaticAllocatorILm2048ENS5_6detail12ObjectHolder24ObjectHolderAllocatorTagEEEEENS6_22IManagerForApplicationEE29_nn_sf_sync_CheckAvailabilityEv = 0xb5fd4
_ZN2nn2sf4cmif6client6detail13CmifProxyImplINS_7account4baas12IManagerBaseENS2_15CmifDomainProxyINS0_4hipc6client38Hipc2ClientSessionManagedProxyKindBaseINSA_18Hipc2ProxyKindBaseILNS9_6detail11MessageTypeE4EEEEEEENS0_25StatelessAllocationPolicyINS0_22ExpHeapStaticAllocatorILm2048ENS5_6detail12ObjectHolder24ObjectHolderAllocatorTagEEEEENS6_22IManagerForApplicationEE24_nn_sf_sync_GetAccountIdENS0_3OutINS5_23NetworkServiceAccountIdEvEE = 0xb5ff4
_ZN2nn2sf4cmif6client6detail13CmifProxyImplINS_7account4baas12IManagerBaseENS2_15CmifDomainProxyINS0_4hipc6client38Hipc2ClientSessionManagedProxyKindBaseINSA_18Hipc2ProxyKindBaseILNS9_6detail11MessageTypeE4EEEEEEENS0_25StatelessAllocationPolicyINS0_22ExpHeapStaticAllocatorILm2048ENS5_6detail12ObjectHolder24ObjectHolderAllocatorTagEEEEENS6_22IManagerForApplicationEE35_nn_sf_sync_EnsureIdTokenCacheAsyncENS0_3OutINS0_13SharedPointerINSK_13IAsyncContextEEEvEE = 0xb6014
_ZN2nn2sf4cmif6client6detail13CmifProxyImplINS_7account4baas12IManagerBaseENS2_15CmifDomainProxyINS0_4hipc6client38Hipc2ClientSessionManagedProxyKindBaseINSA_18Hipc2ProxyKindBaseILNS9_6detail11MessageTypeE4EEEEEEENS0_25StatelessAllocationPolicyINS0_22ExpHeapStaticAllocatorILm2048ENS5_6detail12ObjectHolder24ObjectHolderAllocatorTagEEEEENS6_22IManagerForApplicationEE28_nn_sf_sync_LoadIdTokenCacheENS0_3OutIjvEERKNS0_9OutBufferE = 0xb60a4
_ZN2nn2sf4cmif6client6detail13CmifProxyImplINS_7account4baas22IManagerForApplicationENS2_15CmifDomainProxyINS0_4hipc6client38Hipc2ClientSessionManagedProxyKindBaseINSA_18Hipc2ProxyKindBaseILNS9_6detail11MessageTypeE4EEEEEEENS0_25StatelessAllocationPolicyINS0_22ExpHeapStaticAllocatorILm2048ENS5_6detail12ObjectHolder24ObjectHolderAllocatorTagEEEEES7_E61_nn_sf_sync_GetNintendoAccountUserResourceCacheForApplicationENS0_3OutINS5_17NintendoAccountIdEvEENSQ_INS5_3nas25NasUserBaseForApplicationEvEERKNS0_9OutBufferE = 0xb60cc
_ZN2nn2sf4cmif6client6detail13CmifProxyImplINS_7account4baas22IManagerForApplicationENS2_15CmifDomainProxyINS0_4hipc6client38Hipc2ClientSessionManagedProxyKindBaseINSA_18Hipc2ProxyKindBaseILNS9_6detail11MessageTypeE4EEEEEEENS0_25StatelessAllocationPolicyINS0_22ExpHeapStaticAllocatorILm2048ENS5_6detail12ObjectHolder24ObjectHolderAllocatorTagEEEEES7_E38_nn_sf_sync_CreateAuthorizationRequestENS0_3OutINS0_13SharedPointerINS5_3nas21IAuthorizationRequestEEEvEERKNS5_45NintendoAccountAuthorizationRequestParametersEONS0_12NativeHandleEj = 0xb60f4
_ZN2nn2sf4cmif6client6detail13CmifProxyImplINS_7account4baas12IManagerBaseENS2_15CmifDomainProxyINS0_4hipc6client38Hipc2ClientSessionManagedProxyKindBaseINSA_18Hipc2ProxyKindBaseILNS9_6detail11MessageTypeE4EEEEEEENS0_25StatelessAllocationPolicyINS0_22ExpHeapStaticAllocatorILm2048ENS5_6detail12ObjectHolder24ObjectHolderAllocatorTagEEEEENS6_22IManagerForApplicationEE17GetCmifBaseObjectEv = 0xb61ac
_ZThn32_N2nn2sf4cmif6client6detail13CmifProxyImplINS_7account4baas12IManagerBaseENS2_15CmifDomainProxyINS0_4hipc6client38Hipc2ClientSessionManagedProxyKindBaseINSA_18Hipc2ProxyKindBaseILNS9_6detail11MessageTypeE4EEEEEEENS0_25StatelessAllocationPolicyINS0_22ExpHeapStaticAllocatorILm2048ENS5_6detail12ObjectHolder24ObjectHolderAllocatorTagEEEEENS6_22IManagerForApplicationEE17GetCmifBaseObjectEv = 0xb61bc
_ZN2nn2sf4cmif6client32GetClientProcessorWithObjectBaseINS2_15CmifDomainProxyINS0_4hipc6client38Hipc2ClientSessionManagedProxyKindBaseINS6_18Hipc2ProxyKindBaseILNS5_6detail11MessageTypeE4EEEEEEEE14ObjectAssignerINS0_25StatelessAllocationPolicyINS0_22ExpHeapStaticAllocatorILm2048ENS_7account6detail12ObjectHolder24ObjectHolderAllocatorTagEEEEENS0_6detail23StatelessDummyAllocatorEE14AllocateObjectINSJ_13IAsyncContextEEEvi = 0xb61c4
_ZN2nn2sf6detail39ObjectImplFactoryWithStatelessAllocatorINS0_4cmif6client16CmifProxyFactoryINS_7account6detail13IAsyncContextENS4_15CmifDomainProxyINS0_4hipc6client38Hipc2ClientSessionManagedProxyKindBaseINSB_18Hipc2ProxyKindBaseILNSA_6detail11MessageTypeE4EEEEEEENS0_25StatelessAllocationPolicyINS0_22ExpHeapStaticAllocatorILm2048ENS7_12ObjectHolder24ObjectHolderAllocatorTagEEEEEE13ServiceObjectESO_E6Object12AddReferenceEv = 0xb6278
_ZN2nn2sf6detail39ObjectImplFactoryWithStatelessAllocatorINS0_4cmif6client16CmifProxyFactoryINS_7account6detail13IAsyncContextENS4_15CmifDomainProxyINS0_4hipc6client38Hipc2ClientSessionManagedProxyKindBaseINSB_18Hipc2ProxyKindBaseILNSA_6detail11MessageTypeE4EEEEEEENS0_25StatelessAllocationPolicyINS0_22ExpHeapStaticAllocatorILm2048ENS7_12ObjectHolder24ObjectHolderAllocatorTagEEEEEE13ServiceObjectESO_E6Object7ReleaseEv = 0xb6280
_ZN2nn2sf4cmif6client6detail13CmifProxyImplINS_7account6detail13IAsyncContextENS2_15CmifDomainProxyINS0_4hipc6client38Hipc2ClientSessionManagedProxyKindBaseINSA_18Hipc2ProxyKindBaseILNS9_6detail11MessageTypeE4EEEEEEENS0_25StatelessAllocationPolicyINS0_22ExpHeapStaticAllocatorILm2048ENS6_12ObjectHolder24ObjectHolderAllocatorTagEEEEES7_E12GetProxyInfoEv = 0xb62f4
_ZN2nn2sf4cmif6client6detail13CmifProxyImplINS_7account6detail13IAsyncContextENS2_15CmifDomainProxyINS0_4hipc6client38Hipc2ClientSessionManagedProxyKindBaseINSA_18Hipc2ProxyKindBaseILNS9_6detail11MessageTypeE4EEEEEEENS0_25StatelessAllocationPolicyINS0_22ExpHeapStaticAllocatorILm2048ENS6_12ObjectHolder24ObjectHolderAllocatorTagEEEEES7_E26_nn_sf_sync_GetSystemEventENS0_3OutINS0_12NativeHandleEvEE = 0xb62fc
_ZN2nn2sf4cmif6client6detail13CmifProxyImplINS_7account6detail13IAsyncContextENS2_15CmifDomainProxyINS0_4hipc6client38Hipc2ClientSessionManagedProxyKindBaseINSA_18Hipc2ProxyKindBaseILNS9_6detail11MessageTypeE4EEEEEEENS0_25StatelessAllocationPolicyINS0_22ExpHeapStaticAllocatorILm2048ENS6_12ObjectHolder24ObjectHolderAllocatorTagEEEEES7_E18_nn_sf_sync_CancelEv = 0xb631c
_ZN2nn2sf4cmif6client6detail13CmifProxyImplINS_7account6detail13IAsyncContextENS2_15CmifDomainProxyINS0_4hipc6client38Hipc2ClientSessionManagedProxyKindBaseINSA_18Hipc2ProxyKindBaseILNS9_6detail11MessageTypeE4EEEEEEENS0_25StatelessAllocationPolicyINS0_22ExpHeapStaticAllocatorILm2048ENS6_12ObjectHolder24ObjectHolderAllocatorTagEEEEES7_E19_nn_sf_sync_HasDoneENS0_3OutIbvEE = 0xb633c
_ZN2nn2sf4cmif6client6detail13CmifProxyImplINS_7account6detail13IAsyncContextENS2_15CmifDomainProxyINS0_4hipc6client38Hipc2ClientSessionManagedProxyKindBaseINSA_18Hipc2ProxyKindBaseILNS9_6detail11MessageTypeE4EEEEEEENS0_25StatelessAllocationPolicyINS0_22ExpHeapStaticAllocatorILm2048ENS6_12ObjectHolder24ObjectHolderAllocatorTagEEEEES7_E21_nn_sf_sync_GetResultEv = 0xb635c
_ZN2nn2sf4cmif6client6detail13CmifProxyImplINS_7account6detail13IAsyncContextENS2_15CmifDomainProxyINS0_4hipc6client38Hipc2ClientSessionManagedProxyKindBaseINSA_18Hipc2ProxyKindBaseILNS9_6detail11MessageTypeE4EEEEEEENS0_25StatelessAllocationPolicyINS0_22ExpHeapStaticAllocatorILm2048ENS6_12ObjectHolder24ObjectHolderAllocatorTagEEEEES7_E17GetCmifBaseObjectEv = 0xb637c
_ZThn32_N2nn2sf4cmif6client6detail13CmifProxyImplINS_7account6detail13IAsyncContextENS2_15CmifDomainProxyINS0_4hipc6client38Hipc2ClientSessionManagedProxyKindBaseINSA_18Hipc2ProxyKindBaseILNS9_6detail11MessageTypeE4EEEEEEENS0_25StatelessAllocationPolicyINS0_22ExpHeapStaticAllocatorILm2048ENS6_12ObjectHolder24ObjectHolderAllocatorTagEEEEES7_E17GetCmifBaseObjectEv = 0xb638c
_ZN2nn2sf4cmif6client34CmifDomainProxyClientCoreProcessorINS0_4hipc6client38Hipc2ClientSessionManagedProxyKindBaseINS5_18Hipc2ProxyKindBaseILNS4_6detail11MessageTypeE4EEEEENS1_6detail14CoreMethodInfoINSt3__15tupleIJNSC_18OutRawArgumentInfoILm8ELm8ELl0EEENSC_18BufferArgumentInfoILi0ELi26ELm104EEENSI_ILi1ELi6ELm0EEEEEELm0ELm8ELb0EEESL_E7ProcessEPNS2_23CmifDomainClientMessageISB_E15ProxyBaseObjectENS2_24OutRawClientArgumentTypeILm8ELm8EEENS2_24BufferClientArgumentTypeESU_j = 0xb6394
_ZN2nn2sf4cmif6client34CmifDomainProxyClientCoreProcessorINS0_4hipc6client38Hipc2ClientSessionManagedProxyKindBaseINS5_18Hipc2ProxyKindBaseILNS4_6detail11MessageTypeE4EEEEENS1_6detail14CoreMethodInfoINSt3__15tupleIJNSC_21OutObjectArgumentInfoILi0ELi0EEENSC_18BufferArgumentInfoILi0ELi25ELm512EEENSC_20InHandleArgumentInfoILi0ELi1EEENSC_17InRawArgumentInfoILm4ELm4ELl0EEEEEELm4ELm0ELb0EEESO_E21ProcessWithOutObjectsEPNS2_23CmifDomainClientMessageISB_E15ProxyBaseObjectENS2_27OutObjectClientArgumentTypeENS2_24BufferClientArgumentTypeENS2_26InHandleClientArgumentTypeENS2_23InRawClientArgumentTypeILm4ELm4EvEEjPNS0_13SharedPointerINS0_14IServiceObjectEEE = 0xb6580
_ZN2nn2sf4cmif6client32GetClientProcessorWithObjectBaseINS2_15CmifDomainProxyINS0_4hipc6client38Hipc2ClientSessionManagedProxyKindBaseINS6_18Hipc2ProxyKindBaseILNS5_6detail11MessageTypeE4EEEEEEEE14ObjectAssignerINS0_25StatelessAllocationPolicyINS0_22ExpHeapStaticAllocatorILm2048ENS_7account6detail12ObjectHolder24ObjectHolderAllocatorTagEEEEENS0_6detail23StatelessDummyAllocatorEE14AllocateObjectINSI_3nas21IAuthorizationRequestEEEvi = 0xb682c
_ZN2nn2sf6detail39ObjectImplFactoryWithStatelessAllocatorINS0_4cmif6client16CmifProxyFactoryINS_7account3nas21IAuthorizationRequestENS4_15CmifDomainProxyINS0_4hipc6client38Hipc2ClientSessionManagedProxyKindBaseINSB_18Hipc2ProxyKindBaseILNSA_6detail11MessageTypeE4EEEEEEENS0_25StatelessAllocationPolicyINS0_22ExpHeapStaticAllocatorILm2048ENS6_6detail12ObjectHolder24ObjectHolderAllocatorTagEEEEEE13ServiceObjectESP_E6Object12AddReferenceEv = 0xb68e0
_ZN2nn2sf6detail39ObjectImplFactoryWithStatelessAllocatorINS0_4cmif6client16CmifProxyFactoryINS_7account3nas21IAuthorizationRequestENS4_15CmifDomainProxyINS0_4hipc6client38Hipc2ClientSessionManagedProxyKindBaseINSB_18Hipc2ProxyKindBaseILNSA_6detail11MessageTypeE4EEEEEEENS0_25StatelessAllocationPolicyINS0_22ExpHeapStaticAllocatorILm2048ENS6_6detail12ObjectHolder24ObjectHolderAllocatorTagEEEEEE13ServiceObjectESP_E6Object7ReleaseEv = 0xb68e8
_ZN2nn2sf4cmif6client6detail13CmifProxyImplINS_7account3nas21IAuthorizationRequestENS2_15CmifDomainProxyINS0_4hipc6client38Hipc2ClientSessionManagedProxyKindBaseINSA_18Hipc2ProxyKindBaseILNS9_6detail11MessageTypeE4EEEEEEENS0_25StatelessAllocationPolicyINS0_22ExpHeapStaticAllocatorILm2048ENS5_6detail12ObjectHolder24ObjectHolderAllocatorTagEEEEES7_E12GetProxyInfoEv = 0xb695c
_ZN2nn2sf4cmif6client6detail13CmifProxyImplINS_7account3nas21IAuthorizationRequestENS2_15CmifDomainProxyINS0_4hipc6client38Hipc2ClientSessionManagedProxyKindBaseINSA_18Hipc2ProxyKindBaseILNS9_6detail11MessageTypeE4EEEEEEENS0_25StatelessAllocationPolicyINS0_22ExpHeapStaticAllocatorILm2048ENS5_6detail12ObjectHolder24ObjectHolderAllocatorTagEEEEES7_E24_nn_sf_sync_GetSessionIdENS0_3OutINSK_4UuidEvEE = 0xb6964
_ZN2nn2sf4cmif6client6detail13CmifProxyImplINS_7account3nas21IAuthorizationRequestENS2_15CmifDomainProxyINS0_4hipc6client38Hipc2ClientSessionManagedProxyKindBaseINSA_18Hipc2ProxyKindBaseILNS9_6detail11MessageTypeE4EEEEEEENS0_25StatelessAllocationPolicyINS0_22ExpHeapStaticAllocatorILm2048ENS5_6detail12ObjectHolder24ObjectHolderAllocatorTagEEEEES7_E41_nn_sf_sync_InvokeWithoutInteractionAsyncENS0_3OutINS0_13SharedPointerINSK_13IAsyncContextEEEvEE = 0xb6984
_ZN2nn2sf4cmif6client6detail13CmifProxyImplINS_7account3nas21IAuthorizationRequestENS2_15CmifDomainProxyINS0_4hipc6client38Hipc2ClientSessionManagedProxyKindBaseINSA_18Hipc2ProxyKindBaseILNS9_6detail11MessageTypeE4EEEEEEENS0_25StatelessAllocationPolicyINS0_22ExpHeapStaticAllocatorILm2048ENS5_6detail12ObjectHolder24ObjectHolderAllocatorTagEEEEES7_E24_nn_sf_sync_IsAuthorizedENS0_3OutIbvEE = 0xb6a14
_ZN2nn2sf4cmif6client6detail13CmifProxyImplINS_7account3nas21IAuthorizationRequestENS2_15CmifDomainProxyINS0_4hipc6client38Hipc2ClientSessionManagedProxyKindBaseINSA_18Hipc2ProxyKindBaseILNS9_6detail11MessageTypeE4EEEEEEENS0_25StatelessAllocationPolicyINS0_22ExpHeapStaticAllocatorILm2048ENS5_6detail12ObjectHolder24ObjectHolderAllocatorTagEEEEES7_E32_nn_sf_sync_GetAuthorizationCodeENS0_3OutIjvEERKNS0_9OutBufferE = 0xb6a34
_ZN2nn2sf4cmif6client6detail13CmifProxyImplINS_7account3nas21IAuthorizationRequestENS2_15CmifDomainProxyINS0_4hipc6client38Hipc2ClientSessionManagedProxyKindBaseINSA_18Hipc2ProxyKindBaseILNS9_6detail11MessageTypeE4EEEEEEENS0_25StatelessAllocationPolicyINS0_22ExpHeapStaticAllocatorILm2048ENS5_6detail12ObjectHolder24ObjectHolderAllocatorTagEEEEES7_E22_nn_sf_sync_GetIdTokenENS0_3OutIjvEERKNS0_9OutBufferE = 0xb6a5c
_ZN2nn2sf4cmif6client6detail13CmifProxyImplINS_7account3nas21IAuthorizationRequestENS2_15CmifDomainProxyINS0_4hipc6client38Hipc2ClientSessionManagedProxyKindBaseINSA_18Hipc2ProxyKindBaseILNS9_6detail11MessageTypeE4EEEEEEENS0_25StatelessAllocationPolicyINS0_22ExpHeapStaticAllocatorILm2048ENS5_6detail12ObjectHolder24ObjectHolderAllocatorTagEEEEES7_E20_nn_sf_sync_GetStateENS0_3OutINS6_5StateEvEE = 0xb6a84
_ZN2nn2sf4cmif6client6detail13CmifProxyImplINS_7account3nas21IAuthorizationRequestENS2_15CmifDomainProxyINS0_4hipc6client38Hipc2ClientSessionManagedProxyKindBaseINSA_18Hipc2ProxyKindBaseILNS9_6detail11MessageTypeE4EEEEEEENS0_25StatelessAllocationPolicyINS0_22ExpHeapStaticAllocatorILm2048ENS5_6detail12ObjectHolder24ObjectHolderAllocatorTagEEEEES7_E17GetCmifBaseObjectEv = 0xb6aa8
_ZThn32_N2nn2sf4cmif6client6detail13CmifProxyImplINS_7account3nas21IAuthorizationRequestENS2_15CmifDomainProxyINS0_4hipc6client38Hipc2ClientSessionManagedProxyKindBaseINSA_18Hipc2ProxyKindBaseILNS9_6detail11MessageTypeE4EEEEEEENS0_25StatelessAllocationPolicyINS0_22ExpHeapStaticAllocatorILm2048ENS5_6detail12ObjectHolder24ObjectHolderAllocatorTagEEEEES7_E17GetCmifBaseObjectEv = 0xb6ab8
_ZN2nn2sf4cmif6client34CmifDomainProxyClientCoreProcessorINS0_4hipc6client38Hipc2ClientSessionManagedProxyKindBaseINS5_18Hipc2ProxyKindBaseILNS4_6detail11MessageTypeE4EEEEENS1_6detail14CoreMethodInfoINSt3__15tupleIJNSC_18OutRawArgumentInfoILm16ELm4ELl0EEEEEELm0ELm16ELb0EEESI_E7ProcessEPNS2_23CmifDomainClientMessageISB_E15ProxyBaseObjectENS2_24OutRawClientArgumentTypeILm16ELm4EEEj = 0xb6ac0
_ZN2nn2sf4cmif6client34CmifDomainProxyClientCoreProcessorINS0_4hipc6client38Hipc2ClientSessionManagedProxyKindBaseINS5_18Hipc2ProxyKindBaseILNS4_6detail11MessageTypeE4EEEEENS1_6detail14CoreMethodInfoINSt3__15tupleIJNSC_18BufferArgumentInfoILi0ELi26ELm128EEEEEELm0ELm0ELb0EEESI_E7ProcessEPNS2_23CmifDomainClientMessageISB_E15ProxyBaseObjectENS2_24BufferClientArgumentTypeEj = 0xb6c10
_ZN2nn2sf4cmif6client34CmifDomainProxyClientCoreProcessorINS0_4hipc6client38Hipc2ClientSessionManagedProxyKindBaseINS5_18Hipc2ProxyKindBaseILNS4_6detail11MessageTypeE4EEEEENS1_6detail14CoreMethodInfoINSt3__15tupleIJNSC_17InRawArgumentInfoILm16ELm8ELl0EEENSC_18BufferArgumentInfoILi0ELi5ELm0EEEEEELm16ELm0ELb0EEESK_E7ProcessEPNS2_23CmifDomainClientMessageISB_E15ProxyBaseObjectENS2_23InRawClientArgumentTypeILm16ELm8EvEENS2_24BufferClientArgumentTypeEj = 0xb6dc8
_ZN2nn2sf4cmif6client34CmifDomainProxyClientCoreProcessorINS0_4hipc6client38Hipc2ClientSessionManagedProxyKindBaseINS5_18Hipc2ProxyKindBaseILNS4_6detail11MessageTypeE4EEEEENS1_6detail14CoreMethodInfoINSt3__15tupleIJNSC_17InRawArgumentInfoILm16ELm8ELl0EEEEEELm16ELm0ELb0EEESI_E7ProcessEPNS2_23CmifDomainClientMessageISB_E15ProxyBaseObjectENS2_23InRawClientArgumentTypeILm16ELm8EvEEj = 0xb6fa0
_ZN2nn2sf4cmif6client34CmifDomainProxyClientCoreProcessorINS0_4hipc6client38Hipc2ClientSessionManagedProxyKindBaseINS5_18Hipc2ProxyKindBaseILNS4_6detail11MessageTypeE4EEEEENS1_6detail14CoreMethodInfoINSt3__15tupleIJNSC_21OutObjectArgumentInfoILi0ELi0EEENSC_20InHandleArgumentInfoILi0ELi1EEENSC_17InRawArgumentInfoILm4ELm4ELl0EEEEEELm4ELm0ELb0EEESM_E21ProcessWithOutObjectsEPNS2_23CmifDomainClientMessageISB_E15ProxyBaseObjectENS2_27OutObjectClientArgumentTypeENS2_26InHandleClientArgumentTypeENS2_23InRawClientArgumentTypeILm4ELm4EvEEjPNS0_13SharedPointerINS0_14IServiceObjectEEE = 0xb70e8
_ZN2nn2sf4cmif6client32GetClientProcessorWithObjectBaseINS2_15CmifDomainProxyINS0_4hipc6client38Hipc2ClientSessionManagedProxyKindBaseINS6_18Hipc2ProxyKindBaseILNS5_6detail11MessageTypeE4EEEEEEEE14ObjectAssignerINS0_25StatelessAllocationPolicyINS0_22ExpHeapStaticAllocatorILm2048ENS_7account6detail12ObjectHolder24ObjectHolderAllocatorTagEEEEENS0_6detail23StatelessDummyAllocatorEE14AllocateObjectINSI_4baas18IGuestLoginRequestEEEvi = 0xb7300
_ZN2nn2sf6detail39ObjectImplFactoryWithStatelessAllocatorINS0_4cmif6client16CmifProxyFactoryINS_7account4baas18IGuestLoginRequestENS4_15CmifDomainProxyINS0_4hipc6client38Hipc2ClientSessionManagedProxyKindBaseINSB_18Hipc2ProxyKindBaseILNSA_6detail11MessageTypeE4EEEEEEENS0_25StatelessAllocationPolicyINS0_22ExpHeapStaticAllocatorILm2048ENS6_6detail12ObjectHolder24ObjectHolderAllocatorTagEEEEEE13ServiceObjectESP_E6Object12AddReferenceEv = 0xb73b4
_ZN2nn2sf6detail39ObjectImplFactoryWithStatelessAllocatorINS0_4cmif6client16CmifProxyFactoryINS_7account4baas18IGuestLoginRequestENS4_15CmifDomainProxyINS0_4hipc6client38Hipc2ClientSessionManagedProxyKindBaseINSB_18Hipc2ProxyKindBaseILNSA_6detail11MessageTypeE4EEEEEEENS0_25StatelessAllocationPolicyINS0_22ExpHeapStaticAllocatorILm2048ENS6_6detail12ObjectHolder24ObjectHolderAllocatorTagEEEEEE13ServiceObjectESP_E6Object7ReleaseEv = 0xb73bc
_ZN2nn2sf4cmif6client6detail13CmifProxyImplINS_7account4baas18IGuestLoginRequestENS2_15CmifDomainProxyINS0_4hipc6client38Hipc2ClientSessionManagedProxyKindBaseINSA_18Hipc2ProxyKindBaseILNS9_6detail11MessageTypeE4EEEEEEENS0_25StatelessAllocationPolicyINS0_22ExpHeapStaticAllocatorILm2048ENS5_6detail12ObjectHolder24ObjectHolderAllocatorTagEEEEES7_E12GetProxyInfoEv = 0xb7430
_ZN2nn2sf4cmif6client6detail13CmifProxyImplINS_7account4baas18IGuestLoginRequestENS2_15CmifDomainProxyINS0_4hipc6client38Hipc2ClientSessionManagedProxyKindBaseINSA_18Hipc2ProxyKindBaseILNS9_6detail11MessageTypeE4EEEEEEENS0_25StatelessAllocationPolicyINS0_22ExpHeapStaticAllocatorILm2048ENS5_6detail12ObjectHolder24ObjectHolderAllocatorTagEEEEES7_E24_nn_sf_sync_GetSessionIdENS0_3OutINSK_4UuidEvEE = 0xb7438
_ZN2nn2sf4cmif6client6detail13CmifProxyImplINS_7account4baas18IGuestLoginRequestENS2_15CmifDomainProxyINS0_4hipc6client38Hipc2ClientSessionManagedProxyKindBaseINSA_18Hipc2ProxyKindBaseILNS9_6detail11MessageTypeE4EEEEEEENS0_25StatelessAllocationPolicyINS0_22ExpHeapStaticAllocatorILm2048ENS5_6detail12ObjectHolder24ObjectHolderAllocatorTagEEEEES7_E24_nn_sf_sync_GetAccountIdENS0_3OutINS5_23NetworkServiceAccountIdEvEE = 0xb7458
_ZN2nn2sf4cmif6client6detail13CmifProxyImplINS_7account4baas18IGuestLoginRequestENS2_15CmifDomainProxyINS0_4hipc6client38Hipc2ClientSessionManagedProxyKindBaseINSA_18Hipc2ProxyKindBaseILNS9_6detail11MessageTypeE4EEEEEEENS0_25StatelessAllocationPolicyINS0_22ExpHeapStaticAllocatorILm2048ENS5_6detail12ObjectHolder24ObjectHolderAllocatorTagEEEEES7_E38_nn_sf_sync_GetLinkedNintendoAccountIdENS0_3OutINS5_17NintendoAccountIdEvEE = 0xb7478
_ZN2nn2sf4cmif6client6detail13CmifProxyImplINS_7account4baas18IGuestLoginRequestENS2_15CmifDomainProxyINS0_4hipc6client38Hipc2ClientSessionManagedProxyKindBaseINSA_18Hipc2ProxyKindBaseILNS9_6detail11MessageTypeE4EEEEEEENS0_25StatelessAllocationPolicyINS0_22ExpHeapStaticAllocatorILm2048ENS5_6detail12ObjectHolder24ObjectHolderAllocatorTagEEEEES7_E23_nn_sf_sync_GetNicknameERKNS0_8OutArrayIcEE = 0xb7498
_ZN2nn2sf4cmif6client6detail13CmifProxyImplINS_7account4baas18IGuestLoginRequestENS2_15CmifDomainProxyINS0_4hipc6client38Hipc2ClientSessionManagedProxyKindBaseINSA_18Hipc2ProxyKindBaseILNS9_6detail11MessageTypeE4EEEEEEENS0_25StatelessAllocationPolicyINS0_22ExpHeapStaticAllocatorILm2048ENS5_6detail12ObjectHolder24ObjectHolderAllocatorTagEEEEES7_E27_nn_sf_sync_GetProfileImageENS0_3OutIjvEERKNS0_9OutBufferE = 0xb74c0
_ZN2nn2sf4cmif6client6detail13CmifProxyImplINS_7account4baas18IGuestLoginRequestENS2_15CmifDomainProxyINS0_4hipc6client38Hipc2ClientSessionManagedProxyKindBaseINSA_18Hipc2ProxyKindBaseILNS9_6detail11MessageTypeE4EEEEEEENS0_25StatelessAllocationPolicyINS0_22ExpHeapStaticAllocatorILm2048ENS5_6detail12ObjectHolder24ObjectHolderAllocatorTagEEEEES7_E28_nn_sf_sync_LoadIdTokenCacheENS0_3OutIjvEERKNS0_9OutBufferE = 0xb74e8
_ZN2nn2sf4cmif6client6detail13CmifProxyImplINS_7account4baas18IGuestLoginRequestENS2_15CmifDomainProxyINS0_4hipc6client38Hipc2ClientSessionManagedProxyKindBaseINSA_18Hipc2ProxyKindBaseILNS9_6detail11MessageTypeE4EEEEEEENS0_25StatelessAllocationPolicyINS0_22ExpHeapStaticAllocatorILm2048ENS5_6detail12ObjectHolder24ObjectHolderAllocatorTagEEEEES7_E17GetCmifBaseObjectEv = 0xb7510
_ZThn32_N2nn2sf4cmif6client6detail13CmifProxyImplINS_7account4baas18IGuestLoginRequestENS2_15CmifDomainProxyINS0_4hipc6client38Hipc2ClientSessionManagedProxyKindBaseINSA_18Hipc2ProxyKindBaseILNS9_6detail11MessageTypeE4EEEEEEENS0_25StatelessAllocationPolicyINS0_22ExpHeapStaticAllocatorILm2048ENS5_6detail12ObjectHolder24ObjectHolderAllocatorTagEEEEES7_E17GetCmifBaseObjectEv = 0xb7520
_ZN2nn7account6detail12ObjectHolder11AcquireImplINS0_31IAccountServiceForSystemServiceEEENS_6ResultEPPT_PKc = 0xb7528
_ZN2nn2sf4hipc6client34HipcSimpleClientSessionManagerBase4Impl18InitializeByHandleINS_7account31IAccountServiceForSystemServiceENS0_25StatelessAllocationPolicyINS0_22ExpHeapStaticAllocatorILm2048ENS6_6detail12ObjectHolder24ObjectHolderAllocatorTagEEEEEEENS_6ResultEPNS0_13SharedPointerIT_EENS_3svc6HandleE = 0xb7630
_ZN2nn2sf6detail39ObjectImplFactoryWithStatelessAllocatorINS0_4cmif6client16CmifProxyFactoryINS_7account31IAccountServiceForSystemServiceENS4_15CmifDomainProxyINS0_4hipc6client38Hipc2ClientSessionManagedProxyKindBaseINSA_18Hipc2ProxyKindBaseILNS9_6detail11MessageTypeE4EEEEEEENS0_25StatelessAllocationPolicyINS0_22ExpHeapStaticAllocatorILm2048ENS6_6detail12ObjectHolder24ObjectHolderAllocatorTagEEEEEE13ServiceObjectESO_E6Object12AddReferenceEv = 0xb7744
_ZN2nn2sf6detail39ObjectImplFactoryWithStatelessAllocatorINS0_4cmif6client16CmifProxyFactoryINS_7account31IAccountServiceForSystemServiceENS4_15CmifDomainProxyINS0_4hipc6client38Hipc2ClientSessionManagedProxyKindBaseINSA_18Hipc2ProxyKindBaseILNS9_6detail11MessageTypeE4EEEEEEENS0_25StatelessAllocationPolicyINS0_22ExpHeapStaticAllocatorILm2048ENS6_6detail12ObjectHolder24ObjectHolderAllocatorTagEEEEEE13ServiceObjectESO_E6Object7ReleaseEv = 0xb774c
_ZN2nn2sf4cmif6client6detail13CmifProxyImplINS_7account19IAccountServiceBaseENS2_15CmifDomainProxyINS0_4hipc6client38Hipc2ClientSessionManagedProxyKindBaseINS9_18Hipc2ProxyKindBaseILNS8_6detail11MessageTypeE4EEEEEEENS0_25StatelessAllocationPolicyINS0_22ExpHeapStaticAllocatorILm2048ENS5_6detail12ObjectHolder24ObjectHolderAllocatorTagEEEEENS5_31IAccountServiceForSystemServiceEE12GetProxyInfoEv = 0xb77c0
_ZN2nn2sf4cmif6client6detail13CmifProxyImplINS_7account19IAccountServiceBaseENS2_15CmifDomainProxyINS0_4hipc6client38Hipc2ClientSessionManagedProxyKindBaseINS9_18Hipc2ProxyKindBaseILNS8_6detail11MessageTypeE4EEEEEEENS0_25StatelessAllocationPolicyINS0_22ExpHeapStaticAllocatorILm2048ENS5_6detail12ObjectHolder24ObjectHolderAllocatorTagEEEEENS5_31IAccountServiceForSystemServiceEE24_nn_sf_sync_GetUserCountENS0_3OutIivEE = 0xb77c8
_ZN2nn2sf4cmif6client6detail13CmifProxyImplINS_7account19IAccountServiceBaseENS2_15CmifDomainProxyINS0_4hipc6client38Hipc2ClientSessionManagedProxyKindBaseINS9_18Hipc2ProxyKindBaseILNS8_6detail11MessageTypeE4EEEEEEENS0_25StatelessAllocationPolicyINS0_22ExpHeapStaticAllocatorILm2048ENS5_6detail12ObjectHolder24ObjectHolderAllocatorTagEEEEENS5_31IAccountServiceForSystemServiceEE28_nn_sf_sync_GetUserExistenceENS0_3OutIbvEERKNS5_3UidE = 0xb77e8
_ZN2nn2sf4cmif6client6detail13CmifProxyImplINS_7account19IAccountServiceBaseENS2_15CmifDomainProxyINS0_4hipc6client38Hipc2ClientSessionManagedProxyKindBaseINS9_18Hipc2ProxyKindBaseILNS8_6detail11MessageTypeE4EEEEEEENS0_25StatelessAllocationPolicyINS0_22ExpHeapStaticAllocatorILm2048ENS5_6detail12ObjectHolder24ObjectHolderAllocatorTagEEEEENS5_31IAccountServiceForSystemServiceEE24_nn_sf_sync_ListAllUsersERKNS0_8OutArrayINS5_3UidEEE = 0xb7808
_ZN2nn2sf4cmif6client6detail13CmifProxyImplINS_7account19IAccountServiceBaseENS2_15CmifDomainProxyINS0_4hipc6client38Hipc2ClientSessionManagedProxyKindBaseINS9_18Hipc2ProxyKindBaseILNS8_6detail11MessageTypeE4EEEEEEENS0_25StatelessAllocationPolicyINS0_22ExpHeapStaticAllocatorILm2048ENS5_6detail12ObjectHolder24ObjectHolderAllocatorTagEEEEENS5_31IAccountServiceForSystemServiceEE25_nn_sf_sync_ListOpenUsersERKNS0_8OutArrayINS5_3UidEEE = 0xb7834
_ZN2nn2sf4cmif6client6detail13CmifProxyImplINS_7account19IAccountServiceBaseENS2_15CmifDomainProxyINS0_4hipc6client38Hipc2ClientSessionManagedProxyKindBaseINS9_18Hipc2ProxyKindBaseILNS8_6detail11MessageTypeE4EEEEEEENS0_25StatelessAllocationPolicyINS0_22ExpHeapStaticAllocatorILm2048ENS5_6detail12ObjectHolder24ObjectHolderAllocatorTagEEEEENS5_31IAccountServiceForSystemServiceEE29_nn_sf_sync_GetLastOpenedUserENS0_3OutINS5_3UidEvEE = 0xb7860
_ZN2nn2sf4cmif6client6detail13CmifProxyImplINS_7account19IAccountServiceBaseENS2_15CmifDomainProxyINS0_4hipc6client38Hipc2ClientSessionManagedProxyKindBaseINS9_18Hipc2ProxyKindBaseILNS8_6detail11MessageTypeE4EEEEEEENS0_25StatelessAllocationPolicyINS0_22ExpHeapStaticAllocatorILm2048ENS5_6detail12ObjectHolder24ObjectHolderAllocatorTagEEEEENS5_31IAccountServiceForSystemServiceEE22_nn_sf_sync_GetProfileENS0_3OutINS0_13SharedPointerINS5_7profile8IProfileEEEvEERKNS5_3UidE = 0xb7880
_ZN2nn2sf4cmif6client6detail13CmifProxyImplINS_7account19IAccountServiceBaseENS2_15CmifDomainProxyINS0_4hipc6client38Hipc2ClientSessionManagedProxyKindBaseINS9_18Hipc2ProxyKindBaseILNS8_6detail11MessageTypeE4EEEEEEENS0_25StatelessAllocationPolicyINS0_22ExpHeapStaticAllocatorILm2048ENS5_6detail12ObjectHolder24ObjectHolderAllocatorTagEEEEENS5_31IAccountServiceForSystemServiceEE28_nn_sf_sync_GetProfileDigestENS0_3OutINS5_13ProfileDigestEvEERKNS5_3UidE = 0xb791c
_ZN2nn2sf4cmif6client6detail13CmifProxyImplINS_7account19IAccountServiceBaseENS2_15CmifDomainProxyINS0_4hipc6client38Hipc2ClientSessionManagedProxyKindBaseINS9_18Hipc2ProxyKindBaseILNS8_6detail11MessageTypeE4EEEEEEENS0_25StatelessAllocationPolicyINS0_22ExpHeapStaticAllocatorILm2048ENS5_6detail12ObjectHolder24ObjectHolderAllocatorTagEEEEENS5_31IAccountServiceForSystemServiceEE46_nn_sf_sync_IsUserRegistrationRequestPermittedENS0_3OutIbvEEm = 0xb793c
_ZN2nn2sf4cmif6client6detail13CmifProxyImplINS_7account19IAccountServiceBaseENS2_15CmifDomainProxyINS0_4hipc6client38Hipc2ClientSessionManagedProxyKindBaseINS9_18Hipc2ProxyKindBaseILNS8_6detail11MessageTypeE4EEEEEEENS0_25StatelessAllocationPolicyINS0_22ExpHeapStaticAllocatorILm2048ENS5_6detail12ObjectHolder24ObjectHolderAllocatorTagEEEEENS5_31IAccountServiceForSystemServiceEE43_nn_sf_sync_TrySelectUserWithoutInteractionENS0_3OutINS5_3UidEvEEb = 0xb795c
_ZN2nn2sf4cmif6client6detail13CmifProxyImplINS_7account31IAccountServiceForSystemServiceENS2_15CmifDomainProxyINS0_4hipc6client38Hipc2ClientSessionManagedProxyKindBaseINS9_18Hipc2ProxyKindBaseILNS8_6detail11MessageTypeE4EEEEEEENS0_25StatelessAllocationPolicyINS0_22ExpHeapStaticAllocatorILm2048ENS5_6detail12ObjectHolder24ObjectHolderAllocatorTagEEEEES6_E39_nn_sf_sync_GetUserRegistrationNotifierENS0_3OutINS0_13SharedPointerINSJ_9INotifierEEEvEE = 0xb7980
_ZN2nn2sf4cmif6client6detail13CmifProxyImplINS_7account31IAccountServiceForSystemServiceENS2_15CmifDomainProxyINS0_4hipc6client38Hipc2ClientSessionManagedProxyKindBaseINS9_18Hipc2ProxyKindBaseILNS8_6detail11MessageTypeE4EEEEEEENS0_25StatelessAllocationPolicyINS0_22ExpHeapStaticAllocatorILm2048ENS5_6detail12ObjectHolder24ObjectHolderAllocatorTagEEEEES6_E38_nn_sf_sync_GetUserStateChangeNotifierENS0_3OutINS0_13SharedPointerINSJ_9INotifierEEEvEE = 0xb7a10
_ZN2nn2sf4cmif6client6detail13CmifProxyImplINS_7account31IAccountServiceForSystemServiceENS2_15CmifDomainProxyINS0_4hipc6client38Hipc2ClientSessionManagedProxyKindBaseINS9_18Hipc2ProxyKindBaseILNS8_6detail11MessageTypeE4EEEEEEENS0_25StatelessAllocationPolicyINS0_22ExpHeapStaticAllocatorILm2048ENS5_6detail12ObjectHolder24ObjectHolderAllocatorTagEEEEES6_E49_nn_sf_sync_GetBaasAccountManagerForSystemServiceENS0_3OutINS0_13SharedPointerINS5_4baas24IManagerForSystemServiceEEEvEERKNS5_3UidE = 0xb7aa0
_ZN2nn2sf4cmif6client6detail13CmifProxyImplINS_7account31IAccountServiceForSystemServiceENS2_15CmifDomainProxyINS0_4hipc6client38Hipc2ClientSessionManagedProxyKindBaseINS9_18Hipc2ProxyKindBaseILNS8_6detail11MessageTypeE4EEEEEEENS0_25StatelessAllocationPolicyINS0_22ExpHeapStaticAllocatorILm2048ENS5_6detail12ObjectHolder24ObjectHolderAllocatorTagEEEEES6_E49_nn_sf_sync_GetBaasUserAvailabilityChangeNotifierENS0_3OutINS0_13SharedPointerINSJ_9INotifierEEEvEE = 0xb7b3c
_ZN2nn2sf4cmif6client6detail13CmifProxyImplINS_7account31IAccountServiceForSystemServiceENS2_15CmifDomainProxyINS0_4hipc6client38Hipc2ClientSessionManagedProxyKindBaseINS9_18Hipc2ProxyKindBaseILNS8_6detail11MessageTypeE4EEEEEEENS0_25StatelessAllocationPolicyINS0_22ExpHeapStaticAllocatorILm2048ENS5_6detail12ObjectHolder24ObjectHolderAllocatorTagEEEEES6_E36_nn_sf_sync_GetProfileUpdateNotifierENS0_3OutINS0_13SharedPointerINSJ_9INotifierEEEvEE = 0xb7bcc
_ZN2nn2sf4cmif6client6detail13CmifProxyImplINS_7account31IAccountServiceForSystemServiceENS2_15CmifDomainProxyINS0_4hipc6client38Hipc2ClientSessionManagedProxyKindBaseINS9_18Hipc2ProxyKindBaseILNS8_6detail11MessageTypeE4EEEEEEENS0_25StatelessAllocationPolicyINS0_22ExpHeapStaticAllocatorILm2048ENS5_6detail12ObjectHolder24ObjectHolderAllocatorTagEEEEES6_E48_nn_sf_sync_CheckNetworkServiceAvailabilityAsyncENS0_3OutINS0_13SharedPointerINSJ_13IAsyncContextEEEvEERKNS5_27SystemProgramIdentificationEm = 0xb7c5c
_ZN2nn2sf4cmif6client6detail13CmifProxyImplINS_7account31IAccountServiceForSystemServiceENS2_15CmifDomainProxyINS0_4hipc6client38Hipc2ClientSessionManagedProxyKindBaseINS9_18Hipc2ProxyKindBaseILNS8_6detail11MessageTypeE4EEEEEEENS0_25StatelessAllocationPolicyINS0_22ExpHeapStaticAllocatorILm2048ENS5_6detail12ObjectHolder24ObjectHolderAllocatorTagEEEEES6_E34_nn_sf_sync_StoreSaveDataThumbnailERKNS5_3UidENS_13ApplicationIdERKNS0_8InBufferE = 0xb7d08
_ZN2nn2sf4cmif6client6detail13CmifProxyImplINS_7account31IAccountServiceForSystemServiceENS2_15CmifDomainProxyINS0_4hipc6client38Hipc2ClientSessionManagedProxyKindBaseINS9_18Hipc2ProxyKindBaseILNS8_6detail11MessageTypeE4EEEEEEENS0_25StatelessAllocationPolicyINS0_22ExpHeapStaticAllocatorILm2048ENS5_6detail12ObjectHolder24ObjectHolderAllocatorTagEEEEES6_E34_nn_sf_sync_ClearSaveDataThumbnailERKNS5_3UidENS_13ApplicationIdE = 0xb7d30
_ZN2nn2sf4cmif6client6detail13CmifProxyImplINS_7account31IAccountServiceForSystemServiceENS2_15CmifDomainProxyINS0_4hipc6client38Hipc2ClientSessionManagedProxyKindBaseINS9_18Hipc2ProxyKindBaseILNS8_6detail11MessageTypeE4EEEEEEENS0_25StatelessAllocationPolicyINS0_22ExpHeapStaticAllocatorILm2048ENS5_6detail12ObjectHolder24ObjectHolderAllocatorTagEEEEES6_E33_nn_sf_sync_LoadSaveDataThumbnailENS0_3OutIjvEERKNS0_9OutBufferERKNS5_3UidENS_13ApplicationIdE = 0xb7d50
_ZN2nn2sf4cmif6client6detail13CmifProxyImplINS_7account31IAccountServiceForSystemServiceENS2_15CmifDomainProxyINS0_4hipc6client38Hipc2ClientSessionManagedProxyKindBaseINS9_18Hipc2ProxyKindBaseILNS8_6detail11MessageTypeE4EEEEEEENS0_25StatelessAllocationPolicyINS0_22ExpHeapStaticAllocatorILm2048ENS5_6detail12ObjectHolder24ObjectHolderAllocatorTagEEEEES6_E40_nn_sf_sync_GetUserLastOpenedApplicationENS0_3OutINS_13ApplicationIdEvEENSP_IjvEERKNS5_3UidE = 0xb7d88
_ZN2nn2sf4cmif6client6detail13CmifProxyImplINS_7account31IAccountServiceForSystemServiceENS2_15CmifDomainProxyINS0_4hipc6client38Hipc2ClientSessionManagedProxyKindBaseINS9_18Hipc2ProxyKindBaseILNS8_6detail11MessageTypeE4EEEEEEENS0_25StatelessAllocationPolicyINS0_22ExpHeapStaticAllocatorILm2048ENS5_6detail12ObjectHolder24ObjectHolderAllocatorTagEEEEES6_E44_nn_sf_sync_DebugInvalidateTokenCacheForUserERKNS5_3UidE = 0xb7da8
_ZN2nn2sf4cmif6client6detail13CmifProxyImplINS_7account31IAccountServiceForSystemServiceENS2_15CmifDomainProxyINS0_4hipc6client38Hipc2ClientSessionManagedProxyKindBaseINS9_18Hipc2ProxyKindBaseILNS8_6detail11MessageTypeE4EEEEEEENS0_25StatelessAllocationPolicyINS0_22ExpHeapStaticAllocatorILm2048ENS5_6detail12ObjectHolder24ObjectHolderAllocatorTagEEEEES6_E34_nn_sf_sync_DebugSetUserStateCloseERKNS5_3UidE = 0xb7dc8
_ZN2nn2sf4cmif6client6detail13CmifProxyImplINS_7account31IAccountServiceForSystemServiceENS2_15CmifDomainProxyINS0_4hipc6client38Hipc2ClientSessionManagedProxyKindBaseINS9_18Hipc2ProxyKindBaseILNS8_6detail11MessageTypeE4EEEEEEENS0_25StatelessAllocationPolicyINS0_22ExpHeapStaticAllocatorILm2048ENS5_6detail12ObjectHolder24ObjectHolderAllocatorTagEEEEES6_E33_nn_sf_sync_DebugSetUserStateOpenERKNS5_3UidE = 0xb7de8
_ZN2nn2sf4cmif6client6detail13CmifProxyImplINS_7account19IAccountServiceBaseENS2_15CmifDomainProxyINS0_4hipc6client38Hipc2ClientSessionManagedProxyKindBaseINS9_18Hipc2ProxyKindBaseILNS8_6detail11MessageTypeE4EEEEEEENS0_25StatelessAllocationPolicyINS0_22ExpHeapStaticAllocatorILm2048ENS5_6detail12ObjectHolder24ObjectHolderAllocatorTagEEEEENS5_31IAccountServiceForSystemServiceEE17GetCmifBaseObjectEv = 0xb7e08
_ZThn32_N2nn2sf4cmif6client6detail13CmifProxyImplINS_7account19IAccountServiceBaseENS2_15CmifDomainProxyINS0_4hipc6client38Hipc2ClientSessionManagedProxyKindBaseINS9_18Hipc2ProxyKindBaseILNS8_6detail11MessageTypeE4EEEEEEENS0_25StatelessAllocationPolicyINS0_22ExpHeapStaticAllocatorILm2048ENS5_6detail12ObjectHolder24ObjectHolderAllocatorTagEEEEENS5_31IAccountServiceForSystemServiceEE17GetCmifBaseObjectEv = 0xb7e18
_ZN2nn2sf4cmif6client32GetClientProcessorWithObjectBaseINS2_15CmifDomainProxyINS0_4hipc6client38Hipc2ClientSessionManagedProxyKindBaseINS6_18Hipc2ProxyKindBaseILNS5_6detail11MessageTypeE4EEEEEEEE14ObjectAssignerINS0_25StatelessAllocationPolicyINS0_22ExpHeapStaticAllocatorILm2048ENS_7account6detail12ObjectHolder24ObjectHolderAllocatorTagEEEEENS0_6detail23StatelessDummyAllocatorEE14AllocateObjectINSJ_9INotifierEEEvi = 0xb7e20
_ZN2nn2sf6detail39ObjectImplFactoryWithStatelessAllocatorINS0_4cmif6client16CmifProxyFactoryINS_7account6detail9INotifierENS4_15CmifDomainProxyINS0_4hipc6client38Hipc2ClientSessionManagedProxyKindBaseINSB_18Hipc2ProxyKindBaseILNSA_6detail11MessageTypeE4EEEEEEENS0_25StatelessAllocationPolicyINS0_22ExpHeapStaticAllocatorILm2048ENS7_12ObjectHolder24ObjectHolderAllocatorTagEEEEEE13ServiceObjectESO_E6Object12AddReferenceEv = 0xb7ed4
_ZN2nn2sf6detail39ObjectImplFactoryWithStatelessAllocatorINS0_4cmif6client16CmifProxyFactoryINS_7account6detail9INotifierENS4_15CmifDomainProxyINS0_4hipc6client38Hipc2ClientSessionManagedProxyKindBaseINSB_18Hipc2ProxyKindBaseILNSA_6detail11MessageTypeE4EEEEEEENS0_25StatelessAllocationPolicyINS0_22ExpHeapStaticAllocatorILm2048ENS7_12ObjectHolder24ObjectHolderAllocatorTagEEEEEE13ServiceObjectESO_E6Object7ReleaseEv = 0xb7edc
_ZN2nn2sf4cmif6client6detail13CmifProxyImplINS_7account6detail9INotifierENS2_15CmifDomainProxyINS0_4hipc6client38Hipc2ClientSessionManagedProxyKindBaseINSA_18Hipc2ProxyKindBaseILNS9_6detail11MessageTypeE4EEEEEEENS0_25StatelessAllocationPolicyINS0_22ExpHeapStaticAllocatorILm2048ENS6_12ObjectHolder24ObjectHolderAllocatorTagEEEEES7_E12GetProxyInfoEv = 0xb7f50
_ZN2nn2sf4cmif6client6detail13CmifProxyImplINS_7account6detail9INotifierENS2_15CmifDomainProxyINS0_4hipc6client38Hipc2ClientSessionManagedProxyKindBaseINSA_18Hipc2ProxyKindBaseILNS9_6detail11MessageTypeE4EEEEEEENS0_25StatelessAllocationPolicyINS0_22ExpHeapStaticAllocatorILm2048ENS6_12ObjectHolder24ObjectHolderAllocatorTagEEEEES7_E26_nn_sf_sync_GetSystemEventENS0_3OutINS0_12NativeHandleEvEE = 0xb7f58
_ZN2nn2sf4cmif6client6detail13CmifProxyImplINS_7account6detail9INotifierENS2_15CmifDomainProxyINS0_4hipc6client38Hipc2ClientSessionManagedProxyKindBaseINSA_18Hipc2ProxyKindBaseILNS9_6detail11MessageTypeE4EEEEEEENS0_25StatelessAllocationPolicyINS0_22ExpHeapStaticAllocatorILm2048ENS6_12ObjectHolder24ObjectHolderAllocatorTagEEEEES7_E17GetCmifBaseObjectEv = 0xb7f78
_ZThn32_N2nn2sf4cmif6client6detail13CmifProxyImplINS_7account6detail9INotifierENS2_15CmifDomainProxyINS0_4hipc6client38Hipc2ClientSessionManagedProxyKindBaseINSA_18Hipc2ProxyKindBaseILNS9_6detail11MessageTypeE4EEEEEEENS0_25StatelessAllocationPolicyINS0_22ExpHeapStaticAllocatorILm2048ENS6_12ObjectHolder24ObjectHolderAllocatorTagEEEEES7_E17GetCmifBaseObjectEv = 0xb7f88
_ZN2nn2sf4cmif6client32GetClientProcessorWithObjectBaseINS2_15CmifDomainProxyINS0_4hipc6client38Hipc2ClientSessionManagedProxyKindBaseINS6_18Hipc2ProxyKindBaseILNS5_6detail11MessageTypeE4EEEEEEEE14ObjectAssignerINS0_25StatelessAllocationPolicyINS0_22ExpHeapStaticAllocatorILm2048ENS_7account6detail12ObjectHolder24ObjectHolderAllocatorTagEEEEENS0_6detail23StatelessDummyAllocatorEE14AllocateObjectINSI_4baas24IManagerForSystemServiceEEEvi = 0xb7f90
_ZN2nn2sf6detail39ObjectImplFactoryWithStatelessAllocatorINS0_4cmif6client16CmifProxyFactoryINS_7account4baas24IManagerForSystemServiceENS4_15CmifDomainProxyINS0_4hipc6client38Hipc2ClientSessionManagedProxyKindBaseINSB_18Hipc2ProxyKindBaseILNSA_6detail11MessageTypeE4EEEEEEENS0_25StatelessAllocationPolicyINS0_22ExpHeapStaticAllocatorILm2048ENS6_6detail12ObjectHolder24ObjectHolderAllocatorTagEEEEEE13ServiceObjectESP_E6Object12AddReferenceEv = 0xb8044
_ZN2nn2sf6detail39ObjectImplFactoryWithStatelessAllocatorINS0_4cmif6client16CmifProxyFactoryINS_7account4baas24IManagerForSystemServiceENS4_15CmifDomainProxyINS0_4hipc6client38Hipc2ClientSessionManagedProxyKindBaseINSB_18Hipc2ProxyKindBaseILNSA_6detail11MessageTypeE4EEEEEEENS0_25StatelessAllocationPolicyINS0_22ExpHeapStaticAllocatorILm2048ENS6_6detail12ObjectHolder24ObjectHolderAllocatorTagEEEEEE13ServiceObjectESP_E6Object7ReleaseEv = 0xb804c
_ZN2nn2sf4cmif6client6detail13CmifProxyImplINS_7account4baas12IManagerBaseENS2_15CmifDomainProxyINS0_4hipc6client38Hipc2ClientSessionManagedProxyKindBaseINSA_18Hipc2ProxyKindBaseILNS9_6detail11MessageTypeE4EEEEEEENS0_25StatelessAllocationPolicyINS0_22ExpHeapStaticAllocatorILm2048ENS5_6detail12ObjectHolder24ObjectHolderAllocatorTagEEEEENS6_24IManagerForSystemServiceEE12GetProxyInfoEv = 0xb80c0
_ZN2nn2sf4cmif6client6detail13CmifProxyImplINS_7account4baas12IManagerBaseENS2_15CmifDomainProxyINS0_4hipc6client38Hipc2ClientSessionManagedProxyKindBaseINSA_18Hipc2ProxyKindBaseILNS9_6detail11MessageTypeE4EEEEEEENS0_25StatelessAllocationPolicyINS0_22ExpHeapStaticAllocatorILm2048ENS5_6detail12ObjectHolder24ObjectHolderAllocatorTagEEEEENS6_24IManagerForSystemServiceEE29_nn_sf_sync_CheckAvailabilityEv = 0xb80c8
_ZN2nn2sf4cmif6client6detail13CmifProxyImplINS_7account4baas12IManagerBaseENS2_15CmifDomainProxyINS0_4hipc6client38Hipc2ClientSessionManagedProxyKindBaseINSA_18Hipc2ProxyKindBaseILNS9_6detail11MessageTypeE4EEEEEEENS0_25StatelessAllocationPolicyINS0_22ExpHeapStaticAllocatorILm2048ENS5_6detail12ObjectHolder24ObjectHolderAllocatorTagEEEEENS6_24IManagerForSystemServiceEE24_nn_sf_sync_GetAccountIdENS0_3OutINS5_23NetworkServiceAccountIdEvEE = 0xb80e8
_ZN2nn2sf4cmif6client6detail13CmifProxyImplINS_7account4baas12IManagerBaseENS2_15CmifDomainProxyINS0_4hipc6client38Hipc2ClientSessionManagedProxyKindBaseINSA_18Hipc2ProxyKindBaseILNS9_6detail11MessageTypeE4EEEEEEENS0_25StatelessAllocationPolicyINS0_22ExpHeapStaticAllocatorILm2048ENS5_6detail12ObjectHolder24ObjectHolderAllocatorTagEEEEENS6_24IManagerForSystemServiceEE35_nn_sf_sync_EnsureIdTokenCacheAsyncENS0_3OutINS0_13SharedPointerINSK_13IAsyncContextEEEvEE = 0xb8108
_ZN2nn2sf4cmif6client6detail13CmifProxyImplINS_7account4baas12IManagerBaseENS2_15CmifDomainProxyINS0_4hipc6client38Hipc2ClientSessionManagedProxyKindBaseINSA_18Hipc2ProxyKindBaseILNS9_6detail11MessageTypeE4EEEEEEENS0_25StatelessAllocationPolicyINS0_22ExpHeapStaticAllocatorILm2048ENS5_6detail12ObjectHolder24ObjectHolderAllocatorTagEEEEENS6_24IManagerForSystemServiceEE28_nn_sf_sync_LoadIdTokenCacheENS0_3OutIjvEERKNS0_9OutBufferE = 0xb8198
_ZN2nn2sf4cmif6client6detail13CmifProxyImplINS_7account4baas24IManagerForSystemServiceENS2_15CmifDomainProxyINS0_4hipc6client38Hipc2ClientSessionManagedProxyKindBaseINSA_18Hipc2ProxyKindBaseILNS9_6detail11MessageTypeE4EEEEEEENS0_25StatelessAllocationPolicyINS0_22ExpHeapStaticAllocatorILm2048ENS5_6detail12ObjectHolder24ObjectHolderAllocatorTagEEEEES7_E42_nn_sf_sync_SetSystemProgramIdentificationERKNS5_27SystemProgramIdentificationEm = 0xb81c0
_ZN2nn2sf4cmif6client6detail13CmifProxyImplINS_7account4baas24IManagerForSystemServiceENS2_15CmifDomainProxyINS0_4hipc6client38Hipc2ClientSessionManagedProxyKindBaseINSA_18Hipc2ProxyKindBaseILNS9_6detail11MessageTypeE4EEEEEEENS0_25StatelessAllocationPolicyINS0_22ExpHeapStaticAllocatorILm2048ENS5_6detail12ObjectHolder24ObjectHolderAllocatorTagEEEEES7_E43_nn_sf_sync_GetServiceEntryRequirementCacheENS0_3OutIjvEENS_13ApplicationIdE = 0xb81ec
_ZN2nn2sf4cmif6client6detail13CmifProxyImplINS_7account4baas24IManagerForSystemServiceENS2_15CmifDomainProxyINS0_4hipc6client38Hipc2ClientSessionManagedProxyKindBaseINSA_18Hipc2ProxyKindBaseILNS9_6detail11MessageTypeE4EEEEEEENS0_25StatelessAllocationPolicyINS0_22ExpHeapStaticAllocatorILm2048ENS5_6detail12ObjectHolder24ObjectHolderAllocatorTagEEEEES7_E50_nn_sf_sync_InvalidateServiceEntryRequirementCacheENS_13ApplicationIdE = 0xb820c
_ZN2nn2sf4cmif6client6detail13CmifProxyImplINS_7account4baas24IManagerForSystemServiceENS2_15CmifDomainProxyINS0_4hipc6client38Hipc2ClientSessionManagedProxyKindBaseINSA_18Hipc2ProxyKindBaseILNS9_6detail11MessageTypeE4EEEEEEENS0_25StatelessAllocationPolicyINS0_22ExpHeapStaticAllocatorILm2048ENS5_6detail12ObjectHolder24ObjectHolderAllocatorTagEEEEES7_E32_nn_sf_sync_InvalidateTokenCacheENS_13ApplicationIdE = 0xb822c
_ZN2nn2sf4cmif6client6detail13CmifProxyImplINS_7account4baas24IManagerForSystemServiceENS2_15CmifDomainProxyINS0_4hipc6client38Hipc2ClientSessionManagedProxyKindBaseINSA_18Hipc2ProxyKindBaseILNS9_6detail11MessageTypeE4EEEEEEENS0_25StatelessAllocationPolicyINS0_22ExpHeapStaticAllocatorILm2048ENS5_6detail12ObjectHolder24ObjectHolderAllocatorTagEEEEES7_E32_nn_sf_sync_GetNintendoAccountIdENS0_3OutINS5_17NintendoAccountIdEvEE = 0xb824c
_ZN2nn2sf4cmif6client6detail13CmifProxyImplINS_7account4baas24IManagerForSystemServiceENS2_15CmifDomainProxyINS0_4hipc6client38Hipc2ClientSessionManagedProxyKindBaseINSA_18Hipc2ProxyKindBaseILNS9_6detail11MessageTypeE4EEEEEEENS0_25StatelessAllocationPolicyINS0_22ExpHeapStaticAllocatorILm2048ENS5_6detail12ObjectHolder24ObjectHolderAllocatorTagEEEEES7_E47_nn_sf_sync_GetNintendoAccountUserResourceCacheENS0_3OutINS5_17NintendoAccountIdEvEENSQ_INS5_3nas11NasUserBaseEvEERKNS0_9OutBufferE = 0xb826c
_ZN2nn2sf4cmif6client6detail13CmifProxyImplINS_7account4baas24IManagerForSystemServiceENS2_15CmifDomainProxyINS0_4hipc6client38Hipc2ClientSessionManagedProxyKindBaseINSA_18Hipc2ProxyKindBaseILNS9_6detail11MessageTypeE4EEEEEEENS0_25StatelessAllocationPolicyINS0_22ExpHeapStaticAllocatorILm2048ENS5_6detail12ObjectHolder24ObjectHolderAllocatorTagEEEEES7_E56_nn_sf_sync_RefreshNintendoAccountUserResourceCacheAsyncENS0_3OutINS0_13SharedPointerINSK_13IAsyncContextEEEvEE = 0xb8294
_ZN2nn2sf4cmif6client6detail13CmifProxyImplINS_7account4baas24IManagerForSystemServiceENS2_15CmifDomainProxyINS0_4hipc6client38Hipc2ClientSessionManagedProxyKindBaseINSA_18Hipc2ProxyKindBaseILNS9_6detail11MessageTypeE4EEEEEEENS0_25StatelessAllocationPolicyINS0_22ExpHeapStaticAllocatorILm2048ENS5_6detail12ObjectHolder24ObjectHolderAllocatorTagEEEEES7_E72_nn_sf_sync_RefreshNintendoAccountUserResourceCacheAsyncIfSecondsElapsedENS0_3OutIbvEENSQ_INS0_13SharedPointerINSK_13IAsyncContextEEEvEEj = 0xb8324
_ZN2nn2sf4cmif6client6detail13CmifProxyImplINS_7account4baas24IManagerForSystemServiceENS2_15CmifDomainProxyINS0_4hipc6client38Hipc2ClientSessionManagedProxyKindBaseINSA_18Hipc2ProxyKindBaseILNS9_6detail11MessageTypeE4EEEEEEENS0_25StatelessAllocationPolicyINS0_22ExpHeapStaticAllocatorILm2048ENS5_6detail12ObjectHolder24ObjectHolderAllocatorTagEEEEES7_E38_nn_sf_sync_CreateAuthorizationRequestENS0_3OutINS0_13SharedPointerINS5_3nas21IAuthorizationRequestEEEvEERKNSS_13NasClientInfoERKNS5_45NintendoAccountAuthorizationRequestParametersEONS0_12NativeHandleEj = 0xb83cc
_ZN2nn2sf4cmif6client6detail13CmifProxyImplINS_7account4baas12IManagerBaseENS2_15CmifDomainProxyINS0_4hipc6client38Hipc2ClientSessionManagedProxyKindBaseINSA_18Hipc2ProxyKindBaseILNS9_6detail11MessageTypeE4EEEEEEENS0_25StatelessAllocationPolicyINS0_22ExpHeapStaticAllocatorILm2048ENS5_6detail12ObjectHolder24ObjectHolderAllocatorTagEEEEENS6_24IManagerForSystemServiceEE17GetCmifBaseObjectEv = 0xb8498
_ZThn32_N2nn2sf4cmif6client6detail13CmifProxyImplINS_7account4baas12IManagerBaseENS2_15CmifDomainProxyINS0_4hipc6client38Hipc2ClientSessionManagedProxyKindBaseINSA_18Hipc2ProxyKindBaseILNS9_6detail11MessageTypeE4EEEEEEENS0_25StatelessAllocationPolicyINS0_22ExpHeapStaticAllocatorILm2048ENS5_6detail12ObjectHolder24ObjectHolderAllocatorTagEEEEENS6_24IManagerForSystemServiceEE17GetCmifBaseObjectEv = 0xb84a8
_ZN2nn2sf4cmif6client34CmifDomainProxyClientCoreProcessorINS0_4hipc6client38Hipc2ClientSessionManagedProxyKindBaseINS5_18Hipc2ProxyKindBaseILNS4_6detail11MessageTypeE4EEEEENS1_6detail14CoreMethodInfoINSt3__15tupleIJNSC_18BufferArgumentInfoILi0ELi25ELm16EEENSC_17InRawArgumentInfoILm8ELm8ELl0EEEEEELm8ELm0ELb1EEESK_E7ProcessEPNS2_23CmifDomainClientMessageISB_E15ProxyBaseObjectENS2_24BufferClientArgumentTypeENS2_23InRawClientArgumentTypeILm8ELm8EvEEj = 0xb84b0
_ZN2nn2sf4cmif6client34CmifDomainProxyClientCoreProcessorINS0_4hipc6client38Hipc2ClientSessionManagedProxyKindBaseINS5_18Hipc2ProxyKindBaseILNS4_6detail11MessageTypeE4EEEEENS1_6detail14CoreMethodInfoINSt3__15tupleIJNSC_18OutRawArgumentInfoILm4ELm4ELl0EEENSC_17InRawArgumentInfoILm8ELm8ELl0EEEEEELm8ELm4ELb0EEESK_E7ProcessEPNS2_23CmifDomainClientMessageISB_E15ProxyBaseObjectENS2_24OutRawClientArgumentTypeILm4ELm4EEENS2_23InRawClientArgumentTypeILm8ELm8EvEEj = 0xb8680
_ZN2nn2sf4cmif6client34CmifDomainProxyClientCoreProcessorINS0_4hipc6client38Hipc2ClientSessionManagedProxyKindBaseINS5_18Hipc2ProxyKindBaseILNS4_6detail11MessageTypeE4EEEEENS1_6detail14CoreMethodInfoINSt3__15tupleIJNSC_18OutRawArgumentInfoILm8ELm8ELl0EEENSC_18BufferArgumentInfoILi0ELi26ELm591EEENSI_ILi1ELi6ELm0EEEEEELm0ELm8ELb0EEESL_E7ProcessEPNS2_23CmifDomainClientMessageISB_E15ProxyBaseObjectENS2_24OutRawClientArgumentTypeILm8ELm8EEENS2_24BufferClientArgumentTypeESU_j = 0xb87d8
_ZN2nn2sf4cmif6client34CmifDomainProxyClientCoreProcessorINS0_4hipc6client38Hipc2ClientSessionManagedProxyKindBaseINS5_18Hipc2ProxyKindBaseILNS4_6detail11MessageTypeE4EEEEENS1_6detail14CoreMethodInfoINSt3__15tupleIJNSC_18OutRawArgumentInfoILm1ELm1ELl0EEENSC_21OutObjectArgumentInfoILi0ELi0EEENSC_17InRawArgumentInfoILm4ELm4ELl0EEEEEELm4ELm1ELb0EEESM_E21ProcessWithOutObjectsEPNS2_23CmifDomainClientMessageISB_E15ProxyBaseObjectENS2_24OutRawClientArgumentTypeILm1ELm1EEENS2_27OutObjectClientArgumentTypeENS2_23InRawClientArgumentTypeILm4ELm4EvEEjPNS0_13SharedPointerINS0_14IServiceObjectEEE = 0xb89c4
_ZN2nn2sf4cmif6client34CmifDomainProxyClientCoreProcessorINS0_4hipc6client38Hipc2ClientSessionManagedProxyKindBaseINS5_18Hipc2ProxyKindBaseILNS4_6detail11MessageTypeE4EEEEENS1_6detail14CoreMethodInfoINSt3__15tupleIJNSC_21OutObjectArgumentInfoILi0ELi0EEENSC_18BufferArgumentInfoILi0ELi25ELm264EEENSI_ILi1ELi25ELm512EEENSC_20InHandleArgumentInfoILi0ELi1EEENSC_17InRawArgumentInfoILm4ELm4ELl0EEEEEELm4ELm0ELb0EEESP_E21ProcessWithOutObjectsEPNS2_23CmifDomainClientMessageISB_E15ProxyBaseObjectENS2_27OutObjectClientArgumentTypeENS2_24BufferClientArgumentTypeESX_NS2_26InHandleClientArgumentTypeENS2_23InRawClientArgumentTypeILm4ELm4EvEEjPNS0_13SharedPointerINS0_14IServiceObjectEEE = 0xb8bac
_ZN2nn2sf4cmif6client34CmifDomainProxyClientCoreProcessorINS0_4hipc6client38Hipc2ClientSessionManagedProxyKindBaseINS5_18Hipc2ProxyKindBaseILNS4_6detail11MessageTypeE4EEEEENS1_6detail14CoreMethodInfoINSt3__15tupleIJNSC_21OutObjectArgumentInfoILi0ELi0EEENSC_18BufferArgumentInfoILi0ELi25ELm16EEENSC_17InRawArgumentInfoILm8ELm8ELl0EEEEEELm8ELm0ELb1EEESM_E21ProcessWithOutObjectsEPNS2_23CmifDomainClientMessageISB_E15ProxyBaseObjectENS2_27OutObjectClientArgumentTypeENS2_24BufferClientArgumentTypeENS2_23InRawClientArgumentTypeILm8ELm8EvEEjPNS0_13SharedPointerINS0_14IServiceObjectEEE = 0xb8e60
_ZN2nn2sf4cmif6client34CmifDomainProxyClientCoreProcessorINS0_4hipc6client38Hipc2ClientSessionManagedProxyKindBaseINS5_18Hipc2ProxyKindBaseILNS4_6detail11MessageTypeE4EEEEENS1_6detail14CoreMethodInfoINSt3__15tupleIJNSC_17InRawArgumentInfoILm16ELm8ELl0EEENSG_ILm8ELm8ELl16EEENSC_18BufferArgumentInfoILi0ELi5ELm0EEEEEELm24ELm0ELb0EEESL_E7ProcessEPNS2_23CmifDomainClientMessageISB_E15ProxyBaseObjectENS2_23InRawClientArgumentTypeILm16ELm8EvEENSS_ILm8ELm8EvEENS2_24BufferClientArgumentTypeEj = 0xb90c8
_ZN2nn2sf4cmif6client34CmifDomainProxyClientCoreProcessorINS0_4hipc6client38Hipc2ClientSessionManagedProxyKindBaseINS5_18Hipc2ProxyKindBaseILNS4_6detail11MessageTypeE4EEEEENS1_6detail14CoreMethodInfoINSt3__15tupleIJNSC_17InRawArgumentInfoILm16ELm8ELl0EEENSG_ILm8ELm8ELl16EEEEEELm24ELm0ELb0EEESJ_E7ProcessEPNS2_23CmifDomainClientMessageISB_E15ProxyBaseObjectENS2_23InRawClientArgumentTypeILm16ELm8EvEENSQ_ILm8ELm8EvEEj = 0xb92ac
_ZN2nn2sf4cmif6client34CmifDomainProxyClientCoreProcessorINS0_4hipc6client38Hipc2ClientSessionManagedProxyKindBaseINS5_18Hipc2ProxyKindBaseILNS4_6detail11MessageTypeE4EEEEENS1_6detail14CoreMethodInfoINSt3__15tupleIJNSC_18OutRawArgumentInfoILm4ELm4ELl0EEENSC_18BufferArgumentInfoILi0ELi6ELm0EEENSC_17InRawArgumentInfoILm16ELm8ELl0EEENSK_ILm8ELm8ELl16EEEEEELm24ELm4ELb0EEESN_E7ProcessEPNS2_23CmifDomainClientMessageISB_E15ProxyBaseObjectENS2_24OutRawClientArgumentTypeILm4ELm4EEENS2_24BufferClientArgumentTypeENS2_23InRawClientArgumentTypeILm16ELm8EvEENSX_ILm8ELm8EvEEj = 0xb9408
_ZN2nn2sf4cmif6client34CmifDomainProxyClientCoreProcessorINS0_4hipc6client38Hipc2ClientSessionManagedProxyKindBaseINS5_18Hipc2ProxyKindBaseILNS4_6detail11MessageTypeE4EEEEENS1_6detail14CoreMethodInfoINSt3__15tupleIJNSC_18OutRawArgumentInfoILm8ELm8ELl8EEENSG_ILm4ELm4ELl0EEENSC_17InRawArgumentInfoILm16ELm8ELl0EEEEEELm16ELm16ELb0EEESL_E7ProcessEPNS2_23CmifDomainClientMessageISB_E15ProxyBaseObjectENS2_24OutRawClientArgumentTypeILm8ELm8EEENSS_ILm4ELm4EEENS2_23InRawClientArgumentTypeILm16ELm8EvEEj = 0xb9604
_ZN2nn7account6detail12ObjectHolder11AcquireImplINS0_31IAccountServiceForAdministratorEEENS_6ResultEPPT_PKc = 0xb9774
_ZN2nn2sf4hipc6client34HipcSimpleClientSessionManagerBase4Impl18InitializeByHandleINS_7account31IAccountServiceForAdministratorENS0_25StatelessAllocationPolicyINS0_22ExpHeapStaticAllocatorILm2048ENS6_6detail12ObjectHolder24ObjectHolderAllocatorTagEEEEEEENS_6ResultEPNS0_13SharedPointerIT_EENS_3svc6HandleE = 0xb987c
_ZN2nn2sf6detail39ObjectImplFactoryWithStatelessAllocatorINS0_4cmif6client16CmifProxyFactoryINS_7account31IAccountServiceForAdministratorENS4_15CmifDomainProxyINS0_4hipc6client38Hipc2ClientSessionManagedProxyKindBaseINSA_18Hipc2ProxyKindBaseILNS9_6detail11MessageTypeE4EEEEEEENS0_25StatelessAllocationPolicyINS0_22ExpHeapStaticAllocatorILm2048ENS6_6detail12ObjectHolder24ObjectHolderAllocatorTagEEEEEE13ServiceObjectESO_E6Object12AddReferenceEv = 0xb9990
_ZN2nn2sf6detail39ObjectImplFactoryWithStatelessAllocatorINS0_4cmif6client16CmifProxyFactoryINS_7account31IAccountServiceForAdministratorENS4_15CmifDomainProxyINS0_4hipc6client38Hipc2ClientSessionManagedProxyKindBaseINSA_18Hipc2ProxyKindBaseILNS9_6detail11MessageTypeE4EEEEEEENS0_25StatelessAllocationPolicyINS0_22ExpHeapStaticAllocatorILm2048ENS6_6detail12ObjectHolder24ObjectHolderAllocatorTagEEEEEE13ServiceObjectESO_E6Object7ReleaseEv = 0xb9998
_ZN2nn2sf4cmif6client6detail13CmifProxyImplINS_7account19IAccountServiceBaseENS2_15CmifDomainProxyINS0_4hipc6client38Hipc2ClientSessionManagedProxyKindBaseINS9_18Hipc2ProxyKindBaseILNS8_6detail11MessageTypeE4EEEEEEENS0_25StatelessAllocationPolicyINS0_22ExpHeapStaticAllocatorILm2048ENS5_6detail12ObjectHolder24ObjectHolderAllocatorTagEEEEENS5_31IAccountServiceForAdministratorEE12GetProxyInfoEv = 0xb9a0c
_ZN2nn2sf4cmif6client6detail13CmifProxyImplINS_7account19IAccountServiceBaseENS2_15CmifDomainProxyINS0_4hipc6client38Hipc2ClientSessionManagedProxyKindBaseINS9_18Hipc2ProxyKindBaseILNS8_6detail11MessageTypeE4EEEEEEENS0_25StatelessAllocationPolicyINS0_22ExpHeapStaticAllocatorILm2048ENS5_6detail12ObjectHolder24ObjectHolderAllocatorTagEEEEENS5_31IAccountServiceForAdministratorEE24_nn_sf_sync_GetUserCountENS0_3OutIivEE = 0xb9a14
_ZN2nn2sf4cmif6client6detail13CmifProxyImplINS_7account19IAccountServiceBaseENS2_15CmifDomainProxyINS0_4hipc6client38Hipc2ClientSessionManagedProxyKindBaseINS9_18Hipc2ProxyKindBaseILNS8_6detail11MessageTypeE4EEEEEEENS0_25StatelessAllocationPolicyINS0_22ExpHeapStaticAllocatorILm2048ENS5_6detail12ObjectHolder24ObjectHolderAllocatorTagEEEEENS5_31IAccountServiceForAdministratorEE28_nn_sf_sync_GetUserExistenceENS0_3OutIbvEERKNS5_3UidE = 0xb9a34
_ZN2nn2sf4cmif6client6detail13CmifProxyImplINS_7account19IAccountServiceBaseENS2_15CmifDomainProxyINS0_4hipc6client38Hipc2ClientSessionManagedProxyKindBaseINS9_18Hipc2ProxyKindBaseILNS8_6detail11MessageTypeE4EEEEEEENS0_25StatelessAllocationPolicyINS0_22ExpHeapStaticAllocatorILm2048ENS5_6detail12ObjectHolder24ObjectHolderAllocatorTagEEEEENS5_31IAccountServiceForAdministratorEE24_nn_sf_sync_ListAllUsersERKNS0_8OutArrayINS5_3UidEEE = 0xb9a54
_ZN2nn2sf4cmif6client6detail13CmifProxyImplINS_7account19IAccountServiceBaseENS2_15CmifDomainProxyINS0_4hipc6client38Hipc2ClientSessionManagedProxyKindBaseINS9_18Hipc2ProxyKindBaseILNS8_6detail11MessageTypeE4EEEEEEENS0_25StatelessAllocationPolicyINS0_22ExpHeapStaticAllocatorILm2048ENS5_6detail12ObjectHolder24ObjectHolderAllocatorTagEEEEENS5_31IAccountServiceForAdministratorEE25_nn_sf_sync_ListOpenUsersERKNS0_8OutArrayINS5_3UidEEE = 0xb9a80
_ZN2nn2sf4cmif6client6detail13CmifProxyImplINS_7account19IAccountServiceBaseENS2_15CmifDomainProxyINS0_4hipc6client38Hipc2ClientSessionManagedProxyKindBaseINS9_18Hipc2ProxyKindBaseILNS8_6detail11MessageTypeE4EEEEEEENS0_25StatelessAllocationPolicyINS0_22ExpHeapStaticAllocatorILm2048ENS5_6detail12ObjectHolder24ObjectHolderAllocatorTagEEEEENS5_31IAccountServiceForAdministratorEE29_nn_sf_sync_GetLastOpenedUserENS0_3OutINS5_3UidEvEE = 0xb9aac
_ZN2nn2sf4cmif6client6detail13CmifProxyImplINS_7account19IAccountServiceBaseENS2_15CmifDomainProxyINS0_4hipc6client38Hipc2ClientSessionManagedProxyKindBaseINS9_18Hipc2ProxyKindBaseILNS8_6detail11MessageTypeE4EEEEEEENS0_25StatelessAllocationPolicyINS0_22ExpHeapStaticAllocatorILm2048ENS5_6detail12ObjectHolder24ObjectHolderAllocatorTagEEEEENS5_31IAccountServiceForAdministratorEE22_nn_sf_sync_GetProfileENS0_3OutINS0_13SharedPointerINS5_7profile8IProfileEEEvEERKNS5_3UidE = 0xb9acc
_ZN2nn2sf4cmif6client6detail13CmifProxyImplINS_7account19IAccountServiceBaseENS2_15CmifDomainProxyINS0_4hipc6client38Hipc2ClientSessionManagedProxyKindBaseINS9_18Hipc2ProxyKindBaseILNS8_6detail11MessageTypeE4EEEEEEENS0_25StatelessAllocationPolicyINS0_22ExpHeapStaticAllocatorILm2048ENS5_6detail12ObjectHolder24ObjectHolderAllocatorTagEEEEENS5_31IAccountServiceForAdministratorEE28_nn_sf_sync_GetProfileDigestENS0_3OutINS5_13ProfileDigestEvEERKNS5_3UidE = 0xb9b68
_ZN2nn2sf4cmif6client6detail13CmifProxyImplINS_7account19IAccountServiceBaseENS2_15CmifDomainProxyINS0_4hipc6client38Hipc2ClientSessionManagedProxyKindBaseINS9_18Hipc2ProxyKindBaseILNS8_6detail11MessageTypeE4EEEEEEENS0_25StatelessAllocationPolicyINS0_22ExpHeapStaticAllocatorILm2048ENS5_6detail12ObjectHolder24ObjectHolderAllocatorTagEEEEENS5_31IAccountServiceForAdministratorEE46_nn_sf_sync_IsUserRegistrationRequestPermittedENS0_3OutIbvEEm = 0xb9b88
_ZN2nn2sf4cmif6client6detail13CmifProxyImplINS_7account19IAccountServiceBaseENS2_15CmifDomainProxyINS0_4hipc6client38Hipc2ClientSessionManagedProxyKindBaseINS9_18Hipc2ProxyKindBaseILNS8_6detail11MessageTypeE4EEEEEEENS0_25StatelessAllocationPolicyINS0_22ExpHeapStaticAllocatorILm2048ENS5_6detail12ObjectHolder24ObjectHolderAllocatorTagEEEEENS5_31IAccountServiceForAdministratorEE43_nn_sf_sync_TrySelectUserWithoutInteractionENS0_3OutINS5_3UidEvEEb = 0xb9ba8
_ZN2nn2sf4cmif6client6detail13CmifProxyImplINS_7account31IAccountServiceForSystemServiceENS2_15CmifDomainProxyINS0_4hipc6client38Hipc2ClientSessionManagedProxyKindBaseINS9_18Hipc2ProxyKindBaseILNS8_6detail11MessageTypeE4EEEEEEENS0_25StatelessAllocationPolicyINS0_22ExpHeapStaticAllocatorILm2048ENS5_6detail12ObjectHolder24ObjectHolderAllocatorTagEEEEENS5_31IAccountServiceForAdministratorEE39_nn_sf_sync_GetUserRegistrationNotifierENS0_3OutINS0_13SharedPointerINSJ_9INotifierEEEvEE = 0xb9bcc
_ZN2nn2sf4cmif6client6detail13CmifProxyImplINS_7account31IAccountServiceForSystemServiceENS2_15CmifDomainProxyINS0_4hipc6client38Hipc2ClientSessionManagedProxyKindBaseINS9_18Hipc2ProxyKindBaseILNS8_6detail11MessageTypeE4EEEEEEENS0_25StatelessAllocationPolicyINS0_22ExpHeapStaticAllocatorILm2048ENS5_6detail12ObjectHolder24ObjectHolderAllocatorTagEEEEENS5_31IAccountServiceForAdministratorEE38_nn_sf_sync_GetUserStateChangeNotifierENS0_3OutINS0_13SharedPointerINSJ_9INotifierEEEvEE = 0xb9c5c
_ZN2nn2sf4cmif6client6detail13CmifProxyImplINS_7account31IAccountServiceForSystemServiceENS2_15CmifDomainProxyINS0_4hipc6client38Hipc2ClientSessionManagedProxyKindBaseINS9_18Hipc2ProxyKindBaseILNS8_6detail11MessageTypeE4EEEEEEENS0_25StatelessAllocationPolicyINS0_22ExpHeapStaticAllocatorILm2048ENS5_6detail12ObjectHolder24ObjectHolderAllocatorTagEEEEENS5_31IAccountServiceForAdministratorEE49_nn_sf_sync_GetBaasAccountManagerForSystemServiceENS0_3OutINS0_13SharedPointerINS5_4baas24IManagerForSystemServiceEEEvEERKNS5_3UidE = 0xb9cec
_ZN2nn2sf4cmif6client6detail13CmifProxyImplINS_7account31IAccountServiceForSystemServiceENS2_15CmifDomainProxyINS0_4hipc6client38Hipc2ClientSessionManagedProxyKindBaseINS9_18Hipc2ProxyKindBaseILNS8_6detail11MessageTypeE4EEEEEEENS0_25StatelessAllocationPolicyINS0_22ExpHeapStaticAllocatorILm2048ENS5_6detail12ObjectHolder24ObjectHolderAllocatorTagEEEEENS5_31IAccountServiceForAdministratorEE49_nn_sf_sync_GetBaasUserAvailabilityChangeNotifierENS0_3OutINS0_13SharedPointerINSJ_9INotifierEEEvEE = 0xb9d88
_ZN2nn2sf4cmif6client6detail13CmifProxyImplINS_7account31IAccountServiceForSystemServiceENS2_15CmifDomainProxyINS0_4hipc6client38Hipc2ClientSessionManagedProxyKindBaseINS9_18Hipc2ProxyKindBaseILNS8_6detail11MessageTypeE4EEEEEEENS0_25StatelessAllocationPolicyINS0_22ExpHeapStaticAllocatorILm2048ENS5_6detail12ObjectHolder24ObjectHolderAllocatorTagEEEEENS5_31IAccountServiceForAdministratorEE36_nn_sf_sync_GetProfileUpdateNotifierENS0_3OutINS0_13SharedPointerINSJ_9INotifierEEEvEE = 0xb9e18
_ZN2nn2sf4cmif6client6detail13CmifProxyImplINS_7account31IAccountServiceForSystemServiceENS2_15CmifDomainProxyINS0_4hipc6client38Hipc2ClientSessionManagedProxyKindBaseINS9_18Hipc2ProxyKindBaseILNS8_6detail11MessageTypeE4EEEEEEENS0_25StatelessAllocationPolicyINS0_22ExpHeapStaticAllocatorILm2048ENS5_6detail12ObjectHolder24ObjectHolderAllocatorTagEEEEENS5_31IAccountServiceForAdministratorEE48_nn_sf_sync_CheckNetworkServiceAvailabilityAsyncENS0_3OutINS0_13SharedPointerINSJ_13IAsyncContextEEEvEERKNS5_27SystemProgramIdentificationEm = 0xb9ea8
_ZN2nn2sf4cmif6client6detail13CmifProxyImplINS_7account31IAccountServiceForSystemServiceENS2_15CmifDomainProxyINS0_4hipc6client38Hipc2ClientSessionManagedProxyKindBaseINS9_18Hipc2ProxyKindBaseILNS8_6detail11MessageTypeE4EEEEEEENS0_25StatelessAllocationPolicyINS0_22ExpHeapStaticAllocatorILm2048ENS5_6detail12ObjectHolder24ObjectHolderAllocatorTagEEEEENS5_31IAccountServiceForAdministratorEE34_nn_sf_sync_StoreSaveDataThumbnailERKNS5_3UidENS_13ApplicationIdERKNS0_8InBufferE = 0xb9f54
_ZN2nn2sf4cmif6client6detail13CmifProxyImplINS_7account31IAccountServiceForSystemServiceENS2_15CmifDomainProxyINS0_4hipc6client38Hipc2ClientSessionManagedProxyKindBaseINS9_18Hipc2ProxyKindBaseILNS8_6detail11MessageTypeE4EEEEEEENS0_25StatelessAllocationPolicyINS0_22ExpHeapStaticAllocatorILm2048ENS5_6detail12ObjectHolder24ObjectHolderAllocatorTagEEEEENS5_31IAccountServiceForAdministratorEE34_nn_sf_sync_ClearSaveDataThumbnailERKNS5_3UidENS_13ApplicationIdE = 0xb9f7c
_ZN2nn2sf4cmif6client6detail13CmifProxyImplINS_7account31IAccountServiceForSystemServiceENS2_15CmifDomainProxyINS0_4hipc6client38Hipc2ClientSessionManagedProxyKindBaseINS9_18Hipc2ProxyKindBaseILNS8_6detail11MessageTypeE4EEEEEEENS0_25StatelessAllocationPolicyINS0_22ExpHeapStaticAllocatorILm2048ENS5_6detail12ObjectHolder24ObjectHolderAllocatorTagEEEEENS5_31IAccountServiceForAdministratorEE33_nn_sf_sync_LoadSaveDataThumbnailENS0_3OutIjvEERKNS0_9OutBufferERKNS5_3UidENS_13ApplicationIdE = 0xb9f9c
_ZN2nn2sf4cmif6client6detail13CmifProxyImplINS_7account31IAccountServiceForSystemServiceENS2_15CmifDomainProxyINS0_4hipc6client38Hipc2ClientSessionManagedProxyKindBaseINS9_18Hipc2ProxyKindBaseILNS8_6detail11MessageTypeE4EEEEEEENS0_25StatelessAllocationPolicyINS0_22ExpHeapStaticAllocatorILm2048ENS5_6detail12ObjectHolder24ObjectHolderAllocatorTagEEEEENS5_31IAccountServiceForAdministratorEE40_nn_sf_sync_GetUserLastOpenedApplicationENS0_3OutINS_13ApplicationIdEvEENSQ_IjvEERKNS5_3UidE = 0xb9fd4
_ZN2nn2sf4cmif6client6detail13CmifProxyImplINS_7account31IAccountServiceForSystemServiceENS2_15CmifDomainProxyINS0_4hipc6client38Hipc2ClientSessionManagedProxyKindBaseINS9_18Hipc2ProxyKindBaseILNS8_6detail11MessageTypeE4EEEEEEENS0_25StatelessAllocationPolicyINS0_22ExpHeapStaticAllocatorILm2048ENS5_6detail12ObjectHolder24ObjectHolderAllocatorTagEEEEENS5_31IAccountServiceForAdministratorEE44_nn_sf_sync_DebugInvalidateTokenCacheForUserERKNS5_3UidE = 0xb9ff4
_ZN2nn2sf4cmif6client6detail13CmifProxyImplINS_7account31IAccountServiceForSystemServiceENS2_15CmifDomainProxyINS0_4hipc6client38Hipc2ClientSessionManagedProxyKindBaseINS9_18Hipc2ProxyKindBaseILNS8_6detail11MessageTypeE4EEEEEEENS0_25StatelessAllocationPolicyINS0_22ExpHeapStaticAllocatorILm2048ENS5_6detail12ObjectHolder24ObjectHolderAllocatorTagEEEEENS5_31IAccountServiceForAdministratorEE34_nn_sf_sync_DebugSetUserStateCloseERKNS5_3UidE = 0xba014
_ZN2nn2sf4cmif6client6detail13CmifProxyImplINS_7account31IAccountServiceForSystemServiceENS2_15CmifDomainProxyINS0_4hipc6client38Hipc2ClientSessionManagedProxyKindBaseINS9_18Hipc2ProxyKindBaseILNS8_6detail11MessageTypeE4EEEEEEENS0_25StatelessAllocationPolicyINS0_22ExpHeapStaticAllocatorILm2048ENS5_6detail12ObjectHolder24ObjectHolderAllocatorTagEEEEENS5_31IAccountServiceForAdministratorEE33_nn_sf_sync_DebugSetUserStateOpenERKNS5_3UidE = 0xba034
_ZN2nn2sf4cmif6client6detail13CmifProxyImplINS_7account31IAccountServiceForAdministratorENS2_15CmifDomainProxyINS0_4hipc6client38Hipc2ClientSessionManagedProxyKindBaseINS9_18Hipc2ProxyKindBaseILNS8_6detail11MessageTypeE4EEEEEEENS0_25StatelessAllocationPolicyINS0_22ExpHeapStaticAllocatorILm2048ENS5_6detail12ObjectHolder24ObjectHolderAllocatorTagEEEEES6_E33_nn_sf_sync_BeginUserRegistrationENS0_3OutINS5_3UidEvEE = 0xba054
_ZN2nn2sf4cmif6client6detail13CmifProxyImplINS_7account31IAccountServiceForAdministratorENS2_15CmifDomainProxyINS0_4hipc6client38Hipc2ClientSessionManagedProxyKindBaseINS9_18Hipc2ProxyKindBaseILNS8_6detail11MessageTypeE4EEEEEEENS0_25StatelessAllocationPolicyINS0_22ExpHeapStaticAllocatorILm2048ENS5_6detail12ObjectHolder24ObjectHolderAllocatorTagEEEEES6_E36_nn_sf_sync_CompleteUserRegistrationERKNS5_3UidE = 0xba074
_ZN2nn2sf4cmif6client6detail13CmifProxyImplINS_7account31IAccountServiceForAdministratorENS2_15CmifDomainProxyINS0_4hipc6client38Hipc2ClientSessionManagedProxyKindBaseINS9_18Hipc2ProxyKindBaseILNS8_6detail11MessageTypeE4EEEEEEENS0_25StatelessAllocationPolicyINS0_22ExpHeapStaticAllocatorILm2048ENS5_6detail12ObjectHolder24ObjectHolderAllocatorTagEEEEES6_E34_nn_sf_sync_CancelUserRegistrationERKNS5_3UidE = 0xba094
_ZN2nn2sf4cmif6client6detail13CmifProxyImplINS_7account31IAccountServiceForAdministratorENS2_15CmifDomainProxyINS0_4hipc6client38Hipc2ClientSessionManagedProxyKindBaseINS9_18Hipc2ProxyKindBaseILNS8_6detail11MessageTypeE4EEEEEEENS0_25StatelessAllocationPolicyINS0_22ExpHeapStaticAllocatorILm2048ENS5_6detail12ObjectHolder24ObjectHolderAllocatorTagEEEEES6_E22_nn_sf_sync_DeleteUserERKNS5_3UidE = 0xba0b4
_ZN2nn2sf4cmif6client6detail13CmifProxyImplINS_7account31IAccountServiceForAdministratorENS2_15CmifDomainProxyINS0_4hipc6client38Hipc2ClientSessionManagedProxyKindBaseINS9_18Hipc2ProxyKindBaseILNS8_6detail11MessageTypeE4EEEEEEENS0_25StatelessAllocationPolicyINS0_22ExpHeapStaticAllocatorILm2048ENS5_6detail12ObjectHolder24ObjectHolderAllocatorTagEEEEES6_E27_nn_sf_sync_SetUserPositionERKNS5_3UidEi = 0xba0d4
_ZN2nn2sf4cmif6client6detail13CmifProxyImplINS_7account31IAccountServiceForAdministratorENS2_15CmifDomainProxyINS0_4hipc6client38Hipc2ClientSessionManagedProxyKindBaseINS9_18Hipc2ProxyKindBaseILNS8_6detail11MessageTypeE4EEEEEEENS0_25StatelessAllocationPolicyINS0_22ExpHeapStaticAllocatorILm2048ENS5_6detail12ObjectHolder24ObjectHolderAllocatorTagEEEEES6_E28_nn_sf_sync_GetProfileEditorENS0_3OutINS0_13SharedPointerINS5_7profile14IProfileEditorEEEvEERKNS5_3UidE = 0xba0f8
_ZN2nn2sf4cmif6client6detail13CmifProxyImplINS_7account31IAccountServiceForAdministratorENS2_15CmifDomainProxyINS0_4hipc6client38Hipc2ClientSessionManagedProxyKindBaseINS9_18Hipc2ProxyKindBaseILNS8_6detail11MessageTypeE4EEEEEEENS0_25StatelessAllocationPolicyINS0_22ExpHeapStaticAllocatorILm2048ENS5_6detail12ObjectHolder24ObjectHolderAllocatorTagEEEEES6_E44_nn_sf_sync_CompleteUserRegistrationForciblyERKNS5_3UidE = 0xba194
_ZN2nn2sf4cmif6client6detail13CmifProxyImplINS_7account31IAccountServiceForAdministratorENS2_15CmifDomainProxyINS0_4hipc6client38Hipc2ClientSessionManagedProxyKindBaseINS9_18Hipc2ProxyKindBaseILNS8_6detail11MessageTypeE4EEEEEEENS0_25StatelessAllocationPolicyINS0_22ExpHeapStaticAllocatorILm2048ENS5_6detail12ObjectHolder24ObjectHolderAllocatorTagEEEEES6_E45_nn_sf_sync_CreateFloatingRegistrationRequestENS0_3OutINS0_13SharedPointerINS5_4baas28IFloatingRegistrationRequestEEEvEEONS0_12NativeHandleEj = 0xba1b4
_ZN2nn2sf4cmif6client6detail13CmifProxyImplINS_7account31IAccountServiceForAdministratorENS2_15CmifDomainProxyINS0_4hipc6client38Hipc2ClientSessionManagedProxyKindBaseINS9_18Hipc2ProxyKindBaseILNS8_6detail11MessageTypeE4EEEEEEENS0_25StatelessAllocationPolicyINS0_22ExpHeapStaticAllocatorILm2048ENS5_6detail12ObjectHolder24ObjectHolderAllocatorTagEEEEES6_E36_nn_sf_sync_AuthenticateServiceAsyncENS0_3OutINS0_13SharedPointerINSJ_13IAsyncContextEEEvEE = 0xba25c
_ZN2nn2sf4cmif6client6detail13CmifProxyImplINS_7account31IAccountServiceForAdministratorENS2_15CmifDomainProxyINS0_4hipc6client38Hipc2ClientSessionManagedProxyKindBaseINS9_18Hipc2ProxyKindBaseILNS8_6detail11MessageTypeE4EEEEEEENS0_25StatelessAllocationPolicyINS0_22ExpHeapStaticAllocatorILm2048ENS5_6detail12ObjectHolder24ObjectHolderAllocatorTagEEEEES6_E39_nn_sf_sync_GetBaasAccountAdministratorENS0_3OutINS0_13SharedPointerINS5_4baas14IAdministratorEEEvEERKNS5_3UidE = 0xba2ec
_ZN2nn2sf4cmif6client6detail13CmifProxyImplINS_7account31IAccountServiceForAdministratorENS2_15CmifDomainProxyINS0_4hipc6client38Hipc2ClientSessionManagedProxyKindBaseINS9_18Hipc2ProxyKindBaseILNS8_6detail11MessageTypeE4EEEEEEENS0_25StatelessAllocationPolicyINS0_22ExpHeapStaticAllocatorILm2048ENS5_6detail12ObjectHolder24ObjectHolderAllocatorTagEEEEES6_E58_nn_sf_sync_ProxyProcedureForGuestLoginWithNintendoAccountENS0_3OutINS0_13SharedPointerINS5_3nas29IOAuthProcedureForExternalNsaEEEvEERKNSJ_4UuidE = 0xba388
_ZN2nn2sf4cmif6client6detail13CmifProxyImplINS_7account31IAccountServiceForAdministratorENS2_15CmifDomainProxyINS0_4hipc6client38Hipc2ClientSessionManagedProxyKindBaseINS9_18Hipc2ProxyKindBaseILNS8_6detail11MessageTypeE4EEEEEEENS0_25StatelessAllocationPolicyINS0_22ExpHeapStaticAllocatorILm2048ENS5_6detail12ObjectHolder24ObjectHolderAllocatorTagEEEEES6_E68_nn_sf_sync_ProxyProcedureForFloatingRegistrationWithNintendoAccountENS0_3OutINS0_13SharedPointerINS5_3nas29IOAuthProcedureForExternalNsaEEEvEERKNSJ_4UuidE = 0xba424
_ZN2nn2sf4cmif6client6detail13CmifProxyImplINS_7account31IAccountServiceForAdministratorENS2_15CmifDomainProxyINS0_4hipc6client38Hipc2ClientSessionManagedProxyKindBaseINS9_18Hipc2ProxyKindBaseILNS8_6detail11MessageTypeE4EEEEEEENS0_25StatelessAllocationPolicyINS0_22ExpHeapStaticAllocatorILm2048ENS5_6detail12ObjectHolder24ObjectHolderAllocatorTagEEEEES6_E35_nn_sf_sync_SuspendBackgroundDaemonENS0_3OutINS0_13SharedPointerINSJ_14ISessionObjectEEEvEE = 0xba4c0
_ZN2nn2sf4cmif6client6detail13CmifProxyImplINS_7account19IAccountServiceBaseENS2_15CmifDomainProxyINS0_4hipc6client38Hipc2ClientSessionManagedProxyKindBaseINS9_18Hipc2ProxyKindBaseILNS8_6detail11MessageTypeE4EEEEEEENS0_25StatelessAllocationPolicyINS0_22ExpHeapStaticAllocatorILm2048ENS5_6detail12ObjectHolder24ObjectHolderAllocatorTagEEEEENS5_31IAccountServiceForAdministratorEE17GetCmifBaseObjectEv = 0xba550
_ZThn32_N2nn2sf4cmif6client6detail13CmifProxyImplINS_7account19IAccountServiceBaseENS2_15CmifDomainProxyINS0_4hipc6client38Hipc2ClientSessionManagedProxyKindBaseINS9_18Hipc2ProxyKindBaseILNS8_6detail11MessageTypeE4EEEEEEENS0_25StatelessAllocationPolicyINS0_22ExpHeapStaticAllocatorILm2048ENS5_6detail12ObjectHolder24ObjectHolderAllocatorTagEEEEENS5_31IAccountServiceForAdministratorEE17GetCmifBaseObjectEv = 0xba560
_ZN2nn2sf4cmif6client34CmifDomainProxyClientCoreProcessorINS0_4hipc6client38Hipc2ClientSessionManagedProxyKindBaseINS5_18Hipc2ProxyKindBaseILNS4_6detail11MessageTypeE4EEEEENS1_6detail14CoreMethodInfoINSt3__15tupleIJNSC_17InRawArgumentInfoILm16ELm8ELl8EEENSG_ILm4ELm4ELl0EEEEEELm24ELm0ELb0EEESJ_E7ProcessEPNS2_23CmifDomainClientMessageISB_E15ProxyBaseObjectENS2_23InRawClientArgumentTypeILm16ELm8EvEENSQ_ILm4ELm4EvEEj = 0xba568
_ZN2nn2sf4cmif6client32GetClientProcessorWithObjectBaseINS2_15CmifDomainProxyINS0_4hipc6client38Hipc2ClientSessionManagedProxyKindBaseINS6_18Hipc2ProxyKindBaseILNS5_6detail11MessageTypeE4EEEEEEEE14ObjectAssignerINS0_25StatelessAllocationPolicyINS0_22ExpHeapStaticAllocatorILm2048ENS_7account6detail12ObjectHolder24ObjectHolderAllocatorTagEEEEENS0_6detail23StatelessDummyAllocatorEE14AllocateObjectINSI_7profile14IProfileEditorEEEvi = 0xba6c8
_ZN2nn2sf6detail39ObjectImplFactoryWithStatelessAllocatorINS0_4cmif6client16CmifProxyFactoryINS_7account7profile14IProfileEditorENS4_15CmifDomainProxyINS0_4hipc6client38Hipc2ClientSessionManagedProxyKindBaseINSB_18Hipc2ProxyKindBaseILNSA_6detail11MessageTypeE4EEEEEEENS0_25StatelessAllocationPolicyINS0_22ExpHeapStaticAllocatorILm2048ENS6_6detail12ObjectHolder24ObjectHolderAllocatorTagEEEEEE13ServiceObjectESP_E6Object12AddReferenceEv = 0xba77c
_ZN2nn2sf6detail39ObjectImplFactoryWithStatelessAllocatorINS0_4cmif6client16CmifProxyFactoryINS_7account7profile14IProfileEditorENS4_15CmifDomainProxyINS0_4hipc6client38Hipc2ClientSessionManagedProxyKindBaseINSB_18Hipc2ProxyKindBaseILNSA_6detail11MessageTypeE4EEEEEEENS0_25StatelessAllocationPolicyINS0_22ExpHeapStaticAllocatorILm2048ENS6_6detail12ObjectHolder24ObjectHolderAllocatorTagEEEEEE13ServiceObjectESP_E6Object7ReleaseEv = 0xba784
_ZN2nn2sf4cmif6client6detail13CmifProxyImplINS_7account7profile8IProfileENS2_15CmifDomainProxyINS0_4hipc6client38Hipc2ClientSessionManagedProxyKindBaseINSA_18Hipc2ProxyKindBaseILNS9_6detail11MessageTypeE4EEEEEEENS0_25StatelessAllocationPolicyINS0_22ExpHeapStaticAllocatorILm2048ENS5_6detail12ObjectHolder24ObjectHolderAllocatorTagEEEEENS6_14IProfileEditorEE12GetProxyInfoEv = 0xba7f8
_ZN2nn2sf4cmif6client6detail13CmifProxyImplINS_7account7profile8IProfileENS2_15CmifDomainProxyINS0_4hipc6client38Hipc2ClientSessionManagedProxyKindBaseINSA_18Hipc2ProxyKindBaseILNS9_6detail11MessageTypeE4EEEEEEENS0_25StatelessAllocationPolicyINS0_22ExpHeapStaticAllocatorILm2048ENS5_6detail12ObjectHolder24ObjectHolderAllocatorTagEEEEENS6_14IProfileEditorEE15_nn_sf_sync_GetENS0_3OutINS6_11ProfileBaseEvEENSR_INS6_8UserDataEvEE = 0xba800
_ZN2nn2sf4cmif6client6detail13CmifProxyImplINS_7account7profile8IProfileENS2_15CmifDomainProxyINS0_4hipc6client38Hipc2ClientSessionManagedProxyKindBaseINSA_18Hipc2ProxyKindBaseILNS9_6detail11MessageTypeE4EEEEEEENS0_25StatelessAllocationPolicyINS0_22ExpHeapStaticAllocatorILm2048ENS5_6detail12ObjectHolder24ObjectHolderAllocatorTagEEEEENS6_14IProfileEditorEE19_nn_sf_sync_GetBaseENS0_3OutINS6_11ProfileBaseEvEE = 0xba824
_ZN2nn2sf4cmif6client6detail13CmifProxyImplINS_7account7profile8IProfileENS2_15CmifDomainProxyINS0_4hipc6client38Hipc2ClientSessionManagedProxyKindBaseINSA_18Hipc2ProxyKindBaseILNS9_6detail11MessageTypeE4EEEEEEENS0_25StatelessAllocationPolicyINS0_22ExpHeapStaticAllocatorILm2048ENS5_6detail12ObjectHolder24ObjectHolderAllocatorTagEEEEENS6_14IProfileEditorEE24_nn_sf_sync_GetImageSizeENS0_3OutIjvEE = 0xba844
_ZN2nn2sf4cmif6client6detail13CmifProxyImplINS_7account7profile8IProfileENS2_15CmifDomainProxyINS0_4hipc6client38Hipc2ClientSessionManagedProxyKindBaseINSA_18Hipc2ProxyKindBaseILNS9_6detail11MessageTypeE4EEEEEEENS0_25StatelessAllocationPolicyINS0_22ExpHeapStaticAllocatorILm2048ENS5_6detail12ObjectHolder24ObjectHolderAllocatorTagEEEEENS6_14IProfileEditorEE21_nn_sf_sync_LoadImageENS0_3OutIjvEERKNS0_9OutBufferE = 0xba864
_ZN2nn2sf4cmif6client6detail13CmifProxyImplINS_7account7profile14IProfileEditorENS2_15CmifDomainProxyINS0_4hipc6client38Hipc2ClientSessionManagedProxyKindBaseINSA_18Hipc2ProxyKindBaseILNS9_6detail11MessageTypeE4EEEEEEENS0_25StatelessAllocationPolicyINS0_22ExpHeapStaticAllocatorILm2048ENS5_6detail12ObjectHolder24ObjectHolderAllocatorTagEEEEES7_E17_nn_sf_sync_StoreERKNS6_11ProfileBaseERKNS6_8UserDataE = 0xba88c
_ZN2nn2sf4cmif6client6detail13CmifProxyImplINS_7account7profile14IProfileEditorENS2_15CmifDomainProxyINS0_4hipc6client38Hipc2ClientSessionManagedProxyKindBaseINSA_18Hipc2ProxyKindBaseILNS9_6detail11MessageTypeE4EEEEEEENS0_25StatelessAllocationPolicyINS0_22ExpHeapStaticAllocatorILm2048ENS5_6detail12ObjectHolder24ObjectHolderAllocatorTagEEEEES7_E26_nn_sf_sync_StoreWithImageERKNS6_11ProfileBaseERKNS6_8UserDataERKNS0_8InBufferE = 0xba8b0
_ZN2nn2sf4cmif6client6detail13CmifProxyImplINS_7account7profile8IProfileENS2_15CmifDomainProxyINS0_4hipc6client38Hipc2ClientSessionManagedProxyKindBaseINSA_18Hipc2ProxyKindBaseILNS9_6detail11MessageTypeE4EEEEEEENS0_25StatelessAllocationPolicyINS0_22ExpHeapStaticAllocatorILm2048ENS5_6detail12ObjectHolder24ObjectHolderAllocatorTagEEEEENS6_14IProfileEditorEE17GetCmifBaseObjectEv = 0xba8d8
_ZThn32_N2nn2sf4cmif6client6detail13CmifProxyImplINS_7account7profile8IProfileENS2_15CmifDomainProxyINS0_4hipc6client38Hipc2ClientSessionManagedProxyKindBaseINSA_18Hipc2ProxyKindBaseILNS9_6detail11MessageTypeE4EEEEEEENS0_25StatelessAllocationPolicyINS0_22ExpHeapStaticAllocatorILm2048ENS5_6detail12ObjectHolder24ObjectHolderAllocatorTagEEEEENS6_14IProfileEditorEE17GetCmifBaseObjectEv = 0xba8e8
_ZN2nn2sf4cmif6client34CmifDomainProxyClientCoreProcessorINS0_4hipc6client38Hipc2ClientSessionManagedProxyKindBaseINS5_18Hipc2ProxyKindBaseILNS4_6detail11MessageTypeE4EEEEENS1_6detail14CoreMethodInfoINSt3__15tupleIJNSC_17InRawArgumentInfoILm56ELm8ELl0EEENSC_18BufferArgumentInfoILi0ELi25ELm128EEEEEELm56ELm0ELb0EEESK_E7ProcessEPNS2_23CmifDomainClientMessageISB_E15ProxyBaseObjectENS2_23InRawClientArgumentTypeILm56ELm8EvEENS2_24BufferClientArgumentTypeEj = 0xba8f0
_ZN2nn2sf4cmif6client34CmifDomainProxyClientCoreProcessorINS0_4hipc6client38Hipc2ClientSessionManagedProxyKindBaseINS5_18Hipc2ProxyKindBaseILNS4_6detail11MessageTypeE4EEEEENS1_6detail14CoreMethodInfoINSt3__15tupleIJNSC_17InRawArgumentInfoILm56ELm8ELl0EEENSC_18BufferArgumentInfoILi0ELi25ELm128EEENSI_ILi1ELi5ELm0EEEEEELm56ELm0ELb0EEESL_E7ProcessEPNS2_23CmifDomainClientMessageISB_E15ProxyBaseObjectENS2_23InRawClientArgumentTypeILm56ELm8EvEENS2_24BufferClientArgumentTypeESU_j = 0xbaac8
_ZN2nn2sf4cmif6client32GetClientProcessorWithObjectBaseINS2_15CmifDomainProxyINS0_4hipc6client38Hipc2ClientSessionManagedProxyKindBaseINS6_18Hipc2ProxyKindBaseILNS5_6detail11MessageTypeE4EEEEEEEE14ObjectAssignerINS0_25StatelessAllocationPolicyINS0_22ExpHeapStaticAllocatorILm2048ENS_7account6detail12ObjectHolder24ObjectHolderAllocatorTagEEEEENS0_6detail23StatelessDummyAllocatorEE14AllocateObjectINSI_4baas28IFloatingRegistrationRequestEEEvi = 0xbacb8
_ZN2nn2sf6detail39ObjectImplFactoryWithStatelessAllocatorINS0_4cmif6client16CmifProxyFactoryINS_7account4baas28IFloatingRegistrationRequestENS4_15CmifDomainProxyINS0_4hipc6client38Hipc2ClientSessionManagedProxyKindBaseINSB_18Hipc2ProxyKindBaseILNSA_6detail11MessageTypeE4EEEEEEENS0_25StatelessAllocationPolicyINS0_22ExpHeapStaticAllocatorILm2048ENS6_6detail12ObjectHolder24ObjectHolderAllocatorTagEEEEEE13ServiceObjectESP_E6Object12AddReferenceEv = 0xbad6c
_ZN2nn2sf6detail39ObjectImplFactoryWithStatelessAllocatorINS0_4cmif6client16CmifProxyFactoryINS_7account4baas28IFloatingRegistrationRequestENS4_15CmifDomainProxyINS0_4hipc6client38Hipc2ClientSessionManagedProxyKindBaseINSB_18Hipc2ProxyKindBaseILNSA_6detail11MessageTypeE4EEEEEEENS0_25StatelessAllocationPolicyINS0_22ExpHeapStaticAllocatorILm2048ENS6_6detail12ObjectHolder24ObjectHolderAllocatorTagEEEEEE13ServiceObjectESP_E6Object7ReleaseEv = 0xbad74
_ZN2nn2sf4cmif6client6detail13CmifProxyImplINS_7account4baas18IGuestLoginRequestENS2_15CmifDomainProxyINS0_4hipc6client38Hipc2ClientSessionManagedProxyKindBaseINSA_18Hipc2ProxyKindBaseILNS9_6detail11MessageTypeE4EEEEEEENS0_25StatelessAllocationPolicyINS0_22ExpHeapStaticAllocatorILm2048ENS5_6detail12ObjectHolder24ObjectHolderAllocatorTagEEEEENS6_28IFloatingRegistrationRequestEE12GetProxyInfoEv = 0xbade8
_ZN2nn2sf4cmif6client6detail13CmifProxyImplINS_7account4baas18IGuestLoginRequestENS2_15CmifDomainProxyINS0_4hipc6client38Hipc2ClientSessionManagedProxyKindBaseINSA_18Hipc2ProxyKindBaseILNS9_6detail11MessageTypeE4EEEEEEENS0_25StatelessAllocationPolicyINS0_22ExpHeapStaticAllocatorILm2048ENS5_6detail12ObjectHolder24ObjectHolderAllocatorTagEEEEENS6_28IFloatingRegistrationRequestEE24_nn_sf_sync_GetSessionIdENS0_3OutINSK_4UuidEvEE = 0xbadf0
_ZN2nn2sf4cmif6client6detail13CmifProxyImplINS_7account4baas18IGuestLoginRequestENS2_15CmifDomainProxyINS0_4hipc6client38Hipc2ClientSessionManagedProxyKindBaseINSA_18Hipc2ProxyKindBaseILNS9_6detail11MessageTypeE4EEEEEEENS0_25StatelessAllocationPolicyINS0_22ExpHeapStaticAllocatorILm2048ENS5_6detail12ObjectHolder24ObjectHolderAllocatorTagEEEEENS6_28IFloatingRegistrationRequestEE24_nn_sf_sync_GetAccountIdENS0_3OutINS5_23NetworkServiceAccountIdEvEE = 0xbae10
_ZN2nn2sf4cmif6client6detail13CmifProxyImplINS_7account4baas18IGuestLoginRequestENS2_15CmifDomainProxyINS0_4hipc6client38Hipc2ClientSessionManagedProxyKindBaseINSA_18Hipc2ProxyKindBaseILNS9_6detail11MessageTypeE4EEEEEEENS0_25StatelessAllocationPolicyINS0_22ExpHeapStaticAllocatorILm2048ENS5_6detail12ObjectHolder24ObjectHolderAllocatorTagEEEEENS6_28IFloatingRegistrationRequestEE38_nn_sf_sync_GetLinkedNintendoAccountIdENS0_3OutINS5_17NintendoAccountIdEvEE = 0xbae30
_ZN2nn2sf4cmif6client6detail13CmifProxyImplINS_7account4baas18IGuestLoginRequestENS2_15CmifDomainProxyINS0_4hipc6client38Hipc2ClientSessionManagedProxyKindBaseINSA_18Hipc2ProxyKindBaseILNS9_6detail11MessageTypeE4EEEEEEENS0_25StatelessAllocationPolicyINS0_22ExpHeapStaticAllocatorILm2048ENS5_6detail12ObjectHolder24ObjectHolderAllocatorTagEEEEENS6_28IFloatingRegistrationRequestEE23_nn_sf_sync_GetNicknameERKNS0_8OutArrayIcEE = 0xbae50
_ZN2nn2sf4cmif6client6detail13CmifProxyImplINS_7account4baas18IGuestLoginRequestENS2_15CmifDomainProxyINS0_4hipc6client38Hipc2ClientSessionManagedProxyKindBaseINSA_18Hipc2ProxyKindBaseILNS9_6detail11MessageTypeE4EEEEEEENS0_25StatelessAllocationPolicyINS0_22ExpHeapStaticAllocatorILm2048ENS5_6detail12ObjectHolder24ObjectHolderAllocatorTagEEEEENS6_28IFloatingRegistrationRequestEE27_nn_sf_sync_GetProfileImageENS0_3OutIjvEERKNS0_9OutBufferE = 0xbae78
_ZN2nn2sf4cmif6client6detail13CmifProxyImplINS_7account4baas18IGuestLoginRequestENS2_15CmifDomainProxyINS0_4hipc6client38Hipc2ClientSessionManagedProxyKindBaseINSA_18Hipc2ProxyKindBaseILNS9_6detail11MessageTypeE4EEEEEEENS0_25StatelessAllocationPolicyINS0_22ExpHeapStaticAllocatorILm2048ENS5_6detail12ObjectHolder24ObjectHolderAllocatorTagEEEEENS6_28IFloatingRegistrationRequestEE28_nn_sf_sync_LoadIdTokenCacheENS0_3OutIjvEERKNS0_9OutBufferE = 0xbaea0
_ZN2nn2sf4cmif6client6detail13CmifProxyImplINS_7account4baas28IFloatingRegistrationRequestENS2_15CmifDomainProxyINS0_4hipc6client38Hipc2ClientSessionManagedProxyKindBaseINSA_18Hipc2ProxyKindBaseILNS9_6detail11MessageTypeE4EEEEEEENS0_25StatelessAllocationPolicyINS0_22ExpHeapStaticAllocatorILm2048ENS5_6detail12ObjectHolder24ObjectHolderAllocatorTagEEEEES7_E24_nn_sf_sync_RegisterUserENS0_3OutINS5_3UidEvEE = 0xbaec8
_ZN2nn2sf4cmif6client6detail13CmifProxyImplINS_7account4baas28IFloatingRegistrationRequestENS2_15CmifDomainProxyINS0_4hipc6client38Hipc2ClientSessionManagedProxyKindBaseINSA_18Hipc2ProxyKindBaseILNS9_6detail11MessageTypeE4EEEEEEENS0_25StatelessAllocationPolicyINS0_22ExpHeapStaticAllocatorILm2048ENS5_6detail12ObjectHolder24ObjectHolderAllocatorTagEEEEES7_E31_nn_sf_sync_RegisterUserWithUidERKNS5_3UidE = 0xbaee8
_ZN2nn2sf4cmif6client6detail13CmifProxyImplINS_7account4baas28IFloatingRegistrationRequestENS2_15CmifDomainProxyINS0_4hipc6client38Hipc2ClientSessionManagedProxyKindBaseINSA_18Hipc2ProxyKindBaseILNS9_6detail11MessageTypeE4EEEEEEENS0_25StatelessAllocationPolicyINS0_22ExpHeapStaticAllocatorILm2048ENS5_6detail12ObjectHolder24ObjectHolderAllocatorTagEEEEES7_E46_nn_sf_sync_RegisterNetworkServiceAccountAsyncENS0_3OutINS0_13SharedPointerINSK_13IAsyncContextEEEvEE = 0xbaf08
_ZN2nn2sf4cmif6client6detail13CmifProxyImplINS_7account4baas28IFloatingRegistrationRequestENS2_15CmifDomainProxyINS0_4hipc6client38Hipc2ClientSessionManagedProxyKindBaseINSA_18Hipc2ProxyKindBaseILNS9_6detail11MessageTypeE4EEEEEEENS0_25StatelessAllocationPolicyINS0_22ExpHeapStaticAllocatorILm2048ENS5_6detail12ObjectHolder24ObjectHolderAllocatorTagEEEEES7_E53_nn_sf_sync_RegisterNetworkServiceAccountWithUidAsyncENS0_3OutINS0_13SharedPointerINSK_13IAsyncContextEEEvEERKNS5_3UidE = 0xbaf98
_ZN2nn2sf4cmif6client6detail13CmifProxyImplINS_7account4baas28IFloatingRegistrationRequestENS2_15CmifDomainProxyINS0_4hipc6client38Hipc2ClientSessionManagedProxyKindBaseINSA_18Hipc2ProxyKindBaseILNS9_6detail11MessageTypeE4EEEEEEENS0_25StatelessAllocationPolicyINS0_22ExpHeapStaticAllocatorILm2048ENS5_6detail12ObjectHolder24ObjectHolderAllocatorTagEEEEES7_E42_nn_sf_sync_SetSystemProgramIdentificationERKNS5_27SystemProgramIdentificationEm = 0xbb034
_ZN2nn2sf4cmif6client6detail13CmifProxyImplINS_7account4baas28IFloatingRegistrationRequestENS2_15CmifDomainProxyINS0_4hipc6client38Hipc2ClientSessionManagedProxyKindBaseINSA_18Hipc2ProxyKindBaseILNS9_6detail11MessageTypeE4EEEEEEENS0_25StatelessAllocationPolicyINS0_22ExpHeapStaticAllocatorILm2048ENS5_6detail12ObjectHolder24ObjectHolderAllocatorTagEEEEES7_E35_nn_sf_sync_EnsureIdTokenCacheAsyncENS0_3OutINS0_13SharedPointerINSK_13IAsyncContextEEEvEE = 0xbb060
_ZN2nn2sf4cmif6client6detail13CmifProxyImplINS_7account4baas18IGuestLoginRequestENS2_15CmifDomainProxyINS0_4hipc6client38Hipc2ClientSessionManagedProxyKindBaseINSA_18Hipc2ProxyKindBaseILNS9_6detail11MessageTypeE4EEEEEEENS0_25StatelessAllocationPolicyINS0_22ExpHeapStaticAllocatorILm2048ENS5_6detail12ObjectHolder24ObjectHolderAllocatorTagEEEEENS6_28IFloatingRegistrationRequestEE17GetCmifBaseObjectEv = 0xbb0f0
_ZThn32_N2nn2sf4cmif6client6detail13CmifProxyImplINS_7account4baas18IGuestLoginRequestENS2_15CmifDomainProxyINS0_4hipc6client38Hipc2ClientSessionManagedProxyKindBaseINSA_18Hipc2ProxyKindBaseILNS9_6detail11MessageTypeE4EEEEEEENS0_25StatelessAllocationPolicyINS0_22ExpHeapStaticAllocatorILm2048ENS5_6detail12ObjectHolder24ObjectHolderAllocatorTagEEEEENS6_28IFloatingRegistrationRequestEE17GetCmifBaseObjectEv = 0xbb100
_ZN2nn2sf4cmif6client32GetClientProcessorWithObjectBaseINS2_15CmifDomainProxyINS0_4hipc6client38Hipc2ClientSessionManagedProxyKindBaseINS6_18Hipc2ProxyKindBaseILNS5_6detail11MessageTypeE4EEEEEEEE14ObjectAssignerINS0_25StatelessAllocationPolicyINS0_22ExpHeapStaticAllocatorILm2048ENS_7account6detail12ObjectHolder24ObjectHolderAllocatorTagEEEEENS0_6detail23StatelessDummyAllocatorEE14AllocateObjectINSI_4baas14IAdministratorEEEvi = 0xbb108
_ZN2nn2sf6detail39ObjectImplFactoryWithStatelessAllocatorINS0_4cmif6client16CmifProxyFactoryINS_7account4baas14IAdministratorENS4_15CmifDomainProxyINS0_4hipc6client38Hipc2ClientSessionManagedProxyKindBaseINSB_18Hipc2ProxyKindBaseILNSA_6detail11MessageTypeE4EEEEEEENS0_25StatelessAllocationPolicyINS0_22ExpHeapStaticAllocatorILm2048ENS6_6detail12ObjectHolder24ObjectHolderAllocatorTagEEEEEE13ServiceObjectESP_E6Object12AddReferenceEv = 0xbb1bc
_ZN2nn2sf6detail39ObjectImplFactoryWithStatelessAllocatorINS0_4cmif6client16CmifProxyFactoryINS_7account4baas14IAdministratorENS4_15CmifDomainProxyINS0_4hipc6client38Hipc2ClientSessionManagedProxyKindBaseINSB_18Hipc2ProxyKindBaseILNSA_6detail11MessageTypeE4EEEEEEENS0_25StatelessAllocationPolicyINS0_22ExpHeapStaticAllocatorILm2048ENS6_6detail12ObjectHolder24ObjectHolderAllocatorTagEEEEEE13ServiceObjectESP_E6Object7ReleaseEv = 0xbb1c4
_ZN2nn2sf4cmif6client6detail13CmifProxyImplINS_7account4baas12IManagerBaseENS2_15CmifDomainProxyINS0_4hipc6client38Hipc2ClientSessionManagedProxyKindBaseINSA_18Hipc2ProxyKindBaseILNS9_6detail11MessageTypeE4EEEEEEENS0_25StatelessAllocationPolicyINS0_22ExpHeapStaticAllocatorILm2048ENS5_6detail12ObjectHolder24ObjectHolderAllocatorTagEEEEENS6_14IAdministratorEE12GetProxyInfoEv = 0xbb238
_ZN2nn2sf4cmif6client6detail13CmifProxyImplINS_7account4baas12IManagerBaseENS2_15CmifDomainProxyINS0_4hipc6client38Hipc2ClientSessionManagedProxyKindBaseINSA_18Hipc2ProxyKindBaseILNS9_6detail11MessageTypeE4EEEEEEENS0_25StatelessAllocationPolicyINS0_22ExpHeapStaticAllocatorILm2048ENS5_6detail12ObjectHolder24ObjectHolderAllocatorTagEEEEENS6_14IAdministratorEE29_nn_sf_sync_CheckAvailabilityEv = 0xbb240
_ZN2nn2sf4cmif6client6detail13CmifProxyImplINS_7account4baas12IManagerBaseENS2_15CmifDomainProxyINS0_4hipc6client38Hipc2ClientSessionManagedProxyKindBaseINSA_18Hipc2ProxyKindBaseILNS9_6detail11MessageTypeE4EEEEEEENS0_25StatelessAllocationPolicyINS0_22ExpHeapStaticAllocatorILm2048ENS5_6detail12ObjectHolder24ObjectHolderAllocatorTagEEEEENS6_14IAdministratorEE24_nn_sf_sync_GetAccountIdENS0_3OutINS5_23NetworkServiceAccountIdEvEE = 0xbb260
_ZN2nn2sf4cmif6client6detail13CmifProxyImplINS_7account4baas12IManagerBaseENS2_15CmifDomainProxyINS0_4hipc6client38Hipc2ClientSessionManagedProxyKindBaseINSA_18Hipc2ProxyKindBaseILNS9_6detail11MessageTypeE4EEEEEEENS0_25StatelessAllocationPolicyINS0_22ExpHeapStaticAllocatorILm2048ENS5_6detail12ObjectHolder24ObjectHolderAllocatorTagEEEEENS6_14IAdministratorEE35_nn_sf_sync_EnsureIdTokenCacheAsyncENS0_3OutINS0_13SharedPointerINSK_13IAsyncContextEEEvEE = 0xbb280
_ZN2nn2sf4cmif6client6detail13CmifProxyImplINS_7account4baas12IManagerBaseENS2_15CmifDomainProxyINS0_4hipc6client38Hipc2ClientSessionManagedProxyKindBaseINSA_18Hipc2ProxyKindBaseILNS9_6detail11MessageTypeE4EEEEEEENS0_25StatelessAllocationPolicyINS0_22ExpHeapStaticAllocatorILm2048ENS5_6detail12ObjectHolder24ObjectHolderAllocatorTagEEEEENS6_14IAdministratorEE28_nn_sf_sync_LoadIdTokenCacheENS0_3OutIjvEERKNS0_9OutBufferE = 0xbb310
_ZN2nn2sf4cmif6client6detail13CmifProxyImplINS_7account4baas24IManagerForSystemServiceENS2_15CmifDomainProxyINS0_4hipc6client38Hipc2ClientSessionManagedProxyKindBaseINSA_18Hipc2ProxyKindBaseILNS9_6detail11MessageTypeE4EEEEEEENS0_25StatelessAllocationPolicyINS0_22ExpHeapStaticAllocatorILm2048ENS5_6detail12ObjectHolder24ObjectHolderAllocatorTagEEEEENS6_14IAdministratorEE42_nn_sf_sync_SetSystemProgramIdentificationERKNS5_27SystemProgramIdentificationEm = 0xbb338
_ZN2nn2sf4cmif6client6detail13CmifProxyImplINS_7account4baas24IManagerForSystemServiceENS2_15CmifDomainProxyINS0_4hipc6client38Hipc2ClientSessionManagedProxyKindBaseINSA_18Hipc2ProxyKindBaseILNS9_6detail11MessageTypeE4EEEEEEENS0_25StatelessAllocationPolicyINS0_22ExpHeapStaticAllocatorILm2048ENS5_6detail12ObjectHolder24ObjectHolderAllocatorTagEEEEENS6_14IAdministratorEE43_nn_sf_sync_GetServiceEntryRequirementCacheENS0_3OutIjvEENS_13ApplicationIdE = 0xbb364
_ZN2nn2sf4cmif6client6detail13CmifProxyImplINS_7account4baas24IManagerForSystemServiceENS2_15CmifDomainProxyINS0_4hipc6client38Hipc2ClientSessionManagedProxyKindBaseINSA_18Hipc2ProxyKindBaseILNS9_6detail11MessageTypeE4EEEEEEENS0_25StatelessAllocationPolicyINS0_22ExpHeapStaticAllocatorILm2048ENS5_6detail12ObjectHolder24ObjectHolderAllocatorTagEEEEENS6_14IAdministratorEE50_nn_sf_sync_InvalidateServiceEntryRequirementCacheENS_13ApplicationIdE = 0xbb384
_ZN2nn2sf4cmif6client6detail13CmifProxyImplINS_7account4baas24IManagerForSystemServiceENS2_15CmifDomainProxyINS0_4hipc6client38Hipc2ClientSessionManagedProxyKindBaseINSA_18Hipc2ProxyKindBaseILNS9_6detail11MessageTypeE4EEEEEEENS0_25StatelessAllocationPolicyINS0_22ExpHeapStaticAllocatorILm2048ENS5_6detail12ObjectHolder24ObjectHolderAllocatorTagEEEEENS6_14IAdministratorEE32_nn_sf_sync_InvalidateTokenCacheENS_13ApplicationIdE = 0xbb3a4
_ZN2nn2sf4cmif6client6detail13CmifProxyImplINS_7account4baas24IManagerForSystemServiceENS2_15CmifDomainProxyINS0_4hipc6client38Hipc2ClientSessionManagedProxyKindBaseINSA_18Hipc2ProxyKindBaseILNS9_6detail11MessageTypeE4EEEEEEENS0_25StatelessAllocationPolicyINS0_22ExpHeapStaticAllocatorILm2048ENS5_6detail12ObjectHolder24ObjectHolderAllocatorTagEEEEENS6_14IAdministratorEE32_nn_sf_sync_GetNintendoAccountIdENS0_3OutINS5_17NintendoAccountIdEvEE = 0xbb3c4
_ZN2nn2sf4cmif6client6detail13CmifProxyImplINS_7account4baas24IManagerForSystemServiceENS2_15CmifDomainProxyINS0_4hipc6client38Hipc2ClientSessionManagedProxyKindBaseINSA_18Hipc2ProxyKindBaseILNS9_6detail11MessageTypeE4EEEEEEENS0_25StatelessAllocationPolicyINS0_22ExpHeapStaticAllocatorILm2048ENS5_6detail12ObjectHolder24ObjectHolderAllocatorTagEEEEENS6_14IAdministratorEE47_nn_sf_sync_GetNintendoAccountUserResourceCacheENS0_3OutINS5_17NintendoAccountIdEvEENSR_INS5_3nas11NasUserBaseEvEERKNS0_9OutBufferE = 0xbb3e4
_ZN2nn2sf4cmif6client6detail13CmifProxyImplINS_7account4baas24IManagerForSystemServiceENS2_15CmifDomainProxyINS0_4hipc6client38Hipc2ClientSessionManagedProxyKindBaseINSA_18Hipc2ProxyKindBaseILNS9_6detail11MessageTypeE4EEEEEEENS0_25StatelessAllocationPolicyINS0_22ExpHeapStaticAllocatorILm2048ENS5_6detail12ObjectHolder24ObjectHolderAllocatorTagEEEEENS6_14IAdministratorEE56_nn_sf_sync_RefreshNintendoAccountUserResourceCacheAsyncENS0_3OutINS0_13SharedPointerINSK_13IAsyncContextEEEvEE = 0xbb40c
_ZN2nn2sf4cmif6client6detail13CmifProxyImplINS_7account4baas24IManagerForSystemServiceENS2_15CmifDomainProxyINS0_4hipc6client38Hipc2ClientSessionManagedProxyKindBaseINSA_18Hipc2ProxyKindBaseILNS9_6detail11MessageTypeE4EEEEEEENS0_25StatelessAllocationPolicyINS0_22ExpHeapStaticAllocatorILm2048ENS5_6detail12ObjectHolder24ObjectHolderAllocatorTagEEEEENS6_14IAdministratorEE72_nn_sf_sync_RefreshNintendoAccountUserResourceCacheAsyncIfSecondsElapsedENS0_3OutIbvEENSR_INS0_13SharedPointerINSK_13IAsyncContextEEEvEEj = 0xbb49c
_ZN2nn2sf4cmif6client6detail13CmifProxyImplINS_7account4baas24IManagerForSystemServiceENS2_15CmifDomainProxyINS0_4hipc6client38Hipc2ClientSessionManagedProxyKindBaseINSA_18Hipc2ProxyKindBaseILNS9_6detail11MessageTypeE4EEEEEEENS0_25StatelessAllocationPolicyINS0_22ExpHeapStaticAllocatorILm2048ENS5_6detail12ObjectHolder24ObjectHolderAllocatorTagEEEEENS6_14IAdministratorEE38_nn_sf_sync_CreateAuthorizationRequestENS0_3OutINS0_13SharedPointerINS5_3nas21IAuthorizationRequestEEEvEERKNST_13NasClientInfoERKNS5_45NintendoAccountAuthorizationRequestParametersEONS0_12NativeHandleEj = 0xbb544
_ZN2nn2sf4cmif6client6detail13CmifProxyImplINS_7account4baas14IAdministratorENS2_15CmifDomainProxyINS0_4hipc6client38Hipc2ClientSessionManagedProxyKindBaseINSA_18Hipc2ProxyKindBaseILNS9_6detail11MessageTypeE4EEEEEEENS0_25StatelessAllocationPolicyINS0_22ExpHeapStaticAllocatorILm2048ENS5_6detail12ObjectHolder24ObjectHolderAllocatorTagEEEEES7_E24_nn_sf_sync_IsRegisteredENS0_3OutIbvEE = 0xbb610
_ZN2nn2sf4cmif6client6detail13CmifProxyImplINS_7account4baas14IAdministratorENS2_15CmifDomainProxyINS0_4hipc6client38Hipc2ClientSessionManagedProxyKindBaseINSA_18Hipc2ProxyKindBaseILNS9_6detail11MessageTypeE4EEEEEEENS0_25StatelessAllocationPolicyINS0_22ExpHeapStaticAllocatorILm2048ENS5_6detail12ObjectHolder24ObjectHolderAllocatorTagEEEEES7_E25_nn_sf_sync_RegisterAsyncENS0_3OutINS0_13SharedPointerINSK_13IAsyncContextEEEvEE = 0xbb630
_ZN2nn2sf4cmif6client6detail13CmifProxyImplINS_7account4baas14IAdministratorENS2_15CmifDomainProxyINS0_4hipc6client38Hipc2ClientSessionManagedProxyKindBaseINSA_18Hipc2ProxyKindBaseILNS9_6detail11MessageTypeE4EEEEEEENS0_25StatelessAllocationPolicyINS0_22ExpHeapStaticAllocatorILm2048ENS5_6detail12ObjectHolder24ObjectHolderAllocatorTagEEEEES7_E27_nn_sf_sync_UnregisterAsyncENS0_3OutINS0_13SharedPointerINSK_13IAsyncContextEEEvEE = 0xbb6c0
_ZN2nn2sf4cmif6client6detail13CmifProxyImplINS_7account4baas14IAdministratorENS2_15CmifDomainProxyINS0_4hipc6client38Hipc2ClientSessionManagedProxyKindBaseINSA_18Hipc2ProxyKindBaseILNS9_6detail11MessageTypeE4EEEEEEENS0_25StatelessAllocationPolicyINS0_22ExpHeapStaticAllocatorILm2048ENS5_6detail12ObjectHolder24ObjectHolderAllocatorTagEEEEES7_E41_nn_sf_sync_DeleteRegistrationInfoLocallyEv = 0xbb750
_ZN2nn2sf4cmif6client6detail13CmifProxyImplINS_7account4baas14IAdministratorENS2_15CmifDomainProxyINS0_4hipc6client38Hipc2ClientSessionManagedProxyKindBaseINSA_18Hipc2ProxyKindBaseILNS9_6detail11MessageTypeE4EEEEEEENS0_25StatelessAllocationPolicyINS0_22ExpHeapStaticAllocatorILm2048ENS5_6detail12ObjectHolder24ObjectHolderAllocatorTagEEEEES7_E35_nn_sf_sync_SynchronizeProfileAsyncENS0_3OutINS0_13SharedPointerINSK_13IAsyncContextEEEvEE = 0xbb770
_ZN2nn2sf4cmif6client6detail13CmifProxyImplINS_7account4baas14IAdministratorENS2_15CmifDomainProxyINS0_4hipc6client38Hipc2ClientSessionManagedProxyKindBaseINSA_18Hipc2ProxyKindBaseILNS9_6detail11MessageTypeE4EEEEEEENS0_25StatelessAllocationPolicyINS0_22ExpHeapStaticAllocatorILm2048ENS5_6detail12ObjectHolder24ObjectHolderAllocatorTagEEEEES7_E30_nn_sf_sync_UploadProfileAsyncENS0_3OutINS0_13SharedPointerINSK_13IAsyncContextEEEvEE = 0xbb800
_ZN2nn2sf4cmif6client6detail13CmifProxyImplINS_7account4baas14IAdministratorENS2_15CmifDomainProxyINS0_4hipc6client38Hipc2ClientSessionManagedProxyKindBaseINSA_18Hipc2ProxyKindBaseILNS9_6detail11MessageTypeE4EEEEEEENS0_25StatelessAllocationPolicyINS0_22ExpHeapStaticAllocatorILm2048ENS5_6detail12ObjectHolder24ObjectHolderAllocatorTagEEEEES7_E51_nn_sf_sync_SynchronizeProfileAsyncIfSecondsElapsedENS0_3OutIbvEENSQ_INS0_13SharedPointerINSK_13IAsyncContextEEEvEEj = 0xbb890
_ZN2nn2sf4cmif6client6detail13CmifProxyImplINS_7account4baas14IAdministratorENS2_15CmifDomainProxyINS0_4hipc6client38Hipc2ClientSessionManagedProxyKindBaseINSA_18Hipc2ProxyKindBaseILNS9_6detail11MessageTypeE4EEEEEEENS0_25StatelessAllocationPolicyINS0_22ExpHeapStaticAllocatorILm2048ENS5_6detail12ObjectHolder24ObjectHolderAllocatorTagEEEEES7_E39_nn_sf_sync_IsLinkedWithNintendoAccountENS0_3OutIbvEE = 0xbb938
_ZN2nn2sf4cmif6client6detail13CmifProxyImplINS_7account4baas14IAdministratorENS2_15CmifDomainProxyINS0_4hipc6client38Hipc2ClientSessionManagedProxyKindBaseINSA_18Hipc2ProxyKindBaseILNS9_6detail11MessageTypeE4EEEEEEENS0_25StatelessAllocationPolicyINS0_22ExpHeapStaticAllocatorILm2048ENS5_6detail12ObjectHolder24ObjectHolderAllocatorTagEEEEES7_E52_nn_sf_sync_CreateProcedureToLinkWithNintendoAccountENS0_3OutINS0_13SharedPointerINS5_3nas40IOAuthProcedureForNintendoAccountLinkageEEEvEE = 0xbb958
_ZN2nn2sf4cmif6client6detail13CmifProxyImplINS_7account4baas14IAdministratorENS2_15CmifDomainProxyINS0_4hipc6client38Hipc2ClientSessionManagedProxyKindBaseINSA_18Hipc2ProxyKindBaseILNS9_6detail11MessageTypeE4EEEEEEENS0_25StatelessAllocationPolicyINS0_22ExpHeapStaticAllocatorILm2048ENS5_6detail12ObjectHolder24ObjectHolderAllocatorTagEEEEES7_E52_nn_sf_sync_ResumeProcedureToLinkWithNintendoAccountENS0_3OutINS0_13SharedPointerINS5_3nas40IOAuthProcedureForNintendoAccountLinkageEEEvEERKNSK_4UuidE = 0xbb9e8
_ZN2nn2sf4cmif6client6detail13CmifProxyImplINS_7account4baas14IAdministratorENS2_15CmifDomainProxyINS0_4hipc6client38Hipc2ClientSessionManagedProxyKindBaseINSA_18Hipc2ProxyKindBaseILNS9_6detail11MessageTypeE4EEEEEEENS0_25StatelessAllocationPolicyINS0_22ExpHeapStaticAllocatorILm2048ENS5_6detail12ObjectHolder24ObjectHolderAllocatorTagEEEEES7_E64_nn_sf_sync_CreateProcedureToUpdateLinkageStateOfNintendoAccountENS0_3OutINS0_13SharedPointerINS5_4http15IOAuthProcedureEEEvEE = 0xbba84
_ZN2nn2sf4cmif6client6detail13CmifProxyImplINS_7account4baas14IAdministratorENS2_15CmifDomainProxyINS0_4hipc6client38Hipc2ClientSessionManagedProxyKindBaseINSA_18Hipc2ProxyKindBaseILNS9_6detail11MessageTypeE4EEEEEEENS0_25StatelessAllocationPolicyINS0_22ExpHeapStaticAllocatorILm2048ENS5_6detail12ObjectHolder24ObjectHolderAllocatorTagEEEEES7_E64_nn_sf_sync_ResumeProcedureToUpdateLinkageStateOfNintendoAccountENS0_3OutINS0_13SharedPointerINS5_4http15IOAuthProcedureEEEvEERKNSK_4UuidE = 0xbbb14
_ZN2nn2sf4cmif6client6detail13CmifProxyImplINS_7account4baas14IAdministratorENS2_15CmifDomainProxyINS0_4hipc6client38Hipc2ClientSessionManagedProxyKindBaseINSA_18Hipc2ProxyKindBaseILNS9_6detail11MessageTypeE4EEEEEEENS0_25StatelessAllocationPolicyINS0_22ExpHeapStaticAllocatorILm2048ENS5_6detail12ObjectHolder24ObjectHolderAllocatorTagEEEEES7_E56_nn_sf_sync_CreateProcedureToLinkNnidWithNintendoAccountENS0_3OutINS0_13SharedPointerINS5_4http15IOAuthProcedureEEEvEE = 0xbbbb0
_ZN2nn2sf4cmif6client6detail13CmifProxyImplINS_7account4baas14IAdministratorENS2_15CmifDomainProxyINS0_4hipc6client38Hipc2ClientSessionManagedProxyKindBaseINSA_18Hipc2ProxyKindBaseILNS9_6detail11MessageTypeE4EEEEEEENS0_25StatelessAllocationPolicyINS0_22ExpHeapStaticAllocatorILm2048ENS5_6detail12ObjectHolder24ObjectHolderAllocatorTagEEEEES7_E56_nn_sf_sync_ResumeProcedureToLinkNnidWithNintendoAccountENS0_3OutINS0_13SharedPointerINS5_4http15IOAuthProcedureEEEvEERKNSK_4UuidE = 0xbbc40
_ZN2nn2sf4cmif6client6detail13CmifProxyImplINS_7account4baas14IAdministratorENS2_15CmifDomainProxyINS0_4hipc6client38Hipc2ClientSessionManagedProxyKindBaseINSA_18Hipc2ProxyKindBaseILNS9_6detail11MessageTypeE4EEEEEEENS0_25StatelessAllocationPolicyINS0_22ExpHeapStaticAllocatorILm2048ENS5_6detail12ObjectHolder24ObjectHolderAllocatorTagEEEEES7_E77_nn_sf_sync_ProxyProcedureToAcquireApplicationAuthorizationForNintendoAccountENS0_3OutINS0_13SharedPointerINS5_4http15IOAuthProcedureEEEvEERKNSK_4UuidE = 0xbbcdc
_ZN2nn2sf4cmif6client6detail13CmifProxyImplINS_7account4baas14IAdministratorENS2_15CmifDomainProxyINS0_4hipc6client38Hipc2ClientSessionManagedProxyKindBaseINSA_18Hipc2ProxyKindBaseILNS9_6detail11MessageTypeE4EEEEEEENS0_25StatelessAllocationPolicyINS0_22ExpHeapStaticAllocatorILm2048ENS5_6detail12ObjectHolder24ObjectHolderAllocatorTagEEEEES7_E43_nn_sf_sync_DebugUnlinkNintendoAccountAsyncENS0_3OutINS0_13SharedPointerINSK_13IAsyncContextEEEvEE = 0xbbd78
_ZN2nn2sf4cmif6client6detail13CmifProxyImplINS_7account4baas14IAdministratorENS2_15CmifDomainProxyINS0_4hipc6client38Hipc2ClientSessionManagedProxyKindBaseINSA_18Hipc2ProxyKindBaseILNS9_6detail11MessageTypeE4EEEEEEENS0_25StatelessAllocationPolicyINS0_22ExpHeapStaticAllocatorILm2048ENS5_6detail12ObjectHolder24ObjectHolderAllocatorTagEEEEES7_E43_nn_sf_sync_DebugSetAvailabilityErrorDetailEj = 0xbbe08
_ZN2nn2sf4cmif6client6detail13CmifProxyImplINS_7account4baas12IManagerBaseENS2_15CmifDomainProxyINS0_4hipc6client38Hipc2ClientSessionManagedProxyKindBaseINSA_18Hipc2ProxyKindBaseILNS9_6detail11MessageTypeE4EEEEEEENS0_25StatelessAllocationPolicyINS0_22ExpHeapStaticAllocatorILm2048ENS5_6detail12ObjectHolder24ObjectHolderAllocatorTagEEEEENS6_14IAdministratorEE17GetCmifBaseObjectEv = 0xbbe2c
_ZThn32_N2nn2sf4cmif6client6detail13CmifProxyImplINS_7account4baas12IManagerBaseENS2_15CmifDomainProxyINS0_4hipc6client38Hipc2ClientSessionManagedProxyKindBaseINSA_18Hipc2ProxyKindBaseILNS9_6detail11MessageTypeE4EEEEEEENS0_25StatelessAllocationPolicyINS0_22ExpHeapStaticAllocatorILm2048ENS5_6detail12ObjectHolder24ObjectHolderAllocatorTagEEEEENS6_14IAdministratorEE17GetCmifBaseObjectEv = 0xbbe3c
_ZN2nn2sf4cmif6client32GetClientProcessorWithObjectBaseINS2_15CmifDomainProxyINS0_4hipc6client38Hipc2ClientSessionManagedProxyKindBaseINS6_18Hipc2ProxyKindBaseILNS5_6detail11MessageTypeE4EEEEEEEE14ObjectAssignerINS0_25StatelessAllocationPolicyINS0_22ExpHeapStaticAllocatorILm2048ENS_7account6detail12ObjectHolder24ObjectHolderAllocatorTagEEEEENS0_6detail23StatelessDummyAllocatorEE14AllocateObjectINSI_3nas40IOAuthProcedureForNintendoAccountLinkageEEEvi = 0xbbe44
_ZN2nn2sf6detail39ObjectImplFactoryWithStatelessAllocatorINS0_4cmif6client16CmifProxyFactoryINS_7account3nas40IOAuthProcedureForNintendoAccountLinkageENS4_15CmifDomainProxyINS0_4hipc6client38Hipc2ClientSessionManagedProxyKindBaseINSB_18Hipc2ProxyKindBaseILNSA_6detail11MessageTypeE4EEEEEEENS0_25StatelessAllocationPolicyINS0_22ExpHeapStaticAllocatorILm2048ENS6_6detail12ObjectHolder24ObjectHolderAllocatorTagEEEEEE13ServiceObjectESP_E6Object12AddReferenceEv = 0xbbef8
_ZN2nn2sf6detail39ObjectImplFactoryWithStatelessAllocatorINS0_4cmif6client16CmifProxyFactoryINS_7account3nas40IOAuthProcedureForNintendoAccountLinkageENS4_15CmifDomainProxyINS0_4hipc6client38Hipc2ClientSessionManagedProxyKindBaseINSB_18Hipc2ProxyKindBaseILNSA_6detail11MessageTypeE4EEEEEEENS0_25StatelessAllocationPolicyINS0_22ExpHeapStaticAllocatorILm2048ENS6_6detail12ObjectHolder24ObjectHolderAllocatorTagEEEEEE13ServiceObjectESP_E6Object7ReleaseEv = 0xbbf00
_ZN2nn2sf4cmif6client6detail13CmifProxyImplINS_7account4http15IOAuthProcedureENS2_15CmifDomainProxyINS0_4hipc6client38Hipc2ClientSessionManagedProxyKindBaseINSA_18Hipc2ProxyKindBaseILNS9_6detail11MessageTypeE4EEEEEEENS0_25StatelessAllocationPolicyINS0_22ExpHeapStaticAllocatorILm2048ENS5_6detail12ObjectHolder24ObjectHolderAllocatorTagEEEEENS5_3nas40IOAuthProcedureForNintendoAccountLinkageEE12GetProxyInfoEv = 0xbbf74
_ZN2nn2sf4cmif6client6detail13CmifProxyImplINS_7account4http15IOAuthProcedureENS2_15CmifDomainProxyINS0_4hipc6client38Hipc2ClientSessionManagedProxyKindBaseINSA_18Hipc2ProxyKindBaseILNS9_6detail11MessageTypeE4EEEEEEENS0_25StatelessAllocationPolicyINS0_22ExpHeapStaticAllocatorILm2048ENS5_6detail12ObjectHolder24ObjectHolderAllocatorTagEEEEENS5_3nas40IOAuthProcedureForNintendoAccountLinkageEE24_nn_sf_sync_PrepareAsyncENS0_3OutINS0_13SharedPointerINSK_13IAsyncContextEEEvEE = 0xbbf7c
_ZN2nn2sf4cmif6client6detail13CmifProxyImplINS_7account4http15IOAuthProcedureENS2_15CmifDomainProxyINS0_4hipc6client38Hipc2ClientSessionManagedProxyKindBaseINSA_18Hipc2ProxyKindBaseILNS9_6detail11MessageTypeE4EEEEEEENS0_25StatelessAllocationPolicyINS0_22ExpHeapStaticAllocatorILm2048ENS5_6detail12ObjectHolder24ObjectHolderAllocatorTagEEEEENS5_3nas40IOAuthProcedureForNintendoAccountLinkageEE22_nn_sf_sync_GetRequestENS0_3OutINS5_10RequestUrlEvEENSS_INS5_11CallbackUriEvEE = 0xbc00c
_ZN2nn2sf4cmif6client6detail13CmifProxyImplINS_7account4http15IOAuthProcedureENS2_15CmifDomainProxyINS0_4hipc6client38Hipc2ClientSessionManagedProxyKindBaseINSA_18Hipc2ProxyKindBaseILNS9_6detail11MessageTypeE4EEEEEEENS0_25StatelessAllocationPolicyINS0_22ExpHeapStaticAllocatorILm2048ENS5_6detail12ObjectHolder24ObjectHolderAllocatorTagEEEEENS5_3nas40IOAuthProcedureForNintendoAccountLinkageEE25_nn_sf_sync_ApplyResponseERKNS0_7InArrayIcEE = 0xbc03c
_ZN2nn2sf4cmif6client6detail13CmifProxyImplINS_7account4http15IOAuthProcedureENS2_15CmifDomainProxyINS0_4hipc6client38Hipc2ClientSessionManagedProxyKindBaseINSA_18Hipc2ProxyKindBaseILNS9_6detail11MessageTypeE4EEEEEEENS0_25StatelessAllocationPolicyINS0_22ExpHeapStaticAllocatorILm2048ENS5_6detail12ObjectHolder24ObjectHolderAllocatorTagEEEEENS5_3nas40IOAuthProcedureForNintendoAccountLinkageEE30_nn_sf_sync_ApplyResponseAsyncENS0_3OutINS0_13SharedPointerINSK_13IAsyncContextEEEvEERKNS0_7InArrayIcEE = 0xbc064
_ZN2nn2sf4cmif6client6detail13CmifProxyImplINS_7account4http15IOAuthProcedureENS2_15CmifDomainProxyINS0_4hipc6client38Hipc2ClientSessionManagedProxyKindBaseINSA_18Hipc2ProxyKindBaseILNS9_6detail11MessageTypeE4EEEEEEENS0_25StatelessAllocationPolicyINS0_22ExpHeapStaticAllocatorILm2048ENS5_6detail12ObjectHolder24ObjectHolderAllocatorTagEEEEENS5_3nas40IOAuthProcedureForNintendoAccountLinkageEE19_nn_sf_sync_SuspendENS0_3OutINSK_4UuidEvEE = 0xbc100
_ZN2nn2sf4cmif6client6detail13CmifProxyImplINS_7account3nas40IOAuthProcedureForNintendoAccountLinkageENS2_15CmifDomainProxyINS0_4hipc6client38Hipc2ClientSessionManagedProxyKindBaseINSA_18Hipc2ProxyKindBaseILNS9_6detail11MessageTypeE4EEEEEEENS0_25StatelessAllocationPolicyINS0_22ExpHeapStaticAllocatorILm2048ENS5_6detail12ObjectHolder24ObjectHolderAllocatorTagEEEEES7_E31_nn_sf_sync_GetRequestWithThemeENS0_3OutINS5_10RequestUrlEvEENSQ_INS5_11CallbackUriEvEEi = 0xbc120
_ZN2nn2sf4cmif6client6detail13CmifProxyImplINS_7account3nas40IOAuthProcedureForNintendoAccountLinkageENS2_15CmifDomainProxyINS0_4hipc6client38Hipc2ClientSessionManagedProxyKindBaseINSA_18Hipc2ProxyKindBaseILNS9_6detail11MessageTypeE4EEEEEEENS0_25StatelessAllocationPolicyINS0_22ExpHeapStaticAllocatorILm2048ENS5_6detail12ObjectHolder24ObjectHolderAllocatorTagEEEEES7_E43_nn_sf_sync_IsNetworkServiceAccountReplacedENS0_3OutIbvEE = 0xbc154
_ZN2nn2sf4cmif6client6detail13CmifProxyImplINS_7account3nas40IOAuthProcedureForNintendoAccountLinkageENS2_15CmifDomainProxyINS0_4hipc6client38Hipc2ClientSessionManagedProxyKindBaseINSA_18Hipc2ProxyKindBaseILNS9_6detail11MessageTypeE4EEEEEEENS0_25StatelessAllocationPolicyINS0_22ExpHeapStaticAllocatorILm2048ENS5_6detail12ObjectHolder24ObjectHolderAllocatorTagEEEEES7_E50_nn_sf_sync_GetUrlForIntroductionOfExtraMembershipENS0_3OutINS5_10RequestUrlEvEE = 0xbc174
_ZN2nn2sf4cmif6client6detail13CmifProxyImplINS_7account4http15IOAuthProcedureENS2_15CmifDomainProxyINS0_4hipc6client38Hipc2ClientSessionManagedProxyKindBaseINSA_18Hipc2ProxyKindBaseILNS9_6detail11MessageTypeE4EEEEEEENS0_25StatelessAllocationPolicyINS0_22ExpHeapStaticAllocatorILm2048ENS5_6detail12ObjectHolder24ObjectHolderAllocatorTagEEEEENS5_3nas40IOAuthProcedureForNintendoAccountLinkageEE17GetCmifBaseObjectEv = 0xbc198
_ZThn32_N2nn2sf4cmif6client6detail13CmifProxyImplINS_7account4http15IOAuthProcedureENS2_15CmifDomainProxyINS0_4hipc6client38Hipc2ClientSessionManagedProxyKindBaseINSA_18Hipc2ProxyKindBaseILNS9_6detail11MessageTypeE4EEEEEEENS0_25StatelessAllocationPolicyINS0_22ExpHeapStaticAllocatorILm2048ENS5_6detail12ObjectHolder24ObjectHolderAllocatorTagEEEEENS5_3nas40IOAuthProcedureForNintendoAccountLinkageEE17GetCmifBaseObjectEv = 0xbc1a8
_ZN2nn2sf4cmif6client34CmifDomainProxyClientCoreProcessorINS0_4hipc6client38Hipc2ClientSessionManagedProxyKindBaseINS5_18Hipc2ProxyKindBaseILNS4_6detail11MessageTypeE4EEEEENS1_6detail14CoreMethodInfoINSt3__15tupleIJNSC_18BufferArgumentInfoILi0ELi26ELm4096EEENSG_ILi1ELi26ELm256EEEEEELm0ELm0ELb0EEESJ_E7ProcessEPNS2_23CmifDomainClientMessageISB_E15ProxyBaseObjectENS2_24BufferClientArgumentTypeESQ_j = 0xbc1b0
_ZN2nn2sf4cmif6client34CmifDomainProxyClientCoreProcessorINS0_4hipc6client38Hipc2ClientSessionManagedProxyKindBaseINS5_18Hipc2ProxyKindBaseILNS4_6detail11MessageTypeE4EEEEENS1_6detail14CoreMethodInfoINSt3__15tupleIJNSC_18BufferArgumentInfoILi0ELi9ELm0EEEEEELm0ELm0ELb0EEESI_E7ProcessEPNS2_23CmifDomainClientMessageISB_E15ProxyBaseObjectENS2_24BufferClientArgumentTypeEj = 0xbc380
_ZN2nn2sf4cmif6client34CmifDomainProxyClientCoreProcessorINS0_4hipc6client38Hipc2ClientSessionManagedProxyKindBaseINS5_18Hipc2ProxyKindBaseILNS4_6detail11MessageTypeE4EEEEENS1_6detail14CoreMethodInfoINSt3__15tupleIJNSC_21OutObjectArgumentInfoILi0ELi0EEENSC_18BufferArgumentInfoILi0ELi9ELm0EEEEEELm0ELm0ELb0EEESK_E21ProcessWithOutObjectsEPNS2_23CmifDomainClientMessageISB_E15ProxyBaseObjectENS2_27OutObjectClientArgumentTypeENS2_24BufferClientArgumentTypeEjPNS0_13SharedPointerINS0_14IServiceObjectEEE = 0xbc53c
_ZN2nn2sf4cmif6client34CmifDomainProxyClientCoreProcessorINS0_4hipc6client38Hipc2ClientSessionManagedProxyKindBaseINS5_18Hipc2ProxyKindBaseILNS4_6detail11MessageTypeE4EEEEENS1_6detail14CoreMethodInfoINSt3__15tupleIJNSC_18BufferArgumentInfoILi0ELi26ELm4096EEENSG_ILi1ELi26ELm256EEENSC_17InRawArgumentInfoILm4ELm4ELl0EEEEEELm4ELm0ELb0EEESL_E7ProcessEPNS2_23CmifDomainClientMessageISB_E15ProxyBaseObjectENS2_24BufferClientArgumentTypeESS_NS2_23InRawClientArgumentTypeILm4ELm4EvEEj = 0xbc790
_ZN2nn2sf4cmif6client34CmifDomainProxyClientCoreProcessorINS0_4hipc6client38Hipc2ClientSessionManagedProxyKindBaseINS5_18Hipc2ProxyKindBaseILNS4_6detail11MessageTypeE4EEEEENS1_6detail14CoreMethodInfoINSt3__15tupleIJNSC_18BufferArgumentInfoILi0ELi26ELm4096EEEEEELm0ELm0ELb0EEESI_E7ProcessEPNS2_23CmifDomainClientMessageISB_E15ProxyBaseObjectENS2_24BufferClientArgumentTypeEj = 0xbc96c
_ZN2nn2sf4cmif6client34CmifDomainProxyClientCoreProcessorINS0_4hipc6client38Hipc2ClientSessionManagedProxyKindBaseINS5_18Hipc2ProxyKindBaseILNS4_6detail11MessageTypeE4EEEEENS1_6detail14CoreMethodInfoINSt3__15tupleIJNSC_21OutObjectArgumentInfoILi0ELi0EEENSC_17InRawArgumentInfoILm16ELm4ELl0EEEEEELm16ELm0ELb0EEESK_E21ProcessWithOutObjectsEPNS2_23CmifDomainClientMessageISB_E15ProxyBaseObjectENS2_27OutObjectClientArgumentTypeENS2_23InRawClientArgumentTypeILm16ELm4EvEEjPNS0_13SharedPointerINS0_14IServiceObjectEEE = 0xbcb24
_ZN2nn2sf4cmif6client32GetClientProcessorWithObjectBaseINS2_15CmifDomainProxyINS0_4hipc6client38Hipc2ClientSessionManagedProxyKindBaseINS6_18Hipc2ProxyKindBaseILNS5_6detail11MessageTypeE4EEEEEEEE14ObjectAssignerINS0_25StatelessAllocationPolicyINS0_22ExpHeapStaticAllocatorILm2048ENS_7account6detail12ObjectHolder24ObjectHolderAllocatorTagEEEEENS0_6detail23StatelessDummyAllocatorEE14AllocateObjectINSI_4http15IOAuthProcedureEEEvi = 0xbcd04
_ZN2nn2sf6detail39ObjectImplFactoryWithStatelessAllocatorINS0_4cmif6client16CmifProxyFactoryINS_7account4http15IOAuthProcedureENS4_15CmifDomainProxyINS0_4hipc6client38Hipc2ClientSessionManagedProxyKindBaseINSB_18Hipc2ProxyKindBaseILNSA_6detail11MessageTypeE4EEEEEEENS0_25StatelessAllocationPolicyINS0_22ExpHeapStaticAllocatorILm2048ENS6_6detail12ObjectHolder24ObjectHolderAllocatorTagEEEEEE13ServiceObjectESP_E6Object12AddReferenceEv = 0xbcdb8
_ZN2nn2sf6detail39ObjectImplFactoryWithStatelessAllocatorINS0_4cmif6client16CmifProxyFactoryINS_7account4http15IOAuthProcedureENS4_15CmifDomainProxyINS0_4hipc6client38Hipc2ClientSessionManagedProxyKindBaseINSB_18Hipc2ProxyKindBaseILNSA_6detail11MessageTypeE4EEEEEEENS0_25StatelessAllocationPolicyINS0_22ExpHeapStaticAllocatorILm2048ENS6_6detail12ObjectHolder24ObjectHolderAllocatorTagEEEEEE13ServiceObjectESP_E6Object7ReleaseEv = 0xbcdc0
_ZN2nn2sf4cmif6client6detail13CmifProxyImplINS_7account4http15IOAuthProcedureENS2_15CmifDomainProxyINS0_4hipc6client38Hipc2ClientSessionManagedProxyKindBaseINSA_18Hipc2ProxyKindBaseILNS9_6detail11MessageTypeE4EEEEEEENS0_25StatelessAllocationPolicyINS0_22ExpHeapStaticAllocatorILm2048ENS5_6detail12ObjectHolder24ObjectHolderAllocatorTagEEEEES7_E12GetProxyInfoEv = 0xbce34
_ZN2nn2sf4cmif6client6detail13CmifProxyImplINS_7account4http15IOAuthProcedureENS2_15CmifDomainProxyINS0_4hipc6client38Hipc2ClientSessionManagedProxyKindBaseINSA_18Hipc2ProxyKindBaseILNS9_6detail11MessageTypeE4EEEEEEENS0_25StatelessAllocationPolicyINS0_22ExpHeapStaticAllocatorILm2048ENS5_6detail12ObjectHolder24ObjectHolderAllocatorTagEEEEES7_E24_nn_sf_sync_PrepareAsyncENS0_3OutINS0_13SharedPointerINSK_13IAsyncContextEEEvEE = 0xbce3c
_ZN2nn2sf4cmif6client6detail13CmifProxyImplINS_7account4http15IOAuthProcedureENS2_15CmifDomainProxyINS0_4hipc6client38Hipc2ClientSessionManagedProxyKindBaseINSA_18Hipc2ProxyKindBaseILNS9_6detail11MessageTypeE4EEEEEEENS0_25StatelessAllocationPolicyINS0_22ExpHeapStaticAllocatorILm2048ENS5_6detail12ObjectHolder24ObjectHolderAllocatorTagEEEEES7_E22_nn_sf_sync_GetRequestENS0_3OutINS5_10RequestUrlEvEENSQ_INS5_11CallbackUriEvEE = 0xbcecc
_ZN2nn2sf4cmif6client6detail13CmifProxyImplINS_7account4http15IOAuthProcedureENS2_15CmifDomainProxyINS0_4hipc6client38Hipc2ClientSessionManagedProxyKindBaseINSA_18Hipc2ProxyKindBaseILNS9_6detail11MessageTypeE4EEEEEEENS0_25StatelessAllocationPolicyINS0_22ExpHeapStaticAllocatorILm2048ENS5_6detail12ObjectHolder24ObjectHolderAllocatorTagEEEEES7_E25_nn_sf_sync_ApplyResponseERKNS0_7InArrayIcEE = 0xbcefc
_ZN2nn2sf4cmif6client6detail13CmifProxyImplINS_7account4http15IOAuthProcedureENS2_15CmifDomainProxyINS0_4hipc6client38Hipc2ClientSessionManagedProxyKindBaseINSA_18Hipc2ProxyKindBaseILNS9_6detail11MessageTypeE4EEEEEEENS0_25StatelessAllocationPolicyINS0_22ExpHeapStaticAllocatorILm2048ENS5_6detail12ObjectHolder24ObjectHolderAllocatorTagEEEEES7_E30_nn_sf_sync_ApplyResponseAsyncENS0_3OutINS0_13SharedPointerINSK_13IAsyncContextEEEvEERKNS0_7InArrayIcEE = 0xbcf24
_ZN2nn2sf4cmif6client6detail13CmifProxyImplINS_7account4http15IOAuthProcedureENS2_15CmifDomainProxyINS0_4hipc6client38Hipc2ClientSessionManagedProxyKindBaseINSA_18Hipc2ProxyKindBaseILNS9_6detail11MessageTypeE4EEEEEEENS0_25StatelessAllocationPolicyINS0_22ExpHeapStaticAllocatorILm2048ENS5_6detail12ObjectHolder24ObjectHolderAllocatorTagEEEEES7_E19_nn_sf_sync_SuspendENS0_3OutINSK_4UuidEvEE = 0xbcfc0
_ZN2nn2sf4cmif6client6detail13CmifProxyImplINS_7account4http15IOAuthProcedureENS2_15CmifDomainProxyINS0_4hipc6client38Hipc2ClientSessionManagedProxyKindBaseINSA_18Hipc2ProxyKindBaseILNS9_6detail11MessageTypeE4EEEEEEENS0_25StatelessAllocationPolicyINS0_22ExpHeapStaticAllocatorILm2048ENS5_6detail12ObjectHolder24ObjectHolderAllocatorTagEEEEES7_E17GetCmifBaseObjectEv = 0xbcfe0
_ZThn32_N2nn2sf4cmif6client6detail13CmifProxyImplINS_7account4http15IOAuthProcedureENS2_15CmifDomainProxyINS0_4hipc6client38Hipc2ClientSessionManagedProxyKindBaseINSA_18Hipc2ProxyKindBaseILNS9_6detail11MessageTypeE4EEEEEEENS0_25StatelessAllocationPolicyINS0_22ExpHeapStaticAllocatorILm2048ENS5_6detail12ObjectHolder24ObjectHolderAllocatorTagEEEEES7_E17GetCmifBaseObjectEv = 0xbcff0
_ZN2nn2sf4cmif6client32GetClientProcessorWithObjectBaseINS2_15CmifDomainProxyINS0_4hipc6client38Hipc2ClientSessionManagedProxyKindBaseINS6_18Hipc2ProxyKindBaseILNS5_6detail11MessageTypeE4EEEEEEEE14ObjectAssignerINS0_25StatelessAllocationPolicyINS0_22ExpHeapStaticAllocatorILm2048ENS_7account6detail12ObjectHolder24ObjectHolderAllocatorTagEEEEENS0_6detail23StatelessDummyAllocatorEE14AllocateObjectINSI_3nas29IOAuthProcedureForExternalNsaEEEvi = 0xbcff8
_ZN2nn2sf6detail39ObjectImplFactoryWithStatelessAllocatorINS0_4cmif6client16CmifProxyFactoryINS_7account3nas29IOAuthProcedureForExternalNsaENS4_15CmifDomainProxyINS0_4hipc6client38Hipc2ClientSessionManagedProxyKindBaseINSB_18Hipc2ProxyKindBaseILNSA_6detail11MessageTypeE4EEEEEEENS0_25StatelessAllocationPolicyINS0_22ExpHeapStaticAllocatorILm2048ENS6_6detail12ObjectHolder24ObjectHolderAllocatorTagEEEEEE13ServiceObjectESP_E6Object12AddReferenceEv = 0xbd0ac
_ZN2nn2sf6detail39ObjectImplFactoryWithStatelessAllocatorINS0_4cmif6client16CmifProxyFactoryINS_7account3nas29IOAuthProcedureForExternalNsaENS4_15CmifDomainProxyINS0_4hipc6client38Hipc2ClientSessionManagedProxyKindBaseINSB_18Hipc2ProxyKindBaseILNSA_6detail11MessageTypeE4EEEEEEENS0_25StatelessAllocationPolicyINS0_22ExpHeapStaticAllocatorILm2048ENS6_6detail12ObjectHolder24ObjectHolderAllocatorTagEEEEEE13ServiceObjectESP_E6Object7ReleaseEv = 0xbd0b4
_ZN2nn2sf4cmif6client6detail13CmifProxyImplINS_7account4http15IOAuthProcedureENS2_15CmifDomainProxyINS0_4hipc6client38Hipc2ClientSessionManagedProxyKindBaseINSA_18Hipc2ProxyKindBaseILNS9_6detail11MessageTypeE4EEEEEEENS0_25StatelessAllocationPolicyINS0_22ExpHeapStaticAllocatorILm2048ENS5_6detail12ObjectHolder24ObjectHolderAllocatorTagEEEEENS5_3nas29IOAuthProcedureForExternalNsaEE12GetProxyInfoEv = 0xbd128
_ZN2nn2sf4cmif6client6detail13CmifProxyImplINS_7account4http15IOAuthProcedureENS2_15CmifDomainProxyINS0_4hipc6client38Hipc2ClientSessionManagedProxyKindBaseINSA_18Hipc2ProxyKindBaseILNS9_6detail11MessageTypeE4EEEEEEENS0_25StatelessAllocationPolicyINS0_22ExpHeapStaticAllocatorILm2048ENS5_6detail12ObjectHolder24ObjectHolderAllocatorTagEEEEENS5_3nas29IOAuthProcedureForExternalNsaEE24_nn_sf_sync_PrepareAsyncENS0_3OutINS0_13SharedPointerINSK_13IAsyncContextEEEvEE = 0xbd130
_ZN2nn2sf4cmif6client6detail13CmifProxyImplINS_7account4http15IOAuthProcedureENS2_15CmifDomainProxyINS0_4hipc6client38Hipc2ClientSessionManagedProxyKindBaseINSA_18Hipc2ProxyKindBaseILNS9_6detail11MessageTypeE4EEEEEEENS0_25StatelessAllocationPolicyINS0_22ExpHeapStaticAllocatorILm2048ENS5_6detail12ObjectHolder24ObjectHolderAllocatorTagEEEEENS5_3nas29IOAuthProcedureForExternalNsaEE22_nn_sf_sync_GetRequestENS0_3OutINS5_10RequestUrlEvEENSS_INS5_11CallbackUriEvEE = 0xbd1c0
_ZN2nn2sf4cmif6client6detail13CmifProxyImplINS_7account4http15IOAuthProcedureENS2_15CmifDomainProxyINS0_4hipc6client38Hipc2ClientSessionManagedProxyKindBaseINSA_18Hipc2ProxyKindBaseILNS9_6detail11MessageTypeE4EEEEEEENS0_25StatelessAllocationPolicyINS0_22ExpHeapStaticAllocatorILm2048ENS5_6detail12ObjectHolder24ObjectHolderAllocatorTagEEEEENS5_3nas29IOAuthProcedureForExternalNsaEE25_nn_sf_sync_ApplyResponseERKNS0_7InArrayIcEE = 0xbd1f0
_ZN2nn2sf4cmif6client6detail13CmifProxyImplINS_7account4http15IOAuthProcedureENS2_15CmifDomainProxyINS0_4hipc6client38Hipc2ClientSessionManagedProxyKindBaseINSA_18Hipc2ProxyKindBaseILNS9_6detail11MessageTypeE4EEEEEEENS0_25StatelessAllocationPolicyINS0_22ExpHeapStaticAllocatorILm2048ENS5_6detail12ObjectHolder24ObjectHolderAllocatorTagEEEEENS5_3nas29IOAuthProcedureForExternalNsaEE30_nn_sf_sync_ApplyResponseAsyncENS0_3OutINS0_13SharedPointerINSK_13IAsyncContextEEEvEERKNS0_7InArrayIcEE = 0xbd218
_ZN2nn2sf4cmif6client6detail13CmifProxyImplINS_7account4http15IOAuthProcedureENS2_15CmifDomainProxyINS0_4hipc6client38Hipc2ClientSessionManagedProxyKindBaseINSA_18Hipc2ProxyKindBaseILNS9_6detail11MessageTypeE4EEEEEEENS0_25StatelessAllocationPolicyINS0_22ExpHeapStaticAllocatorILm2048ENS5_6detail12ObjectHolder24ObjectHolderAllocatorTagEEEEENS5_3nas29IOAuthProcedureForExternalNsaEE19_nn_sf_sync_SuspendENS0_3OutINSK_4UuidEvEE = 0xbd2b4
_ZN2nn2sf4cmif6client6detail13CmifProxyImplINS_7account3nas29IOAuthProcedureForExternalNsaENS2_15CmifDomainProxyINS0_4hipc6client38Hipc2ClientSessionManagedProxyKindBaseINSA_18Hipc2ProxyKindBaseILNS9_6detail11MessageTypeE4EEEEEEENS0_25StatelessAllocationPolicyINS0_22ExpHeapStaticAllocatorILm2048ENS5_6detail12ObjectHolder24ObjectHolderAllocatorTagEEEEES7_E24_nn_sf_sync_GetAccountIdENS0_3OutINS5_23NetworkServiceAccountIdEvEE = 0xbd2d4
_ZN2nn2sf4cmif6client6detail13CmifProxyImplINS_7account3nas29IOAuthProcedureForExternalNsaENS2_15CmifDomainProxyINS0_4hipc6client38Hipc2ClientSessionManagedProxyKindBaseINSA_18Hipc2ProxyKindBaseILNS9_6detail11MessageTypeE4EEEEEEENS0_25StatelessAllocationPolicyINS0_22ExpHeapStaticAllocatorILm2048ENS5_6detail12ObjectHolder24ObjectHolderAllocatorTagEEEEES7_E38_nn_sf_sync_GetLinkedNintendoAccountIdENS0_3OutINS5_17NintendoAccountIdEvEE = 0xbd2f4
_ZN2nn2sf4cmif6client6detail13CmifProxyImplINS_7account3nas29IOAuthProcedureForExternalNsaENS2_15CmifDomainProxyINS0_4hipc6client38Hipc2ClientSessionManagedProxyKindBaseINSA_18Hipc2ProxyKindBaseILNS9_6detail11MessageTypeE4EEEEEEENS0_25StatelessAllocationPolicyINS0_22ExpHeapStaticAllocatorILm2048ENS5_6detail12ObjectHolder24ObjectHolderAllocatorTagEEEEES7_E23_nn_sf_sync_GetNicknameERKNS0_8OutArrayIcEE = 0xbd314
_ZN2nn2sf4cmif6client6detail13CmifProxyImplINS_7account3nas29IOAuthProcedureForExternalNsaENS2_15CmifDomainProxyINS0_4hipc6client38Hipc2ClientSessionManagedProxyKindBaseINSA_18Hipc2ProxyKindBaseILNS9_6detail11MessageTypeE4EEEEEEENS0_25StatelessAllocationPolicyINS0_22ExpHeapStaticAllocatorILm2048ENS5_6detail12ObjectHolder24ObjectHolderAllocatorTagEEEEES7_E27_nn_sf_sync_GetProfileImageENS0_3OutIjvEERKNS0_9OutBufferE = 0xbd33c
_ZN2nn2sf4cmif6client6detail13CmifProxyImplINS_7account4http15IOAuthProcedureENS2_15CmifDomainProxyINS0_4hipc6client38Hipc2ClientSessionManagedProxyKindBaseINSA_18Hipc2ProxyKindBaseILNS9_6detail11MessageTypeE4EEEEEEENS0_25StatelessAllocationPolicyINS0_22ExpHeapStaticAllocatorILm2048ENS5_6detail12ObjectHolder24ObjectHolderAllocatorTagEEEEENS5_3nas29IOAuthProcedureForExternalNsaEE17GetCmifBaseObjectEv = 0xbd364
_ZThn32_N2nn2sf4cmif6client6detail13CmifProxyImplINS_7account4http15IOAuthProcedureENS2_15CmifDomainProxyINS0_4hipc6client38Hipc2ClientSessionManagedProxyKindBaseINSA_18Hipc2ProxyKindBaseILNS9_6detail11MessageTypeE4EEEEEEENS0_25StatelessAllocationPolicyINS0_22ExpHeapStaticAllocatorILm2048ENS5_6detail12ObjectHolder24ObjectHolderAllocatorTagEEEEENS5_3nas29IOAuthProcedureForExternalNsaEE17GetCmifBaseObjectEv = 0xbd374
_ZN2nn2sf4cmif6client32GetClientProcessorWithObjectBaseINS2_15CmifDomainProxyINS0_4hipc6client38Hipc2ClientSessionManagedProxyKindBaseINS6_18Hipc2ProxyKindBaseILNS5_6detail11MessageTypeE4EEEEEEEE14ObjectAssignerINS0_25StatelessAllocationPolicyINS0_22ExpHeapStaticAllocatorILm2048ENS_7account6detail12ObjectHolder24ObjectHolderAllocatorTagEEEEENS0_6detail23StatelessDummyAllocatorEE14AllocateObjectINSJ_14ISessionObjectEEEvi = 0xbd37c
_ZN2nn2sf6detail39ObjectImplFactoryWithStatelessAllocatorINS0_4cmif6client16CmifProxyFactoryINS_7account6detail14ISessionObjectENS4_15CmifDomainProxyINS0_4hipc6client38Hipc2ClientSessionManagedProxyKindBaseINSB_18Hipc2ProxyKindBaseILNSA_6detail11MessageTypeE4EEEEEEENS0_25StatelessAllocationPolicyINS0_22ExpHeapStaticAllocatorILm2048ENS7_12ObjectHolder24ObjectHolderAllocatorTagEEEEEE13ServiceObjectESO_E6Object12AddReferenceEv = 0xbd430
_ZN2nn2sf6detail39ObjectImplFactoryWithStatelessAllocatorINS0_4cmif6client16CmifProxyFactoryINS_7account6detail14ISessionObjectENS4_15CmifDomainProxyINS0_4hipc6client38Hipc2ClientSessionManagedProxyKindBaseINSB_18Hipc2ProxyKindBaseILNSA_6detail11MessageTypeE4EEEEEEENS0_25StatelessAllocationPolicyINS0_22ExpHeapStaticAllocatorILm2048ENS7_12ObjectHolder24ObjectHolderAllocatorTagEEEEEE13ServiceObjectESO_E6Object7ReleaseEv = 0xbd438
_ZN2nn2sf4cmif6client6detail13CmifProxyImplINS_7account6detail14ISessionObjectENS2_15CmifDomainProxyINS0_4hipc6client38Hipc2ClientSessionManagedProxyKindBaseINSA_18Hipc2ProxyKindBaseILNS9_6detail11MessageTypeE4EEEEEEENS0_25StatelessAllocationPolicyINS0_22ExpHeapStaticAllocatorILm2048ENS6_12ObjectHolder24ObjectHolderAllocatorTagEEEEES7_E12GetProxyInfoEv = 0xbd4ac
_ZN2nn2sf4cmif6client6detail13CmifProxyImplINS_7account6detail14ISessionObjectENS2_15CmifDomainProxyINS0_4hipc6client38Hipc2ClientSessionManagedProxyKindBaseINSA_18Hipc2ProxyKindBaseILNS9_6detail11MessageTypeE4EEEEEEENS0_25StatelessAllocationPolicyINS0_22ExpHeapStaticAllocatorILm2048ENS6_12ObjectHolder24ObjectHolderAllocatorTagEEEEES7_E17_nn_sf_sync_DummyEv = 0xbd4b4
_ZN2nn2sf4cmif6client6detail13CmifProxyImplINS_7account6detail14ISessionObjectENS2_15CmifDomainProxyINS0_4hipc6client38Hipc2ClientSessionManagedProxyKindBaseINSA_18Hipc2ProxyKindBaseILNS9_6detail11MessageTypeE4EEEEEEENS0_25StatelessAllocationPolicyINS0_22ExpHeapStaticAllocatorILm2048ENS6_12ObjectHolder24ObjectHolderAllocatorTagEEEEES7_E17GetCmifBaseObjectEv = 0xbd4d4
_ZThn32_N2nn2sf4cmif6client6detail13CmifProxyImplINS_7account6detail14ISessionObjectENS2_15CmifDomainProxyINS0_4hipc6client38Hipc2ClientSessionManagedProxyKindBaseINSA_18Hipc2ProxyKindBaseILNS9_6detail11MessageTypeE4EEEEEEENS0_25StatelessAllocationPolicyINS0_22ExpHeapStaticAllocatorILm2048ENS6_12ObjectHolder24ObjectHolderAllocatorTagEEEEES7_E17GetCmifBaseObjectEv = 0xbd4e4
_ZN2nn7account12AsyncContext4SwapERS1_ = 0xbd674
_ZN2nn7account12AsyncContextC1EOS1_ = 0xbd6bc
_ZN2nn7account12AsyncContextaSEOS1_ = 0xbd6f0
_ZN2nn7account12AsyncContextC1EPNS0_6detail13IAsyncContextE = 0xbd7dc
_ZN2nn7account12AsyncContextC1EPNS0_6detail13IAsyncContextERKNS0_3UidE = 0xbd7f8
_ZN2nn7account12AsyncContextC2Ev = 0xbd820
_ZN2nn7account12AsyncContextD2Ev = 0xbd838
_ZNK2nn7account12AsyncContextcvbEv = 0xbd8d8
_ZN2nn7account12AsyncContextD0Ev = 0xbd8e8
_ZN2nn7account12AsyncContext14GetSystemEventEPNS_2os11SystemEventE = 0xbd990
_ZN2nn7account12AsyncContext6CancelEv = 0xbda08
_ZN2nn7account12AsyncContext7HasDoneEPb = 0xbda2c
_ZN2nn7account12AsyncContext9GetResultEv = 0xbda50
_ZN2nn7account33InitializeBaasAccessTokenAccessorEv = 0xbda74
_ZN2nn7account37InitializeBaasAccessTokenAccessorWithEONS_2sf13SharedPointerINS0_24IBaasAccessTokenAccessorEEE = 0xbdb68
_ZN2nn7account31FinalizeBaasAccessTokenAccessorEv = 0xbdc14
_ZN2nn7account31EnsureBaasAccessTokenCacheAsyncEPNS0_12AsyncContextERKNS0_3UidE = 0xbdc7c
_ZN2nn7account24LoadBaasAccessTokenCacheEPmPcmRKNS0_3UidE = 0xbdd5c
_ZN2nn7account22GetBaasDeviceAccountIdEPmRKNS0_3UidE = 0xbde08
_ZN2nn7account27PutBaasChannelResourceAsyncEPNS0_12AsyncContextERKNS0_3UidERKNS_4npns17NotificationTokenE = 0xbde80
_ZN2nn7account30DeleteBaasChannelResourceAsyncEPNS0_12AsyncContextERKNS0_3UidE = 0xbdf68
_ZZN2nn2sf40SimpleAllInOneHipcSubDomainClientManagerILm17EE27InitializeShimLibraryHolderINS_7account24IBaasAccessTokenAccessorEEENS_6ResultEPNS0_23ShimLibraryObjectHolderIT_EEPKcPNS_14MemoryResourceEENUlPNS0_13SharedPointerIS5_EEE_clESH_ = 0xbe048
_ZN2nn2sf22UnitHeapMemoryResourceD0Ev = 0xbe378
_ZN2nn2sf22UnitHeapMemoryResource11do_allocateEmm = 0xbe37c
_ZN2nn2sf22UnitHeapMemoryResource13do_deallocateEPvmm = 0xbe384
_ZNK2nn2sf22UnitHeapMemoryResource11do_is_equalERKNS_14MemoryResourceE = 0xbe38c
_ZN2nn2sf4hipc6client34HipcSimpleClientSessionManagerBase4Impl18InitializeByHandleINS_7account24IBaasAccessTokenAccessorENS0_30MemoryResourceAllocationPolicyEEENS_6ResultEPNS0_13SharedPointerIT_EEPNT0_9AllocatorENS_3svc6HandleE = 0xbe398
_ZN2nn2sf6detail38ObjectImplFactoryWithStatefulAllocatorINS0_4cmif6client16CmifProxyFactoryINS_7account24IBaasAccessTokenAccessorENS4_15CmifDomainProxyINS0_4hipc6client38Hipc2ClientSessionManagedProxyKindBaseINSA_18Hipc2ProxyKindBaseILNS9_6detail11MessageTypeE4EEEEEEENS0_30MemoryResourceAllocationPolicyEE13ServiceObjectESI_E6Object12AddReferenceEv = 0xbe49c
_ZN2nn2sf6detail38ObjectImplFactoryWithStatefulAllocatorINS0_4cmif6client16CmifProxyFactoryINS_7account24IBaasAccessTokenAccessorENS4_15CmifDomainProxyINS0_4hipc6client38Hipc2ClientSessionManagedProxyKindBaseINSA_18Hipc2ProxyKindBaseILNS9_6detail11MessageTypeE4EEEEEEENS0_30MemoryResourceAllocationPolicyEE13ServiceObjectESI_E6Object7ReleaseEv = 0xbe4a4
_ZN2nn2sf4cmif6client6detail13CmifProxyImplINS_7account24IBaasAccessTokenAccessorENS2_15CmifDomainProxyINS0_4hipc6client38Hipc2ClientSessionManagedProxyKindBaseINS9_18Hipc2ProxyKindBaseILNS8_6detail11MessageTypeE4EEEEEEENS0_30MemoryResourceAllocationPolicyES6_E12GetProxyInfoEv = 0xbe4fc
_ZN2nn2sf4cmif6client6detail13CmifProxyImplINS_7account24IBaasAccessTokenAccessorENS2_15CmifDomainProxyINS0_4hipc6client38Hipc2ClientSessionManagedProxyKindBaseINS9_18Hipc2ProxyKindBaseILNS8_6detail11MessageTypeE4EEEEEEENS0_30MemoryResourceAllocationPolicyES6_E28_nn_sf_sync_EnsureCacheAsyncENS0_3OutINS0_13SharedPointerINS5_6detail13IAsyncContextEEEvEERKNS5_3UidE = 0xbe504
_ZN2nn2sf4cmif6client6detail13CmifProxyImplINS_7account24IBaasAccessTokenAccessorENS2_15CmifDomainProxyINS0_4hipc6client38Hipc2ClientSessionManagedProxyKindBaseINS9_18Hipc2ProxyKindBaseILNS8_6detail11MessageTypeE4EEEEEEENS0_30MemoryResourceAllocationPolicyES6_E21_nn_sf_sync_LoadCacheENS0_3OutIjvEERKNS0_9OutBufferERKNS5_3UidE = 0xbe5ac
_ZN2nn2sf4cmif6client6detail13CmifProxyImplINS_7account24IBaasAccessTokenAccessorENS2_15CmifDomainProxyINS0_4hipc6client38Hipc2ClientSessionManagedProxyKindBaseINS9_18Hipc2ProxyKindBaseILNS8_6detail11MessageTypeE4EEEEEEENS0_30MemoryResourceAllocationPolicyES6_E30_nn_sf_sync_GetDeviceAccountIdENS0_3OutImvEERKNS5_3UidE = 0xbe5dc
_ZN2nn2sf4cmif6client6detail13CmifProxyImplINS_7account24IBaasAccessTokenAccessorENS2_15CmifDomainProxyINS0_4hipc6client38Hipc2ClientSessionManagedProxyKindBaseINS9_18Hipc2ProxyKindBaseILNS8_6detail11MessageTypeE4EEEEEEENS0_30MemoryResourceAllocationPolicyES6_E42_nn_sf_sync_RegisterNotificationTokenAsyncENS0_3OutINS0_13SharedPointerINS5_6detail13IAsyncContextEEEvEERKNS5_3UidERKNS_4npns17NotificationTokenE = 0xbe5fc
_ZN2nn2sf4cmif6client6detail13CmifProxyImplINS_7account24IBaasAccessTokenAccessorENS2_15CmifDomainProxyINS0_4hipc6client38Hipc2ClientSessionManagedProxyKindBaseINS9_18Hipc2ProxyKindBaseILNS8_6detail11MessageTypeE4EEEEEEENS0_30MemoryResourceAllocationPolicyES6_E44_nn_sf_sync_UnregisterNotificationTokenAsyncENS0_3OutINS0_13SharedPointerINS5_6detail13IAsyncContextEEEvEERKNS5_3UidE = 0xbe6a8
_ZN2nn2sf4cmif6client6detail13CmifProxyImplINS_7account24IBaasAccessTokenAccessorENS2_15CmifDomainProxyINS0_4hipc6client38Hipc2ClientSessionManagedProxyKindBaseINS9_18Hipc2ProxyKindBaseILNS8_6detail11MessageTypeE4EEEEEEENS0_30MemoryResourceAllocationPolicyES6_E17GetCmifBaseObjectEv = 0xbe750
_ZThn32_N2nn2sf4cmif6client6detail13CmifProxyImplINS_7account24IBaasAccessTokenAccessorENS2_15CmifDomainProxyINS0_4hipc6client38Hipc2ClientSessionManagedProxyKindBaseINS9_18Hipc2ProxyKindBaseILNS8_6detail11MessageTypeE4EEEEEEENS0_30MemoryResourceAllocationPolicyES6_E17GetCmifBaseObjectEv = 0xbe760
_ZN2nn2sf4cmif6client32GetClientProcessorWithObjectBaseINS2_15CmifDomainProxyINS0_4hipc6client38Hipc2ClientSessionManagedProxyKindBaseINS6_18Hipc2ProxyKindBaseILNS5_6detail11MessageTypeE4EEEEEEEE14ObjectAssignerINS0_30MemoryResourceAllocationPolicyENS_14MemoryResourceEE14AllocateObjectINS_7account6detail13IAsyncContextEEEvi = 0xbe768
_ZN2nn2sf6detail38ObjectImplFactoryWithStatefulAllocatorINS0_4cmif6client16CmifProxyFactoryINS_7account6detail13IAsyncContextENS4_15CmifDomainProxyINS0_4hipc6client38Hipc2ClientSessionManagedProxyKindBaseINSB_18Hipc2ProxyKindBaseILNSA_6detail11MessageTypeE4EEEEEEENS0_30MemoryResourceAllocationPolicyEE13ServiceObjectESJ_E6Object12AddReferenceEv = 0xbe814
_ZN2nn2sf6detail38ObjectImplFactoryWithStatefulAllocatorINS0_4cmif6client16CmifProxyFactoryINS_7account6detail13IAsyncContextENS4_15CmifDomainProxyINS0_4hipc6client38Hipc2ClientSessionManagedProxyKindBaseINSB_18Hipc2ProxyKindBaseILNSA_6detail11MessageTypeE4EEEEEEENS0_30MemoryResourceAllocationPolicyEE13ServiceObjectESJ_E6Object7ReleaseEv = 0xbe81c
_ZN2nn2sf4cmif6client6detail13CmifProxyImplINS_7account6detail13IAsyncContextENS2_15CmifDomainProxyINS0_4hipc6client38Hipc2ClientSessionManagedProxyKindBaseINSA_18Hipc2ProxyKindBaseILNS9_6detail11MessageTypeE4EEEEEEENS0_30MemoryResourceAllocationPolicyES7_E12GetProxyInfoEv = 0xbe874
_ZN2nn2sf4cmif6client6detail13CmifProxyImplINS_7account6detail13IAsyncContextENS2_15CmifDomainProxyINS0_4hipc6client38Hipc2ClientSessionManagedProxyKindBaseINSA_18Hipc2ProxyKindBaseILNS9_6detail11MessageTypeE4EEEEEEENS0_30MemoryResourceAllocationPolicyES7_E26_nn_sf_sync_GetSystemEventENS0_3OutINS0_12NativeHandleEvEE = 0xbe87c
_ZN2nn2sf4cmif6client6detail13CmifProxyImplINS_7account6detail13IAsyncContextENS2_15CmifDomainProxyINS0_4hipc6client38Hipc2ClientSessionManagedProxyKindBaseINSA_18Hipc2ProxyKindBaseILNS9_6detail11MessageTypeE4EEEEEEENS0_30MemoryResourceAllocationPolicyES7_E18_nn_sf_sync_CancelEv = 0xbe89c
_ZN2nn2sf4cmif6client6detail13CmifProxyImplINS_7account6detail13IAsyncContextENS2_15CmifDomainProxyINS0_4hipc6client38Hipc2ClientSessionManagedProxyKindBaseINSA_18Hipc2ProxyKindBaseILNS9_6detail11MessageTypeE4EEEEEEENS0_30MemoryResourceAllocationPolicyES7_E19_nn_sf_sync_HasDoneENS0_3OutIbvEE = 0xbe8bc
_ZN2nn2sf4cmif6client6detail13CmifProxyImplINS_7account6detail13IAsyncContextENS2_15CmifDomainProxyINS0_4hipc6client38Hipc2ClientSessionManagedProxyKindBaseINSA_18Hipc2ProxyKindBaseILNS9_6detail11MessageTypeE4EEEEEEENS0_30MemoryResourceAllocationPolicyES7_E21_nn_sf_sync_GetResultEv = 0xbe8dc
_ZN2nn2sf4cmif6client6detail13CmifProxyImplINS_7account6detail13IAsyncContextENS2_15CmifDomainProxyINS0_4hipc6client38Hipc2ClientSessionManagedProxyKindBaseINSA_18Hipc2ProxyKindBaseILNS9_6detail11MessageTypeE4EEEEEEENS0_30MemoryResourceAllocationPolicyES7_E17GetCmifBaseObjectEv = 0xbe8fc
_ZThn32_N2nn2sf4cmif6client6detail13CmifProxyImplINS_7account6detail13IAsyncContextENS2_15CmifDomainProxyINS0_4hipc6client38Hipc2ClientSessionManagedProxyKindBaseINSA_18Hipc2ProxyKindBaseILNS9_6detail11MessageTypeE4EEEEEEENS0_30MemoryResourceAllocationPolicyES7_E17GetCmifBaseObjectEv = 0xbe90c
_ZN2nn2sf4cmif6client34CmifDomainProxyClientCoreProcessorINS0_4hipc6client38Hipc2ClientSessionManagedProxyKindBaseINS5_18Hipc2ProxyKindBaseILNS4_6detail11MessageTypeE4EEEEENS1_6detail14CoreMethodInfoINSt3__15tupleIJNSC_18OutRawArgumentInfoILm4ELm4ELl0EEENSC_18BufferArgumentInfoILi0ELi6ELm0EEENSC_17InRawArgumentInfoILm16ELm8ELl0EEEEEELm16ELm4ELb0EEESM_E7ProcessEPNS2_23CmifDomainClientMessageISB_E15ProxyBaseObjectENS2_24OutRawClientArgumentTypeILm4ELm4EEENS2_24BufferClientArgumentTypeENS2_23InRawClientArgumentTypeILm16ELm8EvEEj = 0xbe914
_ZN2nn2sf4cmif6client34CmifDomainProxyClientCoreProcessorINS0_4hipc6client38Hipc2ClientSessionManagedProxyKindBaseINS5_18Hipc2ProxyKindBaseILNS4_6detail11MessageTypeE4EEEEENS1_6detail14CoreMethodInfoINSt3__15tupleIJNSC_18OutRawArgumentInfoILm8ELm8ELl0EEENSC_17InRawArgumentInfoILm16ELm8ELl0EEEEEELm16ELm8ELb0EEESK_E7ProcessEPNS2_23CmifDomainClientMessageISB_E15ProxyBaseObjectENS2_24OutRawClientArgumentTypeILm8ELm8EEENS2_23InRawClientArgumentTypeILm16ELm8EvEEj = 0xbeb00
_ZN2nn2sf4cmif6client34CmifDomainProxyClientCoreProcessorINS0_4hipc6client38Hipc2ClientSessionManagedProxyKindBaseINS5_18Hipc2ProxyKindBaseILNS4_6detail11MessageTypeE4EEEEENS1_6detail14CoreMethodInfoINSt3__15tupleIJNSC_21OutObjectArgumentInfoILi0ELi0EEENSC_17InRawArgumentInfoILm16ELm8ELl40EEENSI_ILm40ELm1ELl0EEEEEELm56ELm0ELb0EEESL_E21ProcessWithOutObjectsEPNS2_23CmifDomainClientMessageISB_E15ProxyBaseObjectENS2_27OutObjectClientArgumentTypeENS2_23InRawClientArgumentTypeILm16ELm8EvEENST_ILm40ELm1EvEEjPNS0_13SharedPointerINS0_14IServiceObjectEEE = 0xbec64
_ZZN2nn2sf40SimpleAllInOneHipcSubDomainClientManagerILm17EE27InitializeShimLibraryHolderINS_7account24IBaasAccessTokenAccessorEEENS_6ResultEPNS0_23ShimLibraryObjectHolderIT_EEPKcPNS_14MemoryResourceEENUlPvE_8__invokeESF_ = 0xbee70
_ZZN2nn2sf40SimpleAllInOneHipcSubDomainClientManagerILm17EE27InitializeShimLibraryHolderINS_7account24IBaasAccessTokenAccessorEEENS_6ResultEPNS0_23ShimLibraryObjectHolderIT_EEPKcPNS_14MemoryResourceEENKUlPvE_clESF_ = 0xbee78
_ZN2nn7account25CachedNintendoAccountInfoC2Ev = 0xbef18
_ZNK2nn7account25CachedNintendoAccountInfo11GetBirthdayEPm = 0xbef1c
_ZNK2nn7account25CachedNintendoAccountInfo9GetGenderEPm = 0xbef50
_ZNK2nn7account25CachedNintendoAccountInfo10GetCountryEPm = 0xbef88
_ZN2nn7account41CachedNintendoAccountInfoForSystemServiceC2Ev = 0xbefc0
_ZNK2nn7account41CachedNintendoAccountInfoForSystemService5GetIdEv = 0xbefc8
_ZNK2nn7account41CachedNintendoAccountInfoForSystemService7IsChildEv = 0xbefcc
_ZNK2nn7account41CachedNintendoAccountInfoForSystemService13GetScreenNameEPm = 0xbefd4
_ZNK2nn7account41CachedNintendoAccountInfoForSystemService15GetEmailAddressEPm = 0xbf00c
_ZNK2nn7account41CachedNintendoAccountInfoForSystemService10GetLoginIdEPm = 0xbf044
_ZNK2nn7account41CachedNintendoAccountInfoForSystemService11GetBirthdayEPm = 0xbf07c
_ZNK2nn7account41CachedNintendoAccountInfoForSystemService9GetGenderEPm = 0xbf0b4
_ZNK2nn7account41CachedNintendoAccountInfoForSystemService10GetCountryEPm = 0xbf0ec
_ZNK2nn7account41CachedNintendoAccountInfoForSystemService9GetRegionEPm = 0xbf124
_ZNK2nn7account41CachedNintendoAccountInfoForSystemService11GetLanguageEPm = 0xbf15c
_ZNK2nn7account41CachedNintendoAccountInfoForSystemService23GetAnalyticsOptedInFlagEv = 0xbf194
_ZNK2nn7account41CachedNintendoAccountInfoForSystemService27IsLinkedWithNintendoNetworkEv = 0xbf19c
_ZN2nn7account19CalculateCheckDigitERKNS0_23NetworkServiceAccountIdE = 0xbf1a4
_ZN2nn7account33ExternalNetworkServiceAccountInfoC2Ev = 0xbf218
_ZN2nn7account33ExternalNetworkServiceAccountInfoC2EPNS0_4baas18IGuestLoginRequestE = 0xbf220
_ZN2nn7account33ExternalNetworkServiceAccountInfoC1EOS1_ = 0xbf228
_ZN2nn7account33ExternalNetworkServiceAccountInfoD2Ev = 0xbf238
_ZN2nn7account33ExternalNetworkServiceAccountInfoaSEOS1_ = 0xbf250
_ZN2nn7account33ExternalNetworkServiceAccountInfo4SwapERS1_ = 0xbf290
_ZNK2nn7account33ExternalNetworkServiceAccountInfo11GetNicknameEPNS0_8NicknameE = 0xbf2a4
_ZNK2nn7account33ExternalNetworkServiceAccountInfo15GetProfileImageEPmPvm = 0xbf2e4
_ZNK2nn7account33ExternalNetworkServiceAccountInfo26GetNetworkServiceAccountIdEPNS0_23NetworkServiceAccountIdE = 0xbf33c
_ZNK2nn7account33ExternalNetworkServiceAccountInfo37LoadNetworkServiceAccountIdTokenCacheEPmPcm = 0xbf368
_ZN2nn7account38ExternalNetworkServiceAccountRegistrarC2Ev = 0xbf3c0
_ZN2nn7account38ExternalNetworkServiceAccountRegistrarC1EPNS0_4baas28IFloatingRegistrationRequestE = 0xbf3c8
_ZN2nn7account38ExternalNetworkServiceAccountRegistrarC2EOS1_ = 0xbf3d0
_ZN2nn7account38ExternalNetworkServiceAccountRegistrarD2Ev = 0xbf3e0
_ZN2nn7account38ExternalNetworkServiceAccountRegistraraSEOS1_ = 0xbf3f8
_ZN2nn7account38ExternalNetworkServiceAccountRegistrar4SwapERS1_ = 0xbf438
_ZNK2nn7account38ExternalNetworkServiceAccountRegistrar26GetOAuthProcedureSessionIdEPNS0_9SessionIdE = 0xbf44c
_ZN2nn7account38ExternalNetworkServiceAccountRegistrar12RegisterUserEPNS0_3UidE = 0xbf4a4
_ZN2nn7account38ExternalNetworkServiceAccountRegistrar14RegisterUserAsERKNS0_3UidE = 0xbf4c8
_ZN2nn7account38ExternalNetworkServiceAccountRegistrar34RegisterNetworkServiceAccountAsyncEPNS0_12AsyncContextE = 0xbf4ec
_ZN2nn7account38ExternalNetworkServiceAccountRegistrar34RegisterNetworkServiceAccountAsyncEPNS0_12AsyncContextERKNS0_3UidE = 0xbf584
_ZNK2nn7account38ExternalNetworkServiceAccountRegistrar11GetNicknameEPNS0_8NicknameE = 0xbf61c
_ZNK2nn7account38ExternalNetworkServiceAccountRegistrar15GetProfileImageEPmPvm = 0xbf65c
_ZNK2nn7account38ExternalNetworkServiceAccountRegistrar26GetNetworkServiceAccountIdEPNS0_23NetworkServiceAccountIdE = 0xbf6b4
_ZN2nn7account38ExternalNetworkServiceAccountRegistrar30SetSystemProgramIdentificationERKNS0_27SystemProgramIdentificationE = 0xbf6e0
_ZN2nn7account38ExternalNetworkServiceAccountRegistrar44EnsureNetworkServiceAccountIdTokenCacheAsyncEPNS0_12AsyncContextE = 0xbf708
_ZNK2nn7account38ExternalNetworkServiceAccountRegistrar37LoadNetworkServiceAccountIdTokenCacheEPmPcm = 0xbf7a0
_ZN2nn7account20MakePreselectionInfoERKNS0_3UidE = 0xbf7f8
_ZN2nn7account36EnsureNetworkServiceAccountAvailableERKNS0_10UserHandleE = 0xbf8e8
_ZN2nn7account32IsNetworkServiceAccountAvailableEPbRKNS0_10UserHandleE = 0xbf988
_ZN2nn7account26GetNetworkServiceAccountIdEPNS0_23NetworkServiceAccountIdERKNS0_10UserHandleE = 0xbf9f0
_ZN2nn7account44EnsureNetworkServiceAccountIdTokenCacheAsyncEPNS0_12AsyncContextERKNS0_10UserHandleE = 0xbfa1c
_ZN2nn7account37LoadNetworkServiceAccountIdTokenCacheEPmPcmRKNS0_10UserHandleE = 0xbfae0
_ZN2nn7account41CreateNintendoAccountAuthorizationRequestEPNS0_42NintendoAccountAuthorizationRequestContextERKNS0_10UserHandleERKNS0_45NintendoAccountAuthorizationRequestParametersEPvm = 0xbfb38
_ZN2nn7account29LoadCachedNintendoAccountInfoEPNS0_25CachedNintendoAccountInfoERKNS0_10UserHandleEPvm = 0xbfcb8
_ZN2nn7account28NetworkServiceAccountManagerC2Ev = 0xbfd28
_ZN2nn7account28NetworkServiceAccountManagerC1ERKNS0_3UidEPNS0_4baas24IManagerForSystemServiceE = 0xbfd40
_ZN2nn7account28NetworkServiceAccountManagerD0Ev = 0xbfd68
_ZN2nn7account28NetworkServiceAccountManager4SwapERS1_ = 0xbfdac
_ZNK2nn7account28NetworkServiceAccountManager6GetPtrEv = 0xbfdf4
_ZN2nn7account28NetworkServiceAccountManager36EnsureNetworkServiceAccountAvailableENS0_32NintendoAccountStartupDialogTypeE = 0xbfdfc
_ZN2nn7account28NetworkServiceAccountManager38CheckNetworkServiceAccountAvailabilityEv = 0xbfe94
_ZN2nn7account28NetworkServiceAccountManager32IsNetworkServiceAccountAvailableEPb = 0xbfeb8
_ZN2nn7account28NetworkServiceAccountManager26GetNetworkServiceAccountIdEPNS0_23NetworkServiceAccountIdE = 0xbff20
_ZN2nn7account28NetworkServiceAccountManager20GetNintendoAccountIdEPNS0_17NintendoAccountIdE = 0xbff44
_ZN2nn7account28NetworkServiceAccountManager29LoadCachedNintendoAccountInfoEPNS0_41CachedNintendoAccountInfoForSystemServiceEPvm = 0xbff68
_ZN2nn7account28NetworkServiceAccountManager37RefreshCachedNintendoAccountInfoAsyncEPNS0_12AsyncContextE = 0xbffa4
_ZN2nn7account28NetworkServiceAccountManager50RefreshCachedNintendoAccountInfoAsyncIfTimeElapsedEPbPNS0_12AsyncContextENS_8TimeSpanE = 0xc0044
_ZN2nn7account28NetworkServiceAccountManager44EnsureNetworkServiceAccountIdTokenCacheAsyncEPNS0_12AsyncContextE = 0xc0148
_ZN2nn7account28NetworkServiceAccountManager37LoadNetworkServiceAccountIdTokenCacheEPmPcm = 0xc01e8
_ZN2nn7account28NetworkServiceAccountManager41CreateNintendoAccountAuthorizationRequestEPNS0_42NintendoAccountAuthorizationRequestContextEmPKcmRKNS0_45NintendoAccountAuthorizationRequestParametersEPvm = 0xc0240
_ZN2nn7account28NetworkServiceAccountManager46DebugCreateNintendoAccountAuthorizationRequestEPNS0_42NintendoAccountAuthorizationRequestContextEmPKcmRKNS0_45NintendoAccountAuthorizationRequestParametersEPvm = 0xc03d0
_ZN2nn7account28NetworkServiceAccountManager30SetSystemProgramIdentificationERKNS0_27SystemProgramIdentificationE = 0xc055c
_ZN2nn7account34NetworkServiceAccountAdministratorC2Ev = 0xc0584
_ZN2nn7account34NetworkServiceAccountAdministratorC2ERKNS0_3UidEPNS0_4baas14IAdministratorE = 0xc059c
_ZN2nn7account34NetworkServiceAccountAdministrator4SwapERS1_ = 0xc05d0
_ZN2nn7account34NetworkServiceAccountAdministrator33IsNetworkServiceAccountRegisteredEPb = 0xc0618
_ZN2nn7account34NetworkServiceAccountAdministrator13RegisterAsyncEPNS0_12AsyncContextE = 0xc063c
_ZN2nn7account34NetworkServiceAccountAdministrator15UnregisterAsyncEPNS0_12AsyncContextE = 0xc06e4
_ZN2nn7account34NetworkServiceAccountAdministrator29DeleteRegistrationInfoLocallyEv = 0xc078c
_ZN2nn7account34NetworkServiceAccountAdministrator23SynchronizeProfileAsyncEPNS0_12AsyncContextE = 0xc07b0
_ZN2nn7account34NetworkServiceAccountAdministrator36SynchronizeProfileAsyncIfTimeElapsedEPbPNS0_12AsyncContextENS_8TimeSpanE = 0xc0858
_ZN2nn7account34NetworkServiceAccountAdministrator27IsLinkedWithNintendoAccountEPb = 0xc0964
_ZN2nn7account34NetworkServiceAccountAdministrator40CreateProcedureToLinkWithNintendoAccountEPNS0_31NintendoAccountLinkageProcedureE = 0xc0988
_ZN2nn7account34NetworkServiceAccountAdministrator40ResumeProcedureToLinkWithNintendoAccountEPNS0_31NintendoAccountLinkageProcedureERKNS0_9SessionIdE = 0xc0a30
_ZN2nn7account34NetworkServiceAccountAdministrator52CreateProcedureToUpdateLinkageStateOfNintendoAccountEPNS0_6detail24SimpleOAuthProcedureBaseE = 0xc0ae8
_ZN2nn7account34NetworkServiceAccountAdministrator52ResumeProcedureToUpdateLinkageStateOfNintendoAccountEPNS0_6detail24SimpleOAuthProcedureBaseERKNS0_9SessionIdE = 0xc0b90
_ZN2nn7account34NetworkServiceAccountAdministrator44CreateProcedureToLinkNnidWithNintendoAccountEPNS0_6detail24SimpleOAuthProcedureBaseE = 0xc0c48
_ZN2nn7account34NetworkServiceAccountAdministrator44ResumeProcedureToLinkNnidWithNintendoAccountEPNS0_6detail24SimpleOAuthProcedureBaseERKNS0_9SessionIdE = 0xc0cf0
_ZN2nn7account34NetworkServiceAccountAdministrator65ProxyProcedureToAcquireApplicationAuthorizationForNintendoAccountEPNS0_48NintendoAccountApplicationAuthorizationProcedureERKNS0_9SessionIdE = 0xc0da8
_ZNK2nn7account34NetworkServiceAccountAdministrator23GetRequiredLicenseCacheEPNS0_21NetworkServiceLicenceERKNS_13ApplicationIdE = 0xc0e60
_ZN2nn7account34NetworkServiceAccountAdministrator30InvalidateRequiredLicenseCacheERKNS_13ApplicationIdE = 0xc0ec8
_ZN2nn7account34NetworkServiceAccountAdministrator43InvalidateNetworkServiceAccountIdTokenCacheERKNS_13ApplicationIdE = 0xc0ef0
_ZN2nn7account34NetworkServiceAccountAdministrator46DebugSetNetworkServiceAccountAvailabilityErrorENS_6ResultE = 0xc0f18
_ZN2nn7account34NetworkServiceAccountAdministrator31DebugUnlinkNintendoAccountAsyncEPNS0_12AsyncContextE = 0xc1088
_ZN2nn7account34NetworkServiceAccountAdministrator18UploadProfileAsyncEPNS0_12AsyncContextE = 0xc114c
_ZN2nn7account28NetworkServiceAccountManagerD2Ev = 0xc1210
_ZN2nn7account34NetworkServiceAccountAdministratorD0Ev = 0xc1238
_ZN2nn7account42NintendoAccountAuthorizationRequestContextC2Ev = 0xc127c
_ZN2nn7account42NintendoAccountAuthorizationRequestContextC2EPNS0_3nas21IAuthorizationRequestERKNS0_3UidE = 0xc1290
_ZN2nn7account42NintendoAccountAuthorizationRequestContextC1EOS1_ = 0xc12ac
_ZN2nn7account42NintendoAccountAuthorizationRequestContextD2Ev = 0xc12f4
_ZN2nn7account42NintendoAccountAuthorizationRequestContextaSEOS1_ = 0xc132c
_ZN2nn7account42NintendoAccountAuthorizationRequestContext4SwapERS1_ = 0xc1424
_ZN2nn7account42NintendoAccountAuthorizationRequestContext6InvokeEv = 0xc14c8
_ZN2nn7account42NintendoAccountAuthorizationRequestContext14GetSystemEventEPNS_2os11SystemEventE = 0xc1564
_ZN2nn7account42NintendoAccountAuthorizationRequestContext6CancelEv = 0xc1580
_ZN2nn7account42NintendoAccountAuthorizationRequestContext7HasDoneEPb = 0xc159c
_ZN2nn7account42NintendoAccountAuthorizationRequestContext9GetResultEv = 0xc15b8
_ZN2nn7account42NintendoAccountAuthorizationRequestContext34GetResultWithInteractionIfRequiredEv = 0xc1644
_ZN2nn7account42NintendoAccountAuthorizationRequestContext20GetAuthorizationCodeEPmPcm = 0xc1788
_ZN2nn7account42NintendoAccountAuthorizationRequestContext10GetIdTokenEPmPcm = 0xc17e0
_ZN2nn7account42NintendoAccountAuthorizationRequestContext8GetStateEPmPcm = 0xc1838
_ZN2nn7account42NintendoAccountAuthorizationRequestContext12DebugGetInfoEPmm = 0xc18bc
_ZN2nn7account8Notifier4SwapERS1_ = 0xc192c
_ZN2nn7account8NotifierC1EPNS0_6detail9INotifierE = 0xc1940
_ZN2nn7account8NotifierC2Ev = 0xc1958
_ZN2nn7account8NotifierC1EOS1_ = 0xc196c
_ZN2nn7account8NotifierD2Ev = 0xc198c
_ZN2nn7account8NotifierD0Ev = 0xc19b4
_ZN2nn7account8NotifieraSEOS1_ = 0xc19f8
_ZN2nn7account8Notifier14GetSystemEventEPNS_2os11SystemEventE = 0xc1a38
_ZN2nn7account31NintendoAccountLinkageProcedureC2Ev = 0xc1ab0
_ZN2nn7account31NintendoAccountLinkageProcedureC2ERKNS0_3UidEPNS0_3nas40IOAuthProcedureForNintendoAccountLinkageE = 0xc1ae0
_ZN2nn7account31NintendoAccountLinkageProcedureC1EOS1_ = 0xc1b10
_ZN2nn7account31NintendoAccountLinkageProcedureaSEOS1_ = 0xc1b40
_ZN2nn7account31NintendoAccountLinkageProcedure4SwapERS1_ = 0xc1b94
_ZN2nn7account31NintendoAccountLinkageProcedure10GetRequestEPNS0_10RequestUrlEPNS0_11CallbackUriENS0_37NintendoAccountAuthorizationPageThemeE = 0xc1bb8
_ZN2nn7account31NintendoAccountLinkageProcedure31IsNetworkServiceAccountReplacedEPb = 0xc1c30
_ZN2nn7account31NintendoAccountLinkageProcedure38GetUrlForIntroductionOfExtraMembershipEPNS0_10RequestUrlE = 0xc1c90
_ZN2nn7account48NintendoAccountApplicationAuthorizationProcedureC2Ev = 0xc1cc4
_ZN2nn7account48NintendoAccountApplicationAuthorizationProcedureC1ERKNS0_3UidEPNS0_4http15IOAuthProcedureE = 0xc1cf4
_ZN2nn7account48NintendoAccountApplicationAuthorizationProcedureC2EOS1_ = 0xc1d24
_ZN2nn7account48NintendoAccountApplicationAuthorizationProcedureaSEOS1_ = 0xc1d54
_ZN2nn7account48NintendoAccountApplicationAuthorizationProcedure4SwapERS1_ = 0xc1da8
_ZN2nn7account49ExternalNetworkServiceAccountIntroducingProcedureC2Ev = 0xc1dcc
_ZN2nn7account49ExternalNetworkServiceAccountIntroducingProcedureC1EPNS0_3nas29IOAuthProcedureForExternalNsaE = 0xc1dfc
_ZN2nn7account49ExternalNetworkServiceAccountIntroducingProcedureC1EOS1_ = 0xc1e3c
_ZN2nn7account49ExternalNetworkServiceAccountIntroducingProcedureaSEOS1_ = 0xc1e6c
_ZN2nn7account49ExternalNetworkServiceAccountIntroducingProcedure4SwapERS1_ = 0xc1ec0
_ZNK2nn7account49ExternalNetworkServiceAccountIntroducingProcedure11GetNicknameEPNS0_8NicknameE = 0xc1ee4
_ZNK2nn7account49ExternalNetworkServiceAccountIntroducingProcedure15GetProfileImageEPmPvm = 0xc1f28
_ZNK2nn7account49ExternalNetworkServiceAccountIntroducingProcedure26GetNetworkServiceAccountIdEPNS0_23NetworkServiceAccountIdE = 0xc1f90
_ZNK2nn7account49ExternalNetworkServiceAccountIntroducingProcedure26GetLinkedNintendoAccountIdEPNS0_17NintendoAccountIdE = 0xc1fc4
_ZN2nn7account31NintendoAccountLinkageProcedureD0Ev = 0xc1ff8
_ZN2nn7account48NintendoAccountApplicationAuthorizationProcedureD0Ev = 0xc201c
_ZN2nn7account49ExternalNetworkServiceAccountIntroducingProcedureD0Ev = 0xc2040
_ZN2nn7account13ProfileEditor4SwapERS1_ = 0xc2064
_ZN2nn7account13ProfileEditorC1ERKNS0_3UidEPNS0_7profile14IProfileEditorE = 0xc2148
_ZNK2nn7account13ProfileEditor19GetProfileImageSizeEPm = 0xc218c
_ZN2nn7account13ProfileEditorC2Ev = 0xc21d4
_ZN2nn7account13ProfileEditorC2EOS1_ = 0xc2200
_ZN2nn7account13ProfileEditorD2Ev = 0xc2278
_ZN2nn7account13ProfileEditorD0Ev = 0xc22a0
_ZN2nn7account13ProfileEditoraSEOS1_ = 0xc22e4
_ZN2nn7account13ProfileEditor7RefreshEv = 0xc2408
_ZNK2nn7account13ProfileEditor13IsLocalOriginEv = 0xc2440
_ZNK2nn7account13ProfileEditor12GetTimeStampEv = 0xc246c
_ZNK2nn7account13ProfileEditor11GetNicknameEPNS0_8NicknameE = 0xc2474
_ZNK2nn7account13ProfileEditor11GetUserDataEPcm = 0xc24a4
_ZNK2nn7account13ProfileEditor16LoadProfileImageEPmPvm = 0xc24b8
_ZN2nn7account13ProfileEditor11SetNicknameERKNS0_8NicknameE = 0xc253c
_ZN2nn7account13ProfileEditor11SetUserDataEPKcm = 0xc2548
_ZN2nn7account13ProfileEditor5FlushEv = 0xc2554
_ZN2nn7account13ProfileEditor14FlushWithImageEPKvm = 0xc2584
_ZN2nn2am23GetApplicationFunctionsEv = 0xc25cc
_ZN2nn2am20GetSystemAppletProxyEv = 0xc2618
_ZN2nn2am20GetHomeMenuFunctionsEv = 0xc2664
_ZN2nn2am24GetGlobalStateControllerEv = 0xc26b0
_ZN2nn2am21GetApplicationCreatorEv = 0xc26fc
_ZN2nn2am21GetLibraryAppletProxyEv = 0xc2748
_ZN2nn2am28GetLibraryAppletSelfAccessorEv = 0xc2794
_ZN2nn2am21GetOverlayAppletProxyEv = 0xc27e0
_ZN2nn2am19GetOverlayFunctionsEv = 0xc282c
_ZN2nn2am19GetApplicationProxyEv = 0xc2878
_ZN2nn2am23GetLibraryAppletCreatorEv = 0xc28c4
_ZN2nn2am27GetProcessWindingControllerEv = 0xc2910
_ZN2nn2am20GetCommonStateGetterEv = 0xc295c
_ZN2nn2am17GetSelfControllerEv = 0xc29a8
_ZN2nn2am18GetAudioControllerEv = 0xc29f4
_ZN2nn2am20GetDisplayControllerEv = 0xc2a40
_ZN2nn2am19GetWindowControllerEv = 0xc2a8c
_ZN2nn2am17GetDebugFunctionsEv = 0xc2ad8
_ZN2nn2am26IsInitializedAsApplicationEv = 0xc2b24
_ZN2nn2am27IsInitializedAsSystemAppletEv = 0xc2b74
_ZN2nn2am28IsInitializedAsLibraryAppletEv = 0xc2bc4
_ZN2nn2am28IsInitializedAsOverlayAppletEv = 0xc2c14
_ZN2nn2am26InitializeCommonInterfacesEPNS0_7service21IStackableAppletProxyE = 0xc2c64
_ZN2nn2am24FinalizeCommonInterfacesEv = 0xc3128
_ZN2nn2am32InitializeSystemAppletInterfacesEv = 0xc3374
_ZN2nn2am30FinalizeSystemAppletInterfacesEv = 0xc374c
_ZN2nn2am24SetLibraryAppletResolverEPFvvE = 0xc38f0
_ZN2nn2am35InvokeWithSelfLibraryCreatorEnabledEPFvvE = 0xc38fc
_ZN2nn2am33InitializeLibraryAppletInterfacesEPKNS0_15AppletAttributeE = 0xc3a40
_ZN2nn2am31FinalizeLibraryAppletInterfacesEv = 0xc3e5c
_ZN2nn2am33InitializeOverlayAppletInterfacesEv = 0xc3fbc
_ZN2nn2am31FinalizeOverlayAppletInterfacesEv = 0xc4278
_ZN2nn2am31InitializeApplicationInterfacesEv = 0xc438c
_ZN2nn2am29FinalizeApplicationInterfacesEv = 0xc4640
_ZN2nn2am37InitializeSystemApplicationInterfacesEv = 0xc4700
_ZN2nn2am35FinalizeSystemApplicationInterfacesEv = 0xc49ac
_ZN2nn2am23GetAppletResourceUserIdEv = 0xc4a6c
_ZZN2nn2sf40SimpleAllInOneHipcSubDomainClientManagerILm100EE27InitializeShimLibraryHolderINS_2am7service30IAllSystemAppletProxiesServiceEEENS_6ResultEPNS0_23ShimLibraryObjectHolderIT_EEPKcPNS_14MemoryResourceEENUlPNS0_13SharedPointerIS6_EEE_clESI_ = 0xc4a8c
_ZN2nn2sf4hipc6client34HipcSimpleClientSessionManagerBase4Impl18InitializeByHandleINS_2am7service30IAllSystemAppletProxiesServiceENS0_30MemoryResourceAllocationPolicyEEENS_6ResultEPNS0_13SharedPointerIT_EEPNT0_9AllocatorENS_3svc6HandleE = 0xc4dd0
_ZN2nn2sf6detail38ObjectImplFactoryWithStatefulAllocatorINS0_4cmif6client16CmifProxyFactoryINS_2am7service30IAllSystemAppletProxiesServiceENS4_15CmifDomainProxyINS0_4hipc6client38Hipc2ClientSessionManagedProxyKindBaseINSB_18Hipc2ProxyKindBaseILNSA_6detail11MessageTypeE4EEEEEEENS0_30MemoryResourceAllocationPolicyEE13ServiceObjectESJ_E6Object12AddReferenceEv = 0xc4ed4
_ZN2nn2sf6detail38ObjectImplFactoryWithStatefulAllocatorINS0_4cmif6client16CmifProxyFactoryINS_2am7service30IAllSystemAppletProxiesServiceENS4_15CmifDomainProxyINS0_4hipc6client38Hipc2ClientSessionManagedProxyKindBaseINSB_18Hipc2ProxyKindBaseILNSA_6detail11MessageTypeE4EEEEEEENS0_30MemoryResourceAllocationPolicyEE13ServiceObjectESJ_E6Object7ReleaseEv = 0xc4edc
_ZN2nn2sf4cmif6client6detail13CmifProxyImplINS_2am7service30IAllSystemAppletProxiesServiceENS2_15CmifDomainProxyINS0_4hipc6client38Hipc2ClientSessionManagedProxyKindBaseINSA_18Hipc2ProxyKindBaseILNS9_6detail11MessageTypeE4EEEEEEENS0_30MemoryResourceAllocationPolicyES7_E12GetProxyInfoEv = 0xc4f34
_ZN2nn2sf4cmif6client6detail13CmifProxyImplINS_2am7service30IAllSystemAppletProxiesServiceENS2_15CmifDomainProxyINS0_4hipc6client38Hipc2ClientSessionManagedProxyKindBaseINSA_18Hipc2ProxyKindBaseILNS9_6detail11MessageTypeE4EEEEEEENS0_30MemoryResourceAllocationPolicyES7_E33_nn_sf_sync_OpenSystemAppletProxyENS0_3OutINS0_13SharedPointerINS6_18ISystemAppletProxyEEEvEEmONS0_12NativeHandleE = 0xc4f3c
_ZN2nn2sf4cmif6client6detail13CmifProxyImplINS_2am7service30IAllSystemAppletProxiesServiceENS2_15CmifDomainProxyINS0_4hipc6client38Hipc2ClientSessionManagedProxyKindBaseINSA_18Hipc2ProxyKindBaseILNS9_6detail11MessageTypeE4EEEEEEENS0_30MemoryResourceAllocationPolicyES7_E37_nn_sf_sync_OpenLibraryAppletProxyOldENS0_3OutINS0_13SharedPointerINS6_19ILibraryAppletProxyEEEvEEmONS0_12NativeHandleE = 0xc4fe8
_ZN2nn2sf4cmif6client6detail13CmifProxyImplINS_2am7service30IAllSystemAppletProxiesServiceENS2_15CmifDomainProxyINS0_4hipc6client38Hipc2ClientSessionManagedProxyKindBaseINSA_18Hipc2ProxyKindBaseILNS9_6detail11MessageTypeE4EEEEEEENS0_30MemoryResourceAllocationPolicyES7_E34_nn_sf_sync_OpenLibraryAppletProxyENS0_3OutINS0_13SharedPointerINS6_19ILibraryAppletProxyEEEvEEmONS0_12NativeHandleERKNS5_15AppletAttributeE = 0xc5094
_ZN2nn2sf4cmif6client6detail13CmifProxyImplINS_2am7service30IAllSystemAppletProxiesServiceENS2_15CmifDomainProxyINS0_4hipc6client38Hipc2ClientSessionManagedProxyKindBaseINSA_18Hipc2ProxyKindBaseILNS9_6detail11MessageTypeE4EEEEEEENS0_30MemoryResourceAllocationPolicyES7_E34_nn_sf_sync_OpenOverlayAppletProxyENS0_3OutINS0_13SharedPointerINS6_19IOverlayAppletProxyEEEvEEmONS0_12NativeHandleE = 0xc5158
_ZN2nn2sf4cmif6client6detail13CmifProxyImplINS_2am7service30IAllSystemAppletProxiesServiceENS2_15CmifDomainProxyINS0_4hipc6client38Hipc2ClientSessionManagedProxyKindBaseINSA_18Hipc2ProxyKindBaseILNS9_6detail11MessageTypeE4EEEEEEENS0_30MemoryResourceAllocationPolicyES7_E38_nn_sf_sync_OpenSystemApplicationProxyENS0_3OutINS0_13SharedPointerINS6_17IApplicationProxyEEEvEEmONS0_12NativeHandleE = 0xc5204
_ZN2nn2sf4cmif6client6detail13CmifProxyImplINS_2am7service30IAllSystemAppletProxiesServiceENS2_15CmifDomainProxyINS0_4hipc6client38Hipc2ClientSessionManagedProxyKindBaseINSA_18Hipc2ProxyKindBaseILNS9_6detail11MessageTypeE4EEEEEEENS0_30MemoryResourceAllocationPolicyES7_E52_nn_sf_sync_CreateSelfLibraryAppletCreatorForDevelopENS0_3OutINS0_13SharedPointerINS6_21ILibraryAppletCreatorEEEvEEm = 0xc52b0
_ZN2nn2sf4cmif6client6detail13CmifProxyImplINS_2am7service30IAllSystemAppletProxiesServiceENS2_15CmifDomainProxyINS0_4hipc6client38Hipc2ClientSessionManagedProxyKindBaseINSA_18Hipc2ProxyKindBaseILNS9_6detail11MessageTypeE4EEEEEEENS0_30MemoryResourceAllocationPolicyES7_E17GetCmifBaseObjectEv = 0xc5358
_ZThn32_N2nn2sf4cmif6client6detail13CmifProxyImplINS_2am7service30IAllSystemAppletProxiesServiceENS2_15CmifDomainProxyINS0_4hipc6client38Hipc2ClientSessionManagedProxyKindBaseINSA_18Hipc2ProxyKindBaseILNS9_6detail11MessageTypeE4EEEEEEENS0_30MemoryResourceAllocationPolicyES7_E17GetCmifBaseObjectEv = 0xc5368
_ZN2nn2sf4cmif6client34CmifDomainProxyClientCoreProcessorINS0_4hipc6client38Hipc2ClientSessionManagedProxyKindBaseINS5_18Hipc2ProxyKindBaseILNS4_6detail11MessageTypeE4EEEEENS1_6detail14CoreMethodInfoINSt3__15tupleIJNSC_21OutObjectArgumentInfoILi0ELi0EEENSC_17InRawArgumentInfoILm8ELm8ELl0EEENSC_20InHandleArgumentInfoILi0ELi1EEEEEELm8ELm0ELb1EEESM_E21ProcessWithOutObjectsEPNS2_23CmifDomainClientMessageISB_E15ProxyBaseObjectENS2_27OutObjectClientArgumentTypeENS2_23InRawClientArgumentTypeILm8ELm8EvEENS2_26InHandleClientArgumentTypeEjPNS0_13SharedPointerINS0_14IServiceObjectEEE = 0xc5370
_ZN2nn2sf4cmif6client32GetClientProcessorWithObjectBaseINS2_15CmifDomainProxyINS0_4hipc6client38Hipc2ClientSessionManagedProxyKindBaseINS6_18Hipc2ProxyKindBaseILNS5_6detail11MessageTypeE4EEEEEEEE14ObjectAssignerINS0_30MemoryResourceAllocationPolicyENS_14MemoryResourceEE14AllocateObjectINS_2am7service18ISystemAppletProxyEEEvi = 0xc5588
_ZN2nn2sf6detail38ObjectImplFactoryWithStatefulAllocatorINS0_4cmif6client16CmifProxyFactoryINS_2am7service18ISystemAppletProxyENS4_15CmifDomainProxyINS0_4hipc6client38Hipc2ClientSessionManagedProxyKindBaseINSB_18Hipc2ProxyKindBaseILNSA_6detail11MessageTypeE4EEEEEEENS0_30MemoryResourceAllocationPolicyEE13ServiceObjectESJ_E6Object12AddReferenceEv = 0xc5634
_ZN2nn2sf6detail38ObjectImplFactoryWithStatefulAllocatorINS0_4cmif6client16CmifProxyFactoryINS_2am7service18ISystemAppletProxyENS4_15CmifDomainProxyINS0_4hipc6client38Hipc2ClientSessionManagedProxyKindBaseINSB_18Hipc2ProxyKindBaseILNSA_6detail11MessageTypeE4EEEEEEENS0_30MemoryResourceAllocationPolicyEE13ServiceObjectESJ_E6Object7ReleaseEv = 0xc563c
_ZN2nn2sf4cmif6client6detail13CmifProxyImplINS_2am7service18IAppletProxyCommonENS2_15CmifDomainProxyINS0_4hipc6client38Hipc2ClientSessionManagedProxyKindBaseINSA_18Hipc2ProxyKindBaseILNS9_6detail11MessageTypeE4EEEEEEENS0_30MemoryResourceAllocationPolicyENS6_18ISystemAppletProxyEE12GetProxyInfoEv = 0xc5694
_ZN2nn2sf4cmif6client6detail13CmifProxyImplINS_2am7service18IAppletProxyCommonENS2_15CmifDomainProxyINS0_4hipc6client38Hipc2ClientSessionManagedProxyKindBaseINSA_18Hipc2ProxyKindBaseILNS9_6detail11MessageTypeE4EEEEEEENS0_30MemoryResourceAllocationPolicyENS6_18ISystemAppletProxyEE32_nn_sf_sync_GetCommonStateGetterENS0_3OutINS0_13SharedPointerINS6_18ICommonStateGetterEEEvEE = 0xc569c
_ZN2nn2sf4cmif6client6detail13CmifProxyImplINS_2am7service18IAppletProxyCommonENS2_15CmifDomainProxyINS0_4hipc6client38Hipc2ClientSessionManagedProxyKindBaseINSA_18Hipc2ProxyKindBaseILNS9_6detail11MessageTypeE4EEEEEEENS0_30MemoryResourceAllocationPolicyENS6_18ISystemAppletProxyEE29_nn_sf_sync_GetSelfControllerENS0_3OutINS0_13SharedPointerINS6_15ISelfControllerEEEvEE = 0xc5730
_ZN2nn2sf4cmif6client6detail13CmifProxyImplINS_2am7service18IAppletProxyCommonENS2_15CmifDomainProxyINS0_4hipc6client38Hipc2ClientSessionManagedProxyKindBaseINSA_18Hipc2ProxyKindBaseILNS9_6detail11MessageTypeE4EEEEEEENS0_30MemoryResourceAllocationPolicyENS6_18ISystemAppletProxyEE31_nn_sf_sync_GetWindowControllerENS0_3OutINS0_13SharedPointerINS6_17IWindowControllerEEEvEE = 0xc57c4
_ZN2nn2sf4cmif6client6detail13CmifProxyImplINS_2am7service18IAppletProxyCommonENS2_15CmifDomainProxyINS0_4hipc6client38Hipc2ClientSessionManagedProxyKindBaseINSA_18Hipc2ProxyKindBaseILNS9_6detail11MessageTypeE4EEEEEEENS0_30MemoryResourceAllocationPolicyENS6_18ISystemAppletProxyEE30_nn_sf_sync_GetAudioControllerENS0_3OutINS0_13SharedPointerINS6_16IAudioControllerEEEvEE = 0xc5858
_ZN2nn2sf4cmif6client6detail13CmifProxyImplINS_2am7service18IAppletProxyCommonENS2_15CmifDomainProxyINS0_4hipc6client38Hipc2ClientSessionManagedProxyKindBaseINSA_18Hipc2ProxyKindBaseILNS9_6detail11MessageTypeE4EEEEEEENS0_30MemoryResourceAllocationPolicyENS6_18ISystemAppletProxyEE32_nn_sf_sync_GetDisplayControllerENS0_3OutINS0_13SharedPointerINS6_18IDisplayControllerEEEvEE = 0xc58ec
_ZN2nn2sf4cmif6client6detail13CmifProxyImplINS_2am7service18IAppletProxyCommonENS2_15CmifDomainProxyINS0_4hipc6client38Hipc2ClientSessionManagedProxyKindBaseINSA_18Hipc2ProxyKindBaseILNS9_6detail11MessageTypeE4EEEEEEENS0_30MemoryResourceAllocationPolicyENS6_18ISystemAppletProxyEE29_nn_sf_sync_GetDebugFunctionsENS0_3OutINS0_13SharedPointerINS6_15IDebugFunctionsEEEvEE = 0xc5980
_ZN2nn2sf4cmif6client6detail13CmifProxyImplINS_2am7service21IStackableAppletProxyENS2_15CmifDomainProxyINS0_4hipc6client38Hipc2ClientSessionManagedProxyKindBaseINSA_18Hipc2ProxyKindBaseILNS9_6detail11MessageTypeE4EEEEEEENS0_30MemoryResourceAllocationPolicyENS6_18ISystemAppletProxyEE39_nn_sf_sync_GetProcessWindingControllerENS0_3OutINS0_13SharedPointerINS6_25IProcessWindingControllerEEEvEE = 0xc5a14
_ZN2nn2sf4cmif6client6detail13CmifProxyImplINS_2am7service21IStackableAppletProxyENS2_15CmifDomainProxyINS0_4hipc6client38Hipc2ClientSessionManagedProxyKindBaseINSA_18Hipc2ProxyKindBaseILNS9_6detail11MessageTypeE4EEEEEEENS0_30MemoryResourceAllocationPolicyENS6_18ISystemAppletProxyEE35_nn_sf_sync_GetLibraryAppletCreatorENS0_3OutINS0_13SharedPointerINS6_21ILibraryAppletCreatorEEEvEE = 0xc5aa8
_ZN2nn2sf4cmif6client6detail13CmifProxyImplINS_2am7service18ISystemAppletProxyENS2_15CmifDomainProxyINS0_4hipc6client38Hipc2ClientSessionManagedProxyKindBaseINSA_18Hipc2ProxyKindBaseILNS9_6detail11MessageTypeE4EEEEEEENS0_30MemoryResourceAllocationPolicyES7_E32_nn_sf_sync_GetHomeMenuFunctionsENS0_3OutINS0_13SharedPointerINS6_18IHomeMenuFunctionsEEEvEE = 0xc5b3c
_ZN2nn2sf4cmif6client6detail13CmifProxyImplINS_2am7service18ISystemAppletProxyENS2_15CmifDomainProxyINS0_4hipc6client38Hipc2ClientSessionManagedProxyKindBaseINSA_18Hipc2ProxyKindBaseILNS9_6detail11MessageTypeE4EEEEEEENS0_30MemoryResourceAllocationPolicyES7_E36_nn_sf_sync_GetGlobalStateControllerENS0_3OutINS0_13SharedPointerINS6_22IGlobalStateControllerEEEvEE = 0xc5bd0
_ZN2nn2sf4cmif6client6detail13CmifProxyImplINS_2am7service18ISystemAppletProxyENS2_15CmifDomainProxyINS0_4hipc6client38Hipc2ClientSessionManagedProxyKindBaseINSA_18Hipc2ProxyKindBaseILNS9_6detail11MessageTypeE4EEEEEEENS0_30MemoryResourceAllocationPolicyES7_E33_nn_sf_sync_GetApplicationCreatorENS0_3OutINS0_13SharedPointerINS6_19IApplicationCreatorEEEvEE = 0xc5c64
_ZN2nn2sf4cmif6client6detail13CmifProxyImplINS_2am7service18IAppletProxyCommonENS2_15CmifDomainProxyINS0_4hipc6client38Hipc2ClientSessionManagedProxyKindBaseINSA_18Hipc2ProxyKindBaseILNS9_6detail11MessageTypeE4EEEEEEENS0_30MemoryResourceAllocationPolicyENS6_18ISystemAppletProxyEE17GetCmifBaseObjectEv = 0xc5cf8
_ZThn32_N2nn2sf4cmif6client6detail13CmifProxyImplINS_2am7service18IAppletProxyCommonENS2_15CmifDomainProxyINS0_4hipc6client38Hipc2ClientSessionManagedProxyKindBaseINSA_18Hipc2ProxyKindBaseILNS9_6detail11MessageTypeE4EEEEEEENS0_30MemoryResourceAllocationPolicyENS6_18ISystemAppletProxyEE17GetCmifBaseObjectEv = 0xc5d08
_ZN2nn2sf4cmif6client32GetClientProcessorWithObjectBaseINS2_15CmifDomainProxyINS0_4hipc6client38Hipc2ClientSessionManagedProxyKindBaseINS6_18Hipc2ProxyKindBaseILNS5_6detail11MessageTypeE4EEEEEEEE14ObjectAssignerINS0_30MemoryResourceAllocationPolicyENS_14MemoryResourceEE14AllocateObjectINS_2am7service18ICommonStateGetterEEEvi = 0xc5d10
_ZN2nn2sf6detail38ObjectImplFactoryWithStatefulAllocatorINS0_4cmif6client16CmifProxyFactoryINS_2am7service18ICommonStateGetterENS4_15CmifDomainProxyINS0_4hipc6client38Hipc2ClientSessionManagedProxyKindBaseINSB_18Hipc2ProxyKindBaseILNSA_6detail11MessageTypeE4EEEEEEENS0_30MemoryResourceAllocationPolicyEE13ServiceObjectESJ_E6Object12AddReferenceEv = 0xc5dbc
_ZN2nn2sf6detail38ObjectImplFactoryWithStatefulAllocatorINS0_4cmif6client16CmifProxyFactoryINS_2am7service18ICommonStateGetterENS4_15CmifDomainProxyINS0_4hipc6client38Hipc2ClientSessionManagedProxyKindBaseINSB_18Hipc2ProxyKindBaseILNSA_6detail11MessageTypeE4EEEEEEENS0_30MemoryResourceAllocationPolicyEE13ServiceObjectESJ_E6Object7ReleaseEv = 0xc5dc4
_ZN2nn2sf4cmif6client6detail13CmifProxyImplINS_2am7service18ICommonStateGetterENS2_15CmifDomainProxyINS0_4hipc6client38Hipc2ClientSessionManagedProxyKindBaseINSA_18Hipc2ProxyKindBaseILNS9_6detail11MessageTypeE4EEEEEEENS0_30MemoryResourceAllocationPolicyES7_E12GetProxyInfoEv = 0xc5e1c
_ZN2nn2sf4cmif6client6detail13CmifProxyImplINS_2am7service18ICommonStateGetterENS2_15CmifDomainProxyINS0_4hipc6client38Hipc2ClientSessionManagedProxyKindBaseINSA_18Hipc2ProxyKindBaseILNS9_6detail11MessageTypeE4EEEEEEENS0_30MemoryResourceAllocationPolicyES7_E26_nn_sf_sync_GetEventHandleENS0_3OutINS0_12NativeHandleEvEE = 0xc5e24
_ZN2nn2sf4cmif6client6detail13CmifProxyImplINS_2am7service18ICommonStateGetterENS2_15CmifDomainProxyINS0_4hipc6client38Hipc2ClientSessionManagedProxyKindBaseINSA_18Hipc2ProxyKindBaseILNS9_6detail11MessageTypeE4EEEEEEENS0_30MemoryResourceAllocationPolicyES7_E26_nn_sf_sync_ReceiveMessageENS0_3OutINS5_13AppletMessageEvEE = 0xc5e44
_ZN2nn2sf4cmif6client6detail13CmifProxyImplINS_2am7service18ICommonStateGetterENS2_15CmifDomainProxyINS0_4hipc6client38Hipc2ClientSessionManagedProxyKindBaseINSA_18Hipc2ProxyKindBaseILNS9_6detail11MessageTypeE4EEEEEEENS0_30MemoryResourceAllocationPolicyES7_E29_nn_sf_sync_GetThisAppletKindENS0_3OutINS6_10AppletKindEvEE = 0xc5e64
_ZN2nn2sf4cmif6client6detail13CmifProxyImplINS_2am7service18ICommonStateGetterENS2_15CmifDomainProxyINS0_4hipc6client38Hipc2ClientSessionManagedProxyKindBaseINSA_18Hipc2ProxyKindBaseILNS9_6detail11MessageTypeE4EEEEEEENS0_30MemoryResourceAllocationPolicyES7_E29_nn_sf_sync_AllowToEnterSleepEv = 0xc5e84
_ZN2nn2sf4cmif6client6detail13CmifProxyImplINS_2am7service18ICommonStateGetterENS2_15CmifDomainProxyINS0_4hipc6client38Hipc2ClientSessionManagedProxyKindBaseINSA_18Hipc2ProxyKindBaseILNS9_6detail11MessageTypeE4EEEEEEENS0_30MemoryResourceAllocationPolicyES7_E32_nn_sf_sync_DisallowToEnterSleepEv = 0xc5ea4
_ZN2nn2sf4cmif6client6detail13CmifProxyImplINS_2am7service18ICommonStateGetterENS2_15CmifDomainProxyINS0_4hipc6client38Hipc2ClientSessionManagedProxyKindBaseINSA_18Hipc2ProxyKindBaseILNS9_6detail11MessageTypeE4EEEEEEENS0_30MemoryResourceAllocationPolicyES7_E28_nn_sf_sync_GetOperationModeENS0_3OutIhvEE = 0xc5ec4
_ZN2nn2sf4cmif6client6detail13CmifProxyImplINS_2am7service18ICommonStateGetterENS2_15CmifDomainProxyINS0_4hipc6client38Hipc2ClientSessionManagedProxyKindBaseINSA_18Hipc2ProxyKindBaseILNS9_6detail11MessageTypeE4EEEEEEENS0_30MemoryResourceAllocationPolicyES7_E30_nn_sf_sync_GetPerformanceModeENS0_3OutIjvEE = 0xc5ee4
_ZN2nn2sf4cmif6client6detail13CmifProxyImplINS_2am7service18ICommonStateGetterENS2_15CmifDomainProxyINS0_4hipc6client38Hipc2ClientSessionManagedProxyKindBaseINSA_18Hipc2ProxyKindBaseILNS9_6detail11MessageTypeE4EEEEEEENS0_30MemoryResourceAllocationPolicyES7_E27_nn_sf_sync_GetCradleStatusENS0_3OutIhvEE = 0xc5f04
_ZN2nn2sf4cmif6client6detail13CmifProxyImplINS_2am7service18ICommonStateGetterENS2_15CmifDomainProxyINS0_4hipc6client38Hipc2ClientSessionManagedProxyKindBaseINSA_18Hipc2ProxyKindBaseILNS9_6detail11MessageTypeE4EEEEEEENS0_30MemoryResourceAllocationPolicyES7_E23_nn_sf_sync_GetBootModeENS0_3OutIhvEE = 0xc5f24
_ZN2nn2sf4cmif6client6detail13CmifProxyImplINS_2am7service18ICommonStateGetterENS2_15CmifDomainProxyINS0_4hipc6client38Hipc2ClientSessionManagedProxyKindBaseINSA_18Hipc2ProxyKindBaseILNS9_6detail11MessageTypeE4EEEEEEENS0_30MemoryResourceAllocationPolicyES7_E32_nn_sf_sync_GetCurrentFocusStateENS0_3OutIhvEE = 0xc5f44
_ZN2nn2sf4cmif6client6detail13CmifProxyImplINS_2am7service18ICommonStateGetterENS2_15CmifDomainProxyINS0_4hipc6client38Hipc2ClientSessionManagedProxyKindBaseINSA_18Hipc2ProxyKindBaseILNS9_6detail11MessageTypeE4EEEEEEENS0_30MemoryResourceAllocationPolicyES7_E37_nn_sf_sync_RequestToAcquireSleepLockEv = 0xc5f64
_ZN2nn2sf4cmif6client6detail13CmifProxyImplINS_2am7service18ICommonStateGetterENS2_15CmifDomainProxyINS0_4hipc6client38Hipc2ClientSessionManagedProxyKindBaseINSA_18Hipc2ProxyKindBaseILNS9_6detail11MessageTypeE4EEEEEEENS0_30MemoryResourceAllocationPolicyES7_E28_nn_sf_sync_ReleaseSleepLockEv = 0xc5f84
_ZN2nn2sf4cmif6client6detail13CmifProxyImplINS_2am7service18ICommonStateGetterENS2_15CmifDomainProxyINS0_4hipc6client38Hipc2ClientSessionManagedProxyKindBaseINSA_18Hipc2ProxyKindBaseILNS9_6detail11MessageTypeE4EEEEEEENS0_30MemoryResourceAllocationPolicyES7_E39_nn_sf_sync_ReleaseSleepLockTransientlyEv = 0xc5fa4
_ZN2nn2sf4cmif6client6detail13CmifProxyImplINS_2am7service18ICommonStateGetterENS2_15CmifDomainProxyINS0_4hipc6client38Hipc2ClientSessionManagedProxyKindBaseINSA_18Hipc2ProxyKindBaseILNS9_6detail11MessageTypeE4EEEEEEENS0_30MemoryResourceAllocationPolicyES7_E37_nn_sf_sync_GetAcquiredSleepLockEventENS0_3OutINS0_12NativeHandleEvEE = 0xc5fc4
_ZN2nn2sf4cmif6client6detail13CmifProxyImplINS_2am7service18ICommonStateGetterENS2_15CmifDomainProxyINS0_4hipc6client38Hipc2ClientSessionManagedProxyKindBaseINSA_18Hipc2ProxyKindBaseILNS9_6detail11MessageTypeE4EEEEEEENS0_30MemoryResourceAllocationPolicyES7_E32_nn_sf_sync_PushToGeneralChannelENS0_13SharedPointerINS6_8IStorageEEE = 0xc5fe4
_ZN2nn2sf4cmif6client6detail13CmifProxyImplINS_2am7service18ICommonStateGetterENS2_15CmifDomainProxyINS0_4hipc6client38Hipc2ClientSessionManagedProxyKindBaseINSA_18Hipc2ProxyKindBaseILNS9_6detail11MessageTypeE4EEEEEEENS0_30MemoryResourceAllocationPolicyES7_E43_nn_sf_sync_GetHomeButtonReaderLockAccessorENS0_3OutINS0_13SharedPointerINS6_13ILockAccessorEEEvEE = 0xc6030
_ZN2nn2sf4cmif6client6detail13CmifProxyImplINS_2am7service18ICommonStateGetterENS2_15CmifDomainProxyINS0_4hipc6client38Hipc2ClientSessionManagedProxyKindBaseINSA_18Hipc2ProxyKindBaseILNS9_6detail11MessageTypeE4EEEEEEENS0_30MemoryResourceAllocationPolicyES7_E35_nn_sf_sync_GetReaderLockAccessorExENS0_3OutINS0_13SharedPointerINS6_13ILockAccessorEEEvEEi = 0xc60c4
_ZN2nn2sf4cmif6client6detail13CmifProxyImplINS_2am7service18ICommonStateGetterENS2_15CmifDomainProxyINS0_4hipc6client38Hipc2ClientSessionManagedProxyKindBaseINSA_18Hipc2ProxyKindBaseILNS9_6detail11MessageTypeE4EEEEEEENS0_30MemoryResourceAllocationPolicyES7_E30_nn_sf_sync_GetCradleFwVersionENS0_3OutIjvEESL_SL_SL_ = 0xc616c
_ZN2nn2sf4cmif6client6detail13CmifProxyImplINS_2am7service18ICommonStateGetterENS2_15CmifDomainProxyINS0_4hipc6client38Hipc2ClientSessionManagedProxyKindBaseINSA_18Hipc2ProxyKindBaseILNS9_6detail11MessageTypeE4EEEEEEENS0_30MemoryResourceAllocationPolicyES7_E27_nn_sf_sync_IsVrModeEnabledENS0_3OutIbvEE = 0xc618c
_ZN2nn2sf4cmif6client6detail13CmifProxyImplINS_2am7service18ICommonStateGetterENS2_15CmifDomainProxyINS0_4hipc6client38Hipc2ClientSessionManagedProxyKindBaseINSA_18Hipc2ProxyKindBaseILNS9_6detail11MessageTypeE4EEEEEEENS0_30MemoryResourceAllocationPolicyES7_E28_nn_sf_sync_SetVrModeEnabledEb = 0xc61ac
_ZN2nn2sf4cmif6client6detail13CmifProxyImplINS_2am7service18ICommonStateGetterENS2_15CmifDomainProxyINS0_4hipc6client38Hipc2ClientSessionManagedProxyKindBaseINSA_18Hipc2ProxyKindBaseILNS9_6detail11MessageTypeE4EEEEEEENS0_30MemoryResourceAllocationPolicyES7_E36_nn_sf_sync_SetLcdBacklighOffEnabledEb = 0xc61d0
_ZN2nn2sf4cmif6client6detail13CmifProxyImplINS_2am7service18ICommonStateGetterENS2_15CmifDomainProxyINS0_4hipc6client38Hipc2ClientSessionManagedProxyKindBaseINSA_18Hipc2ProxyKindBaseILNS9_6detail11MessageTypeE4EEEEEEENS0_30MemoryResourceAllocationPolicyES7_E47_nn_sf_sync_IsInControllerFirmwareUpdateSectionENS0_3OutIbvEE = 0xc61f4
_ZN2nn2sf4cmif6client6detail13CmifProxyImplINS_2am7service18ICommonStateGetterENS2_15CmifDomainProxyINS0_4hipc6client38Hipc2ClientSessionManagedProxyKindBaseINSA_18Hipc2ProxyKindBaseILNS9_6detail11MessageTypeE4EEEEEEENS0_30MemoryResourceAllocationPolicyES7_E39_nn_sf_sync_GetDefaultDisplayResolutionENS0_3OutIivEESL_ = 0xc6214
_ZN2nn2sf4cmif6client6detail13CmifProxyImplINS_2am7service18ICommonStateGetterENS2_15CmifDomainProxyINS0_4hipc6client38Hipc2ClientSessionManagedProxyKindBaseINSA_18Hipc2ProxyKindBaseILNS9_6detail11MessageTypeE4EEEEEEENS0_30MemoryResourceAllocationPolicyES7_E50_nn_sf_sync_GetDefaultDisplayResolutionChangeEventENS0_3OutINS0_12NativeHandleEvEE = 0xc6234
_ZN2nn2sf4cmif6client6detail13CmifProxyImplINS_2am7service18ICommonStateGetterENS2_15CmifDomainProxyINS0_4hipc6client38Hipc2ClientSessionManagedProxyKindBaseINSA_18Hipc2ProxyKindBaseILNS9_6detail11MessageTypeE4EEEEEEENS0_30MemoryResourceAllocationPolicyES7_E38_nn_sf_sync_GetHdcpAuthenticationStateENS0_3OutIivEE = 0xc6254
_ZN2nn2sf4cmif6client6detail13CmifProxyImplINS_2am7service18ICommonStateGetterENS2_15CmifDomainProxyINS0_4hipc6client38Hipc2ClientSessionManagedProxyKindBaseINSA_18Hipc2ProxyKindBaseILNS9_6detail11MessageTypeE4EEEEEEENS0_30MemoryResourceAllocationPolicyES7_E49_nn_sf_sync_GetHdcpAuthenticationStateChangeEventENS0_3OutINS0_12NativeHandleEvEE = 0xc6274
_ZN2nn2sf4cmif6client6detail13CmifProxyImplINS_2am7service18ICommonStateGetterENS2_15CmifDomainProxyINS0_4hipc6client38Hipc2ClientSessionManagedProxyKindBaseINSA_18Hipc2ProxyKindBaseILNS9_6detail11MessageTypeE4EEEEEEENS0_30MemoryResourceAllocationPolicyES7_E17GetCmifBaseObjectEv = 0xc6294
_ZThn32_N2nn2sf4cmif6client6detail13CmifProxyImplINS_2am7service18ICommonStateGetterENS2_15CmifDomainProxyINS0_4hipc6client38Hipc2ClientSessionManagedProxyKindBaseINSA_18Hipc2ProxyKindBaseILNS9_6detail11MessageTypeE4EEEEEEENS0_30MemoryResourceAllocationPolicyES7_E17GetCmifBaseObjectEv = 0xc62a4
_ZN2nn2sf4cmif6client34CmifDomainProxyClientCoreProcessorINS0_4hipc6client38Hipc2ClientSessionManagedProxyKindBaseINS5_18Hipc2ProxyKindBaseILNS4_6detail11MessageTypeE4EEEEENS1_6detail14CoreMethodInfoINSt3__15tupleIJNSC_18OutRawArgumentInfoILm8ELm4ELl0EEEEEELm0ELm8ELb0EEESI_E7ProcessEPNS2_23CmifDomainClientMessageISB_E15ProxyBaseObjectENS2_24OutRawClientArgumentTypeILm8ELm4EEEj = 0xc62ac
_ZN2nn2sf4cmif6client34CmifDomainProxyClientCoreProcessorINS0_4hipc6client38Hipc2ClientSessionManagedProxyKindBaseINS5_18Hipc2ProxyKindBaseILNS4_6detail11MessageTypeE4EEEEENS1_6detail14CoreMethodInfoINSt3__15tupleIJNSC_20InObjectArgumentInfoILi0ELi0EEEEEELm0ELm0ELb0EEESI_E7ProcessEPNS2_23CmifDomainClientMessageISB_E15ProxyBaseObjectENS2_26InObjectClientArgumentTypeEj = 0xc63f4
_ZN2nn2sf4cmif6client32GetClientProcessorWithObjectBaseINS2_15CmifDomainProxyINS0_4hipc6client38Hipc2ClientSessionManagedProxyKindBaseINS6_18Hipc2ProxyKindBaseILNS5_6detail11MessageTypeE4EEEEEEEE14ObjectAssignerINS0_30MemoryResourceAllocationPolicyENS_14MemoryResourceEE14AllocateObjectINS_2am7service13ILockAccessorEEEvi = 0xc654c
_ZN2nn2sf6detail38ObjectImplFactoryWithStatefulAllocatorINS0_4cmif6client16CmifProxyFactoryINS_2am7service13ILockAccessorENS4_15CmifDomainProxyINS0_4hipc6client38Hipc2ClientSessionManagedProxyKindBaseINSB_18Hipc2ProxyKindBaseILNSA_6detail11MessageTypeE4EEEEEEENS0_30MemoryResourceAllocationPolicyEE13ServiceObjectESJ_E6Object12AddReferenceEv = 0xc65f8
_ZN2nn2sf6detail38ObjectImplFactoryWithStatefulAllocatorINS0_4cmif6client16CmifProxyFactoryINS_2am7service13ILockAccessorENS4_15CmifDomainProxyINS0_4hipc6client38Hipc2ClientSessionManagedProxyKindBaseINSB_18Hipc2ProxyKindBaseILNSA_6detail11MessageTypeE4EEEEEEENS0_30MemoryResourceAllocationPolicyEE13ServiceObjectESJ_E6Object7ReleaseEv = 0xc6600
_ZN2nn2sf4cmif6client6detail13CmifProxyImplINS_2am7service13ILockAccessorENS2_15CmifDomainProxyINS0_4hipc6client38Hipc2ClientSessionManagedProxyKindBaseINSA_18Hipc2ProxyKindBaseILNS9_6detail11MessageTypeE4EEEEEEENS0_30MemoryResourceAllocationPolicyES7_E12GetProxyInfoEv = 0xc6658
_ZN2nn2sf4cmif6client6detail13CmifProxyImplINS_2am7service13ILockAccessorENS2_15CmifDomainProxyINS0_4hipc6client38Hipc2ClientSessionManagedProxyKindBaseINSA_18Hipc2ProxyKindBaseILNS9_6detail11MessageTypeE4EEEEEEENS0_30MemoryResourceAllocationPolicyES7_E19_nn_sf_sync_TryLockENS0_3OutIbvEENSK_INS0_12NativeHandleEvEEb = 0xc6660
_ZN2nn2sf4cmif6client6detail13CmifProxyImplINS_2am7service13ILockAccessorENS2_15CmifDomainProxyINS0_4hipc6client38Hipc2ClientSessionManagedProxyKindBaseINSA_18Hipc2ProxyKindBaseILNS9_6detail11MessageTypeE4EEEEEEENS0_30MemoryResourceAllocationPolicyES7_E18_nn_sf_sync_UnlockEv = 0xc6684
_ZN2nn2sf4cmif6client6detail13CmifProxyImplINS_2am7service13ILockAccessorENS2_15CmifDomainProxyINS0_4hipc6client38Hipc2ClientSessionManagedProxyKindBaseINSA_18Hipc2ProxyKindBaseILNS9_6detail11MessageTypeE4EEEEEEENS0_30MemoryResourceAllocationPolicyES7_E20_nn_sf_sync_GetEventENS0_3OutINS0_12NativeHandleEvEE = 0xc66a4
_ZN2nn2sf4cmif6client6detail13CmifProxyImplINS_2am7service13ILockAccessorENS2_15CmifDomainProxyINS0_4hipc6client38Hipc2ClientSessionManagedProxyKindBaseINSA_18Hipc2ProxyKindBaseILNS9_6detail11MessageTypeE4EEEEEEENS0_30MemoryResourceAllocationPolicyES7_E17GetCmifBaseObjectEv = 0xc66c4
_ZThn32_N2nn2sf4cmif6client6detail13CmifProxyImplINS_2am7service13ILockAccessorENS2_15CmifDomainProxyINS0_4hipc6client38Hipc2ClientSessionManagedProxyKindBaseINSA_18Hipc2ProxyKindBaseILNS9_6detail11MessageTypeE4EEEEEEENS0_30MemoryResourceAllocationPolicyES7_E17GetCmifBaseObjectEv = 0xc66d4
_ZN2nn2sf4cmif6client34CmifDomainProxyClientCoreProcessorINS0_4hipc6client38Hipc2ClientSessionManagedProxyKindBaseINS5_18Hipc2ProxyKindBaseILNS4_6detail11MessageTypeE4EEEEENS1_6detail14CoreMethodInfoINSt3__15tupleIJNSC_18OutRawArgumentInfoILm1ELm1ELl0EEENSC_21OutHandleArgumentInfoILi0ELi1EEENSC_17InRawArgumentInfoILm1ELm1ELl0EEEEEELm1ELm1ELb0EEESM_E7ProcessEPNS2_23CmifDomainClientMessageISB_E15ProxyBaseObjectENS2_24OutRawClientArgumentTypeILm1ELm1EEENS2_27OutHandleClientArgumentTypeENS2_23InRawClientArgumentTypeILm1ELm1EvEEj = 0xc66dc
_ZN2nn2sf4cmif6client34CmifDomainProxyClientCoreProcessorINS0_4hipc6client38Hipc2ClientSessionManagedProxyKindBaseINS5_18Hipc2ProxyKindBaseILNS4_6detail11MessageTypeE4EEEEENS1_6detail14CoreMethodInfoINSt3__15tupleIJNSC_18OutRawArgumentInfoILm4ELm4ELl0EEENSG_ILm4ELm4ELl4EEENSG_ILm4ELm4ELl8EEENSG_ILm4ELm4ELl12EEEEEELm0ELm16ELb0EEESL_E7ProcessEPNS2_23CmifDomainClientMessageISB_E15ProxyBaseObjectENS2_24OutRawClientArgumentTypeILm4ELm4EEEST_ST_ST_j = 0xc689c
_ZN2nn2sf4cmif6client34CmifDomainProxyClientCoreProcessorINS0_4hipc6client38Hipc2ClientSessionManagedProxyKindBaseINS5_18Hipc2ProxyKindBaseILNS4_6detail11MessageTypeE4EEEEENS1_6detail14CoreMethodInfoINSt3__15tupleIJNSC_18OutRawArgumentInfoILm4ELm4ELl0EEENSG_ILm4ELm4ELl4EEEEEELm0ELm8ELb0EEESJ_E7ProcessEPNS2_23CmifDomainClientMessageISB_E15ProxyBaseObjectENS2_24OutRawClientArgumentTypeILm4ELm4EEESR_j = 0xc6a18
_ZN2nn2sf4cmif6client32GetClientProcessorWithObjectBaseINS2_15CmifDomainProxyINS0_4hipc6client38Hipc2ClientSessionManagedProxyKindBaseINS6_18Hipc2ProxyKindBaseILNS5_6detail11MessageTypeE4EEEEEEEE14ObjectAssignerINS0_30MemoryResourceAllocationPolicyENS_14MemoryResourceEE14AllocateObjectINS_2am7service15ISelfControllerEEEvi = 0xc6b74
_ZN2nn2sf6detail38ObjectImplFactoryWithStatefulAllocatorINS0_4cmif6client16CmifProxyFactoryINS_2am7service15ISelfControllerENS4_15CmifDomainProxyINS0_4hipc6client38Hipc2ClientSessionManagedProxyKindBaseINSB_18Hipc2ProxyKindBaseILNSA_6detail11MessageTypeE4EEEEEEENS0_30MemoryResourceAllocationPolicyEE13ServiceObjectESJ_E6Object12AddReferenceEv = 0xc6c20
_ZN2nn2sf6detail38ObjectImplFactoryWithStatefulAllocatorINS0_4cmif6client16CmifProxyFactoryINS_2am7service15ISelfControllerENS4_15CmifDomainProxyINS0_4hipc6client38Hipc2ClientSessionManagedProxyKindBaseINSB_18Hipc2ProxyKindBaseILNSA_6detail11MessageTypeE4EEEEEEENS0_30MemoryResourceAllocationPolicyEE13ServiceObjectESJ_E6Object7ReleaseEv = 0xc6c28
_ZN2nn2sf4cmif6client6detail13CmifProxyImplINS_2am7service15ISelfControllerENS2_15CmifDomainProxyINS0_4hipc6client38Hipc2ClientSessionManagedProxyKindBaseINSA_18Hipc2ProxyKindBaseILNS9_6detail11MessageTypeE4EEEEEEENS0_30MemoryResourceAllocationPolicyES7_E12GetProxyInfoEv = 0xc6c80
_ZN2nn2sf4cmif6client6detail13CmifProxyImplINS_2am7service15ISelfControllerENS2_15CmifDomainProxyINS0_4hipc6client38Hipc2ClientSessionManagedProxyKindBaseINSA_18Hipc2ProxyKindBaseILNS9_6detail11MessageTypeE4EEEEEEENS0_30MemoryResourceAllocationPolicyES7_E16_nn_sf_sync_ExitEv = 0xc6c88
_ZN2nn2sf4cmif6client6detail13CmifProxyImplINS_2am7service15ISelfControllerENS2_15CmifDomainProxyINS0_4hipc6client38Hipc2ClientSessionManagedProxyKindBaseINSA_18Hipc2ProxyKindBaseILNS9_6detail11MessageTypeE4EEEEEEENS0_30MemoryResourceAllocationPolicyES7_E20_nn_sf_sync_LockExitEv = 0xc6ca8
_ZN2nn2sf4cmif6client6detail13CmifProxyImplINS_2am7service15ISelfControllerENS2_15CmifDomainProxyINS0_4hipc6client38Hipc2ClientSessionManagedProxyKindBaseINSA_18Hipc2ProxyKindBaseILNS9_6detail11MessageTypeE4EEEEEEENS0_30MemoryResourceAllocationPolicyES7_E22_nn_sf_sync_UnlockExitEv = 0xc6cc8
_ZN2nn2sf4cmif6client6detail13CmifProxyImplINS_2am7service15ISelfControllerENS2_15CmifDomainProxyINS0_4hipc6client38Hipc2ClientSessionManagedProxyKindBaseINSA_18Hipc2ProxyKindBaseILNS9_6detail11MessageTypeE4EEEEEEENS0_30MemoryResourceAllocationPolicyES7_E29_nn_sf_sync_EnterFatalSectionEv = 0xc6ce8
_ZN2nn2sf4cmif6client6detail13CmifProxyImplINS_2am7service15ISelfControllerENS2_15CmifDomainProxyINS0_4hipc6client38Hipc2ClientSessionManagedProxyKindBaseINSA_18Hipc2ProxyKindBaseILNS9_6detail11MessageTypeE4EEEEEEENS0_30MemoryResourceAllocationPolicyES7_E29_nn_sf_sync_LeaveFatalSectionEv = 0xc6d08
_ZN2nn2sf4cmif6client6detail13CmifProxyImplINS_2am7service15ISelfControllerENS2_15CmifDomainProxyINS0_4hipc6client38Hipc2ClientSessionManagedProxyKindBaseINSA_18Hipc2ProxyKindBaseILNS9_6detail11MessageTypeE4EEEEEEENS0_30MemoryResourceAllocationPolicyES7_E43_nn_sf_sync_GetLibraryAppletLaunchableEventENS0_3OutINS0_12NativeHandleEvEE = 0xc6d28
_ZN2nn2sf4cmif6client6detail13CmifProxyImplINS_2am7service15ISelfControllerENS2_15CmifDomainProxyINS0_4hipc6client38Hipc2ClientSessionManagedProxyKindBaseINSA_18Hipc2ProxyKindBaseILNS9_6detail11MessageTypeE4EEEEEEENS0_30MemoryResourceAllocationPolicyES7_E35_nn_sf_sync_SetScreenShotPermissionEi = 0xc6d48
_ZN2nn2sf4cmif6client6detail13CmifProxyImplINS_2am7service15ISelfControllerENS2_15CmifDomainProxyINS0_4hipc6client38Hipc2ClientSessionManagedProxyKindBaseINSA_18Hipc2ProxyKindBaseILNS9_6detail11MessageTypeE4EEEEEEENS0_30MemoryResourceAllocationPolicyES7_E47_nn_sf_sync_SetOperationModeChangedNotificationEb = 0xc6d6c
_ZN2nn2sf4cmif6client6detail13CmifProxyImplINS_2am7service15ISelfControllerENS2_15CmifDomainProxyINS0_4hipc6client38Hipc2ClientSessionManagedProxyKindBaseINSA_18Hipc2ProxyKindBaseILNS9_6detail11MessageTypeE4EEEEEEENS0_30MemoryResourceAllocationPolicyES7_E49_nn_sf_sync_SetPerformanceModeChangedNotificationEb = 0xc6d90
_ZN2nn2sf4cmif6client6detail13CmifProxyImplINS_2am7service15ISelfControllerENS2_15CmifDomainProxyINS0_4hipc6client38Hipc2ClientSessionManagedProxyKindBaseINSA_18Hipc2ProxyKindBaseILNS9_6detail11MessageTypeE4EEEEEEENS0_30MemoryResourceAllocationPolicyES7_E32_nn_sf_sync_SetFocusHandlingModeEbbb = 0xc6db4
_ZN2nn2sf4cmif6client6detail13CmifProxyImplINS_2am7service15ISelfControllerENS2_15CmifDomainProxyINS0_4hipc6client38Hipc2ClientSessionManagedProxyKindBaseINSA_18Hipc2ProxyKindBaseILNS9_6detail11MessageTypeE4EEEEEEENS0_30MemoryResourceAllocationPolicyES7_E36_nn_sf_sync_SetRestartMessageEnabledEb = 0xc6de0
_ZN2nn2sf4cmif6client6detail13CmifProxyImplINS_2am7service15ISelfControllerENS2_15CmifDomainProxyINS0_4hipc6client38Hipc2ClientSessionManagedProxyKindBaseINSA_18Hipc2ProxyKindBaseILNS9_6detail11MessageTypeE4EEEEEEENS0_30MemoryResourceAllocationPolicyES7_E43_nn_sf_sync_SetScreenShotAppletIdentityInfoERKNS6_18AppletIdentityInfoE = 0xc6e04
_ZN2nn2sf4cmif6client6detail13CmifProxyImplINS_2am7service15ISelfControllerENS2_15CmifDomainProxyINS0_4hipc6client38Hipc2ClientSessionManagedProxyKindBaseINSA_18Hipc2ProxyKindBaseILNS9_6detail11MessageTypeE4EEEEEEENS0_30MemoryResourceAllocationPolicyES7_E42_nn_sf_sync_SetOutOfFocusSuspendingEnabledEb = 0xc6e24
_ZN2nn2sf4cmif6client6detail13CmifProxyImplINS_2am7service15ISelfControllerENS2_15CmifDomainProxyINS0_4hipc6client38Hipc2ClientSessionManagedProxyKindBaseINSA_18Hipc2ProxyKindBaseILNS9_6detail11MessageTypeE4EEEEEEENS0_30MemoryResourceAllocationPolicyES7_E46_nn_sf_sync_SetControllerFirmwareUpdateSectionEb = 0xc6e48
_ZN2nn2sf4cmif6client6detail13CmifProxyImplINS_2am7service15ISelfControllerENS2_15CmifDomainProxyINS0_4hipc6client38Hipc2ClientSessionManagedProxyKindBaseINSA_18Hipc2ProxyKindBaseILNS9_6detail11MessageTypeE4EEEEEEENS0_30MemoryResourceAllocationPolicyES7_E55_nn_sf_sync_SetRequiresCaptureButtonShortPressedMessageEb = 0xc6e6c
_ZN2nn2sf4cmif6client6detail13CmifProxyImplINS_2am7service15ISelfControllerENS2_15CmifDomainProxyINS0_4hipc6client38Hipc2ClientSessionManagedProxyKindBaseINSA_18Hipc2ProxyKindBaseILNS9_6detail11MessageTypeE4EEEEEEENS0_30MemoryResourceAllocationPolicyES7_E41_nn_sf_sync_SetScreenShotImageOrientationEi = 0xc6e90
_ZN2nn2sf4cmif6client6detail13CmifProxyImplINS_2am7service15ISelfControllerENS2_15CmifDomainProxyINS0_4hipc6client38Hipc2ClientSessionManagedProxyKindBaseINSA_18Hipc2ProxyKindBaseILNS9_6detail11MessageTypeE4EEEEEEENS0_30MemoryResourceAllocationPolicyES7_E38_nn_sf_sync_SetDesirableKeyboardLayoutEj = 0xc6eb4
_ZN2nn2sf4cmif6client6detail13CmifProxyImplINS_2am7service15ISelfControllerENS2_15CmifDomainProxyINS0_4hipc6client38Hipc2ClientSessionManagedProxyKindBaseINSA_18Hipc2ProxyKindBaseILNS9_6detail11MessageTypeE4EEEEEEENS0_30MemoryResourceAllocationPolicyES7_E37_nn_sf_sync_CreateManagedDisplayLayerENS0_3OutImvEE = 0xc6ed8
_ZN2nn2sf4cmif6client6detail13CmifProxyImplINS_2am7service15ISelfControllerENS2_15CmifDomainProxyINS0_4hipc6client38Hipc2ClientSessionManagedProxyKindBaseINSA_18Hipc2ProxyKindBaseILNS9_6detail11MessageTypeE4EEEEEEENS0_30MemoryResourceAllocationPolicyES7_E40_nn_sf_sync_IsSystemBufferSharingEnabledEv = 0xc6ef8
_ZN2nn2sf4cmif6client6detail13CmifProxyImplINS_2am7service15ISelfControllerENS2_15CmifDomainProxyINS0_4hipc6client38Hipc2ClientSessionManagedProxyKindBaseINSA_18Hipc2ProxyKindBaseILNS9_6detail11MessageTypeE4EEEEEEENS0_30MemoryResourceAllocationPolicyES7_E38_nn_sf_sync_GetSystemSharedLayerHandleENS0_3OutINS_2vi7fbshare18SharedBufferHandleEvEENSK_INSM_17SharedLayerHandleEvEE = 0xc6f18
_ZN2nn2sf4cmif6client6detail13CmifProxyImplINS_2am7service15ISelfControllerENS2_15CmifDomainProxyINS0_4hipc6client38Hipc2ClientSessionManagedProxyKindBaseINSA_18Hipc2ProxyKindBaseILNS9_6detail11MessageTypeE4EEEEEEENS0_30MemoryResourceAllocationPolicyES7_E38_nn_sf_sync_SetHandlesRequestToDisplayEb = 0xc6f38
_ZN2nn2sf4cmif6client6detail13CmifProxyImplINS_2am7service15ISelfControllerENS2_15CmifDomainProxyINS0_4hipc6client38Hipc2ClientSessionManagedProxyKindBaseINSA_18Hipc2ProxyKindBaseILNS9_6detail11MessageTypeE4EEEEEEENS0_30MemoryResourceAllocationPolicyES7_E28_nn_sf_sync_ApproveToDisplayEv = 0xc6f5c
_ZN2nn2sf4cmif6client6detail13CmifProxyImplINS_2am7service15ISelfControllerENS2_15CmifDomainProxyINS0_4hipc6client38Hipc2ClientSessionManagedProxyKindBaseINSA_18Hipc2ProxyKindBaseILNS9_6detail11MessageTypeE4EEEEEEENS0_30MemoryResourceAllocationPolicyES7_E47_nn_sf_sync_OverrideAutoSleepTimeAndDimmingTimeEiiii = 0xc6f7c
_ZN2nn2sf4cmif6client6detail13CmifProxyImplINS_2am7service15ISelfControllerENS2_15CmifDomainProxyINS0_4hipc6client38Hipc2ClientSessionManagedProxyKindBaseINSA_18Hipc2ProxyKindBaseILNS9_6detail11MessageTypeE4EEEEEEENS0_30MemoryResourceAllocationPolicyES7_E33_nn_sf_sync_SetMediaPlaybackStateEb = 0xc6fac
_ZN2nn2sf4cmif6client6detail13CmifProxyImplINS_2am7service15ISelfControllerENS2_15CmifDomainProxyINS0_4hipc6client38Hipc2ClientSessionManagedProxyKindBaseINSA_18Hipc2ProxyKindBaseILNS9_6detail11MessageTypeE4EEEEEEENS0_30MemoryResourceAllocationPolicyES7_E41_nn_sf_sync_SetIdleTimeDetectionExtensionEj = 0xc6fd0
_ZN2nn2sf4cmif6client6detail13CmifProxyImplINS_2am7service15ISelfControllerENS2_15CmifDomainProxyINS0_4hipc6client38Hipc2ClientSessionManagedProxyKindBaseINSA_18Hipc2ProxyKindBaseILNS9_6detail11MessageTypeE4EEEEEEENS0_30MemoryResourceAllocationPolicyES7_E41_nn_sf_sync_GetIdleTimeDetectionExtensionENS0_3OutIjvEE = 0xc6ff4
_ZN2nn2sf4cmif6client6detail13CmifProxyImplINS_2am7service15ISelfControllerENS2_15CmifDomainProxyINS0_4hipc6client38Hipc2ClientSessionManagedProxyKindBaseINSA_18Hipc2ProxyKindBaseILNS9_6detail11MessageTypeE4EEEEEEENS0_30MemoryResourceAllocationPolicyES7_E38_nn_sf_sync_SetInputDetectionSourceSetEj = 0xc7014
_ZN2nn2sf4cmif6client6detail13CmifProxyImplINS_2am7service15ISelfControllerENS2_15CmifDomainProxyINS0_4hipc6client38Hipc2ClientSessionManagedProxyKindBaseINSA_18Hipc2ProxyKindBaseILNS9_6detail11MessageTypeE4EEEEEEENS0_30MemoryResourceAllocationPolicyES7_E30_nn_sf_sync_ReportUserIsActiveEv = 0xc7038
_ZN2nn2sf4cmif6client6detail13CmifProxyImplINS_2am7service15ISelfControllerENS2_15CmifDomainProxyINS0_4hipc6client38Hipc2ClientSessionManagedProxyKindBaseINSA_18Hipc2ProxyKindBaseILNS9_6detail11MessageTypeE4EEEEEEENS0_30MemoryResourceAllocationPolicyES7_E33_nn_sf_sync_GetCurrentIlluminanceENS0_3OutIfvEE = 0xc7058
_ZN2nn2sf4cmif6client6detail13CmifProxyImplINS_2am7service15ISelfControllerENS2_15CmifDomainProxyINS0_4hipc6client38Hipc2ClientSessionManagedProxyKindBaseINSA_18Hipc2ProxyKindBaseILNS9_6detail11MessageTypeE4EEEEEEENS0_30MemoryResourceAllocationPolicyES7_E34_nn_sf_sync_IsIlluminanceAvailableENS0_3OutIbvEE = 0xc7078
_ZN2nn2sf4cmif6client6detail13CmifProxyImplINS_2am7service15ISelfControllerENS2_15CmifDomainProxyINS0_4hipc6client38Hipc2ClientSessionManagedProxyKindBaseINSA_18Hipc2ProxyKindBaseILNS9_6detail11MessageTypeE4EEEEEEENS0_30MemoryResourceAllocationPolicyES7_E33_nn_sf_sync_ReportMultimediaErrorEjRKNS0_8InBufferE = 0xc7098
_ZN2nn2sf4cmif6client6detail13CmifProxyImplINS_2am7service15ISelfControllerENS2_15CmifDomainProxyINS0_4hipc6client38Hipc2ClientSessionManagedProxyKindBaseINSA_18Hipc2ProxyKindBaseILNS9_6detail11MessageTypeE4EEEEEEENS0_30MemoryResourceAllocationPolicyES7_E35_nn_sf_sync_SetWirelessPriorityModeEi = 0xc70c4
_ZN2nn2sf4cmif6client6detail13CmifProxyImplINS_2am7service15ISelfControllerENS2_15CmifDomainProxyINS0_4hipc6client38Hipc2ClientSessionManagedProxyKindBaseINSA_18Hipc2ProxyKindBaseILNS9_6detail11MessageTypeE4EEEEEEENS0_30MemoryResourceAllocationPolicyES7_E17GetCmifBaseObjectEv = 0xc70e8
_ZThn32_N2nn2sf4cmif6client6detail13CmifProxyImplINS_2am7service15ISelfControllerENS2_15CmifDomainProxyINS0_4hipc6client38Hipc2ClientSessionManagedProxyKindBaseINSA_18Hipc2ProxyKindBaseILNS9_6detail11MessageTypeE4EEEEEEENS0_30MemoryResourceAllocationPolicyES7_E17GetCmifBaseObjectEv = 0xc70f8
_ZN2nn2sf4cmif6client34CmifDomainProxyClientCoreProcessorINS0_4hipc6client38Hipc2ClientSessionManagedProxyKindBaseINS5_18Hipc2ProxyKindBaseILNS4_6detail11MessageTypeE4EEEEENS1_6detail14CoreMethodInfoINSt3__15tupleIJNSC_17InRawArgumentInfoILm1ELm1ELl0EEENSG_ILm1ELm1ELl1EEENSG_ILm1ELm1ELl2EEEEEELm3ELm0ELb0EEESK_E7ProcessEPNS2_23CmifDomainClientMessageISB_E15ProxyBaseObjectENS2_23InRawClientArgumentTypeILm1ELm1EvEESS_SS_j = 0xc7100
_ZN2nn2sf4cmif6client34CmifDomainProxyClientCoreProcessorINS0_4hipc6client38Hipc2ClientSessionManagedProxyKindBaseINS5_18Hipc2ProxyKindBaseILNS4_6detail11MessageTypeE4EEEEENS1_6detail14CoreMethodInfoINSt3__15tupleIJNSC_18OutRawArgumentInfoILm8ELm8ELl0EEENSG_ILm8ELm8ELl8EEEEEELm0ELm16ELb0EEESJ_E7ProcessEPNS2_23CmifDomainClientMessageISB_E15ProxyBaseObjectENS2_24OutRawClientArgumentTypeILm8ELm8EEESR_j = 0xc7254
_ZN2nn2sf4cmif6client34CmifDomainProxyClientCoreProcessorINS0_4hipc6client38Hipc2ClientSessionManagedProxyKindBaseINS5_18Hipc2ProxyKindBaseILNS4_6detail11MessageTypeE4EEEEENS1_6detail14CoreMethodInfoINSt3__15tupleIJNSC_17InRawArgumentInfoILm4ELm4ELl0EEENSG_ILm4ELm4ELl4EEENSG_ILm4ELm4ELl8EEENSG_ILm4ELm4ELl12EEEEEELm16ELm0ELb0EEESL_E7ProcessEPNS2_23CmifDomainClientMessageISB_E15ProxyBaseObjectENS2_23InRawClientArgumentTypeILm4ELm4EvEEST_ST_ST_j = 0xc73b0
_ZN2nn2sf4cmif6client34CmifDomainProxyClientCoreProcessorINS0_4hipc6client38Hipc2ClientSessionManagedProxyKindBaseINS5_18Hipc2ProxyKindBaseILNS4_6detail11MessageTypeE4EEEEENS1_6detail14CoreMethodInfoINSt3__15tupleIJNSC_17InRawArgumentInfoILm4ELm4ELl0EEENSC_18BufferArgumentInfoILi0ELi5ELm0EEEEEELm4ELm0ELb0EEESK_E7ProcessEPNS2_23CmifDomainClientMessageISB_E15ProxyBaseObjectENS2_23InRawClientArgumentTypeILm4ELm4EvEENS2_24BufferClientArgumentTypeEj = 0xc750c
_ZN2nn2sf4cmif6client32GetClientProcessorWithObjectBaseINS2_15CmifDomainProxyINS0_4hipc6client38Hipc2ClientSessionManagedProxyKindBaseINS6_18Hipc2ProxyKindBaseILNS5_6detail11MessageTypeE4EEEEEEEE14ObjectAssignerINS0_30MemoryResourceAllocationPolicyENS_14MemoryResourceEE14AllocateObjectINS_2am7service17IWindowControllerEEEvi = 0xc76d8
_ZN2nn2sf6detail38ObjectImplFactoryWithStatefulAllocatorINS0_4cmif6client16CmifProxyFactoryINS_2am7service17IWindowControllerENS4_15CmifDomainProxyINS0_4hipc6client38Hipc2ClientSessionManagedProxyKindBaseINSB_18Hipc2ProxyKindBaseILNSA_6detail11MessageTypeE4EEEEEEENS0_30MemoryResourceAllocationPolicyEE13ServiceObjectESJ_E6Object12AddReferenceEv = 0xc7784
_ZN2nn2sf6detail38ObjectImplFactoryWithStatefulAllocatorINS0_4cmif6client16CmifProxyFactoryINS_2am7service17IWindowControllerENS4_15CmifDomainProxyINS0_4hipc6client38Hipc2ClientSessionManagedProxyKindBaseINSB_18Hipc2ProxyKindBaseILNSA_6detail11MessageTypeE4EEEEEEENS0_30MemoryResourceAllocationPolicyEE13ServiceObjectESJ_E6Object7ReleaseEv = 0xc778c
_ZN2nn2sf4cmif6client6detail13CmifProxyImplINS_2am7service17IWindowControllerENS2_15CmifDomainProxyINS0_4hipc6client38Hipc2ClientSessionManagedProxyKindBaseINSA_18Hipc2ProxyKindBaseILNS9_6detail11MessageTypeE4EEEEEEENS0_30MemoryResourceAllocationPolicyES7_E12GetProxyInfoEv = 0xc77e4
_ZN2nn2sf4cmif6client6detail13CmifProxyImplINS_2am7service17IWindowControllerENS2_15CmifDomainProxyINS0_4hipc6client38Hipc2ClientSessionManagedProxyKindBaseINSA_18Hipc2ProxyKindBaseILNS9_6detail11MessageTypeE4EEEEEEENS0_30MemoryResourceAllocationPolicyES7_E24_nn_sf_sync_CreateWindowENS0_3OutINS0_13SharedPointerINS6_7IWindowEEEvEENS6_20WindowCreationOptionE = 0xc77ec
_ZN2nn2sf4cmif6client6detail13CmifProxyImplINS_2am7service17IWindowControllerENS2_15CmifDomainProxyINS0_4hipc6client38Hipc2ClientSessionManagedProxyKindBaseINSA_18Hipc2ProxyKindBaseILNS9_6detail11MessageTypeE4EEEEEEENS0_30MemoryResourceAllocationPolicyES7_E35_nn_sf_sync_GetAppletResourceUserIdENS0_3OutINS_6applet20AppletResourceUserIdEvEE = 0xc7894
_ZN2nn2sf4cmif6client6detail13CmifProxyImplINS_2am7service17IWindowControllerENS2_15CmifDomainProxyINS0_4hipc6client38Hipc2ClientSessionManagedProxyKindBaseINSA_18Hipc2ProxyKindBaseILNS9_6detail11MessageTypeE4EEEEEEENS0_30MemoryResourceAllocationPolicyES7_E35_nn_sf_sync_AcquireForegroundRightsEv = 0xc78b4
_ZN2nn2sf4cmif6client6detail13CmifProxyImplINS_2am7service17IWindowControllerENS2_15CmifDomainProxyINS0_4hipc6client38Hipc2ClientSessionManagedProxyKindBaseINSA_18Hipc2ProxyKindBaseILNS9_6detail11MessageTypeE4EEEEEEENS0_30MemoryResourceAllocationPolicyES7_E35_nn_sf_sync_ReleaseForegroundRightsEv = 0xc78d4
_ZN2nn2sf4cmif6client6detail13CmifProxyImplINS_2am7service17IWindowControllerENS2_15CmifDomainProxyINS0_4hipc6client38Hipc2ClientSessionManagedProxyKindBaseINSA_18Hipc2ProxyKindBaseILNS9_6detail11MessageTypeE4EEEEEEENS0_30MemoryResourceAllocationPolicyES7_E40_nn_sf_sync_RejectToChangeIntoBackgroundEv = 0xc78f4
_ZN2nn2sf4cmif6client6detail13CmifProxyImplINS_2am7service17IWindowControllerENS2_15CmifDomainProxyINS0_4hipc6client38Hipc2ClientSessionManagedProxyKindBaseINSA_18Hipc2ProxyKindBaseILNS9_6detail11MessageTypeE4EEEEEEENS0_30MemoryResourceAllocationPolicyES7_E17GetCmifBaseObjectEv = 0xc7914
_ZThn32_N2nn2sf4cmif6client6detail13CmifProxyImplINS_2am7service17IWindowControllerENS2_15CmifDomainProxyINS0_4hipc6client38Hipc2ClientSessionManagedProxyKindBaseINSA_18Hipc2ProxyKindBaseILNS9_6detail11MessageTypeE4EEEEEEENS0_30MemoryResourceAllocationPolicyES7_E17GetCmifBaseObjectEv = 0xc7924
_ZN2nn2sf4cmif6client32GetClientProcessorWithObjectBaseINS2_15CmifDomainProxyINS0_4hipc6client38Hipc2ClientSessionManagedProxyKindBaseINS6_18Hipc2ProxyKindBaseILNS5_6detail11MessageTypeE4EEEEEEEE14ObjectAssignerINS0_30MemoryResourceAllocationPolicyENS_14MemoryResourceEE14AllocateObjectINS_2am7service7IWindowEEEvi = 0xc792c
_ZN2nn2sf6detail38ObjectImplFactoryWithStatefulAllocatorINS0_4cmif6client16CmifProxyFactoryINS_2am7service7IWindowENS4_15CmifDomainProxyINS0_4hipc6client38Hipc2ClientSessionManagedProxyKindBaseINSB_18Hipc2ProxyKindBaseILNSA_6detail11MessageTypeE4EEEEEEENS0_30MemoryResourceAllocationPolicyEE13ServiceObjectESJ_E6Object12AddReferenceEv = 0xc79d8
_ZN2nn2sf6detail38ObjectImplFactoryWithStatefulAllocatorINS0_4cmif6client16CmifProxyFactoryINS_2am7service7IWindowENS4_15CmifDomainProxyINS0_4hipc6client38Hipc2ClientSessionManagedProxyKindBaseINSB_18Hipc2ProxyKindBaseILNSA_6detail11MessageTypeE4EEEEEEENS0_30MemoryResourceAllocationPolicyEE13ServiceObjectESJ_E6Object7ReleaseEv = 0xc79e0
_ZN2nn2sf4cmif6client6detail13CmifProxyImplINS_2am7service7IWindowENS2_15CmifDomainProxyINS0_4hipc6client38Hipc2ClientSessionManagedProxyKindBaseINSA_18Hipc2ProxyKindBaseILNS9_6detail11MessageTypeE4EEEEEEENS0_30MemoryResourceAllocationPolicyES7_E12GetProxyInfoEv = 0xc7a38
_ZN2nn2sf4cmif6client6detail13CmifProxyImplINS_2am7service7IWindowENS2_15CmifDomainProxyINS0_4hipc6client38Hipc2ClientSessionManagedProxyKindBaseINSA_18Hipc2ProxyKindBaseILNS9_6detail11MessageTypeE4EEEEEEENS0_30MemoryResourceAllocationPolicyES7_E17GetCmifBaseObjectEv = 0xc7a40
_ZThn32_N2nn2sf4cmif6client6detail13CmifProxyImplINS_2am7service7IWindowENS2_15CmifDomainProxyINS0_4hipc6client38Hipc2ClientSessionManagedProxyKindBaseINSA_18Hipc2ProxyKindBaseILNS9_6detail11MessageTypeE4EEEEEEENS0_30MemoryResourceAllocationPolicyES7_E17GetCmifBaseObjectEv = 0xc7a50
_ZN2nn2sf4cmif6client32GetClientProcessorWithObjectBaseINS2_15CmifDomainProxyINS0_4hipc6client38Hipc2ClientSessionManagedProxyKindBaseINS6_18Hipc2ProxyKindBaseILNS5_6detail11MessageTypeE4EEEEEEEE14ObjectAssignerINS0_30MemoryResourceAllocationPolicyENS_14MemoryResourceEE14AllocateObjectINS_2am7service16IAudioControllerEEEvi = 0xc7a58
_ZN2nn2sf6detail38ObjectImplFactoryWithStatefulAllocatorINS0_4cmif6client16CmifProxyFactoryINS_2am7service16IAudioControllerENS4_15CmifDomainProxyINS0_4hipc6client38Hipc2ClientSessionManagedProxyKindBaseINSB_18Hipc2ProxyKindBaseILNSA_6detail11MessageTypeE4EEEEEEENS0_30MemoryResourceAllocationPolicyEE13ServiceObjectESJ_E6Object12AddReferenceEv = 0xc7b04
_ZN2nn2sf6detail38ObjectImplFactoryWithStatefulAllocatorINS0_4cmif6client16CmifProxyFactoryINS_2am7service16IAudioControllerENS4_15CmifDomainProxyINS0_4hipc6client38Hipc2ClientSessionManagedProxyKindBaseINSB_18Hipc2ProxyKindBaseILNSA_6detail11MessageTypeE4EEEEEEENS0_30MemoryResourceAllocationPolicyEE13ServiceObjectESJ_E6Object7ReleaseEv = 0xc7b0c
_ZN2nn2sf4cmif6client6detail13CmifProxyImplINS_2am7service16IAudioControllerENS2_15CmifDomainProxyINS0_4hipc6client38Hipc2ClientSessionManagedProxyKindBaseINSA_18Hipc2ProxyKindBaseILNS9_6detail11MessageTypeE4EEEEEEENS0_30MemoryResourceAllocationPolicyES7_E12GetProxyInfoEv = 0xc7b64
_ZN2nn2sf4cmif6client6detail13CmifProxyImplINS_2am7service16IAudioControllerENS2_15CmifDomainProxyINS0_4hipc6client38Hipc2ClientSessionManagedProxyKindBaseINSA_18Hipc2ProxyKindBaseILNS9_6detail11MessageTypeE4EEEEEEENS0_30MemoryResourceAllocationPolicyES7_E35_nn_sf_sync_SetExpectedMasterVolumeEff = 0xc7b6c
_ZN2nn2sf4cmif6client6detail13CmifProxyImplINS_2am7service16IAudioControllerENS2_15CmifDomainProxyINS0_4hipc6client38Hipc2ClientSessionManagedProxyKindBaseINSA_18Hipc2ProxyKindBaseILNS9_6detail11MessageTypeE4EEEEEEENS0_30MemoryResourceAllocationPolicyES7_E45_nn_sf_sync_GetMainAppletExpectedMasterVolumeENS0_3OutIfvEE = 0xc7b94
_ZN2nn2sf4cmif6client6detail13CmifProxyImplINS_2am7service16IAudioControllerENS2_15CmifDomainProxyINS0_4hipc6client38Hipc2ClientSessionManagedProxyKindBaseINSA_18Hipc2ProxyKindBaseILNS9_6detail11MessageTypeE4EEEEEEENS0_30MemoryResourceAllocationPolicyES7_E48_nn_sf_sync_GetLibraryAppletExpectedMasterVolumeENS0_3OutIfvEE = 0xc7bb4
_ZN2nn2sf4cmif6client6detail13CmifProxyImplINS_2am7service16IAudioControllerENS2_15CmifDomainProxyINS0_4hipc6client38Hipc2ClientSessionManagedProxyKindBaseINSA_18Hipc2ProxyKindBaseILNS9_6detail11MessageTypeE4EEEEEEENS0_30MemoryResourceAllocationPolicyES7_E40_nn_sf_sync_ChangeMainAppletMasterVolumeEfl = 0xc7bd4
_ZN2nn2sf4cmif6client6detail13CmifProxyImplINS_2am7service16IAudioControllerENS2_15CmifDomainProxyINS0_4hipc6client38Hipc2ClientSessionManagedProxyKindBaseINSA_18Hipc2ProxyKindBaseILNS9_6detail11MessageTypeE4EEEEEEENS0_30MemoryResourceAllocationPolicyES7_E36_nn_sf_sync_SetTransparentVolumeRateEf = 0xc7c00
_ZN2nn2sf4cmif6client6detail13CmifProxyImplINS_2am7service16IAudioControllerENS2_15CmifDomainProxyINS0_4hipc6client38Hipc2ClientSessionManagedProxyKindBaseINSA_18Hipc2ProxyKindBaseILNS9_6detail11MessageTypeE4EEEEEEENS0_30MemoryResourceAllocationPolicyES7_E17GetCmifBaseObjectEv = 0xc7c24
_ZThn32_N2nn2sf4cmif6client6detail13CmifProxyImplINS_2am7service16IAudioControllerENS2_15CmifDomainProxyINS0_4hipc6client38Hipc2ClientSessionManagedProxyKindBaseINSA_18Hipc2ProxyKindBaseILNS9_6detail11MessageTypeE4EEEEEEENS0_30MemoryResourceAllocationPolicyES7_E17GetCmifBaseObjectEv = 0xc7c34
_ZN2nn2sf4cmif6client34CmifDomainProxyClientCoreProcessorINS0_4hipc6client38Hipc2ClientSessionManagedProxyKindBaseINS5_18Hipc2ProxyKindBaseILNS4_6detail11MessageTypeE4EEEEENS1_6detail14CoreMethodInfoINSt3__15tupleIJNSC_17InRawArgumentInfoILm4ELm4ELl0EEENSG_ILm4ELm4ELl4EEEEEELm8ELm0ELb0EEESJ_E7ProcessEPNS2_23CmifDomainClientMessageISB_E15ProxyBaseObjectENS2_23InRawClientArgumentTypeILm4ELm4EvEESR_j = 0xc7c3c
_ZN2nn2sf4cmif6client32GetClientProcessorWithObjectBaseINS2_15CmifDomainProxyINS0_4hipc6client38Hipc2ClientSessionManagedProxyKindBaseINS6_18Hipc2ProxyKindBaseILNS5_6detail11MessageTypeE4EEEEEEEE14ObjectAssignerINS0_30MemoryResourceAllocationPolicyENS_14MemoryResourceEE14AllocateObjectINS_2am7service18IDisplayControllerEEEvi = 0xc7d84
_ZN2nn2sf6detail38ObjectImplFactoryWithStatefulAllocatorINS0_4cmif6client16CmifProxyFactoryINS_2am7service18IDisplayControllerENS4_15CmifDomainProxyINS0_4hipc6client38Hipc2ClientSessionManagedProxyKindBaseINSB_18Hipc2ProxyKindBaseILNSA_6detail11MessageTypeE4EEEEEEENS0_30MemoryResourceAllocationPolicyEE13ServiceObjectESJ_E6Object12AddReferenceEv = 0xc7e30
_ZN2nn2sf6detail38ObjectImplFactoryWithStatefulAllocatorINS0_4cmif6client16CmifProxyFactoryINS_2am7service18IDisplayControllerENS4_15CmifDomainProxyINS0_4hipc6client38Hipc2ClientSessionManagedProxyKindBaseINSB_18Hipc2ProxyKindBaseILNSA_6detail11MessageTypeE4EEEEEEENS0_30MemoryResourceAllocationPolicyEE13ServiceObjectESJ_E6Object7ReleaseEv = 0xc7e38
_ZN2nn2sf4cmif6client6detail13CmifProxyImplINS_2am7service18IDisplayControllerENS2_15CmifDomainProxyINS0_4hipc6client38Hipc2ClientSessionManagedProxyKindBaseINSA_18Hipc2ProxyKindBaseILNS9_6detail11MessageTypeE4EEEEEEENS0_30MemoryResourceAllocationPolicyES7_E12GetProxyInfoEv = 0xc7e90
_ZN2nn2sf4cmif6client6detail13CmifProxyImplINS_2am7service18IDisplayControllerENS2_15CmifDomainProxyINS0_4hipc6client38Hipc2ClientSessionManagedProxyKindBaseINSA_18Hipc2ProxyKindBaseILNS9_6detail11MessageTypeE4EEEEEEENS0_30MemoryResourceAllocationPolicyES7_E41_nn_sf_sync_GetLastForegroundCaptureImageERKNS0_9OutBufferE = 0xc7e98
_ZN2nn2sf4cmif6client6detail13CmifProxyImplINS_2am7service18IDisplayControllerENS2_15CmifDomainProxyINS0_4hipc6client38Hipc2ClientSessionManagedProxyKindBaseINSA_18Hipc2ProxyKindBaseILNS9_6detail11MessageTypeE4EEEEEEENS0_30MemoryResourceAllocationPolicyES7_E44_nn_sf_sync_UpdateLastForegroundCaptureImageEv = 0xc7ec0
_ZN2nn2sf4cmif6client6detail13CmifProxyImplINS_2am7service18IDisplayControllerENS2_15CmifDomainProxyINS0_4hipc6client38Hipc2ClientSessionManagedProxyKindBaseINSA_18Hipc2ProxyKindBaseILNS9_6detail11MessageTypeE4EEEEEEENS0_30MemoryResourceAllocationPolicyES7_E42_nn_sf_sync_GetLastApplicationCaptureImageERKNS0_9OutBufferE = 0xc7ee0
_ZN2nn2sf4cmif6client6detail13CmifProxyImplINS_2am7service18IDisplayControllerENS2_15CmifDomainProxyINS0_4hipc6client38Hipc2ClientSessionManagedProxyKindBaseINSA_18Hipc2ProxyKindBaseILNS9_6detail11MessageTypeE4EEEEEEENS0_30MemoryResourceAllocationPolicyES7_E39_nn_sf_sync_GetCallerAppletCaptureImageERKNS0_9OutBufferE = 0xc7f08
_ZN2nn2sf4cmif6client6detail13CmifProxyImplINS_2am7service18IDisplayControllerENS2_15CmifDomainProxyINS0_4hipc6client38Hipc2ClientSessionManagedProxyKindBaseINSA_18Hipc2ProxyKindBaseILNS9_6detail11MessageTypeE4EEEEEEENS0_30MemoryResourceAllocationPolicyES7_E42_nn_sf_sync_UpdateCallerAppletCaptureImageEv = 0xc7f30
_ZN2nn2sf4cmif6client6detail13CmifProxyImplINS_2am7service18IDisplayControllerENS2_15CmifDomainProxyINS0_4hipc6client38Hipc2ClientSessionManagedProxyKindBaseINSA_18Hipc2ProxyKindBaseILNS9_6detail11MessageTypeE4EEEEEEENS0_30MemoryResourceAllocationPolicyES7_E43_nn_sf_sync_GetLastForegroundCaptureImageExENS0_3OutIbvEERKNS0_9OutBufferE = 0xc7f50
_ZN2nn2sf4cmif6client6detail13CmifProxyImplINS_2am7service18IDisplayControllerENS2_15CmifDomainProxyINS0_4hipc6client38Hipc2ClientSessionManagedProxyKindBaseINSA_18Hipc2ProxyKindBaseILNS9_6detail11MessageTypeE4EEEEEEENS0_30MemoryResourceAllocationPolicyES7_E44_nn_sf_sync_GetLastApplicationCaptureImageExENS0_3OutIbvEERKNS0_9OutBufferE = 0xc7f78
_ZN2nn2sf4cmif6client6detail13CmifProxyImplINS_2am7service18IDisplayControllerENS2_15CmifDomainProxyINS0_4hipc6client38Hipc2ClientSessionManagedProxyKindBaseINSA_18Hipc2ProxyKindBaseILNS9_6detail11MessageTypeE4EEEEEEENS0_30MemoryResourceAllocationPolicyES7_E41_nn_sf_sync_GetCallerAppletCaptureImageExENS0_3OutIbvEERKNS0_9OutBufferE = 0xc7fa0
_ZN2nn2sf4cmif6client6detail13CmifProxyImplINS_2am7service18IDisplayControllerENS2_15CmifDomainProxyINS0_4hipc6client38Hipc2ClientSessionManagedProxyKindBaseINSA_18Hipc2ProxyKindBaseILNS9_6detail11MessageTypeE4EEEEEEENS0_30MemoryResourceAllocationPolicyES7_E36_nn_sf_sync_TakeScreenShotOfOwnLayerEib = 0xc7fc8
_ZN2nn2sf4cmif6client6detail13CmifProxyImplINS_2am7service18IDisplayControllerENS2_15CmifDomainProxyINS0_4hipc6client38Hipc2ClientSessionManagedProxyKindBaseINSA_18Hipc2ProxyKindBaseILNS9_6detail11MessageTypeE4EEEEEEENS0_30MemoryResourceAllocationPolicyES7_E47_nn_sf_sync_AcquireLastApplicationCaptureBufferENS0_3OutINS0_12NativeHandleEvEE = 0xc7ff0
_ZN2nn2sf4cmif6client6detail13CmifProxyImplINS_2am7service18IDisplayControllerENS2_15CmifDomainProxyINS0_4hipc6client38Hipc2ClientSessionManagedProxyKindBaseINSA_18Hipc2ProxyKindBaseILNS9_6detail11MessageTypeE4EEEEEEENS0_30MemoryResourceAllocationPolicyES7_E47_nn_sf_sync_ReleaseLastApplicationCaptureBufferEv = 0xc8010
_ZN2nn2sf4cmif6client6detail13CmifProxyImplINS_2am7service18IDisplayControllerENS2_15CmifDomainProxyINS0_4hipc6client38Hipc2ClientSessionManagedProxyKindBaseINSA_18Hipc2ProxyKindBaseILNS9_6detail11MessageTypeE4EEEEEEENS0_30MemoryResourceAllocationPolicyES7_E46_nn_sf_sync_AcquireLastForegroundCaptureBufferENS0_3OutINS0_12NativeHandleEvEE = 0xc8030
_ZN2nn2sf4cmif6client6detail13CmifProxyImplINS_2am7service18IDisplayControllerENS2_15CmifDomainProxyINS0_4hipc6client38Hipc2ClientSessionManagedProxyKindBaseINSA_18Hipc2ProxyKindBaseILNS9_6detail11MessageTypeE4EEEEEEENS0_30MemoryResourceAllocationPolicyES7_E46_nn_sf_sync_ReleaseLastForegroundCaptureBufferEv = 0xc8050
_ZN2nn2sf4cmif6client6detail13CmifProxyImplINS_2am7service18IDisplayControllerENS2_15CmifDomainProxyINS0_4hipc6client38Hipc2ClientSessionManagedProxyKindBaseINSA_18Hipc2ProxyKindBaseILNS9_6detail11MessageTypeE4EEEEEEENS0_30MemoryResourceAllocationPolicyES7_E44_nn_sf_sync_AcquireCallerAppletCaptureBufferENS0_3OutINS0_12NativeHandleEvEE = 0xc8070
_ZN2nn2sf4cmif6client6detail13CmifProxyImplINS_2am7service18IDisplayControllerENS2_15CmifDomainProxyINS0_4hipc6client38Hipc2ClientSessionManagedProxyKindBaseINSA_18Hipc2ProxyKindBaseILNS9_6detail11MessageTypeE4EEEEEEENS0_30MemoryResourceAllocationPolicyES7_E44_nn_sf_sync_ReleaseCallerAppletCaptureBufferEv = 0xc8090
_ZN2nn2sf4cmif6client6detail13CmifProxyImplINS_2am7service18IDisplayControllerENS2_15CmifDomainProxyINS0_4hipc6client38Hipc2ClientSessionManagedProxyKindBaseINSA_18Hipc2ProxyKindBaseILNS9_6detail11MessageTypeE4EEEEEEENS0_30MemoryResourceAllocationPolicyES7_E49_nn_sf_sync_AcquireLastApplicationCaptureBufferExENS0_3OutIbvEENSK_INS0_12NativeHandleEvEE = 0xc80b0
_ZN2nn2sf4cmif6client6detail13CmifProxyImplINS_2am7service18IDisplayControllerENS2_15CmifDomainProxyINS0_4hipc6client38Hipc2ClientSessionManagedProxyKindBaseINSA_18Hipc2ProxyKindBaseILNS9_6detail11MessageTypeE4EEEEEEENS0_30MemoryResourceAllocationPolicyES7_E48_nn_sf_sync_AcquireLastForegroundCaptureBufferExENS0_3OutIbvEENSK_INS0_12NativeHandleEvEE = 0xc80d0
_ZN2nn2sf4cmif6client6detail13CmifProxyImplINS_2am7service18IDisplayControllerENS2_15CmifDomainProxyINS0_4hipc6client38Hipc2ClientSessionManagedProxyKindBaseINSA_18Hipc2ProxyKindBaseILNS9_6detail11MessageTypeE4EEEEEEENS0_30MemoryResourceAllocationPolicyES7_E46_nn_sf_sync_AcquireCallerAppletCaptureBufferExENS0_3OutIbvEENSK_INS0_12NativeHandleEvEE = 0xc80f0
_ZN2nn2sf4cmif6client6detail13CmifProxyImplINS_2am7service18IDisplayControllerENS2_15CmifDomainProxyINS0_4hipc6client38Hipc2ClientSessionManagedProxyKindBaseINSA_18Hipc2ProxyKindBaseILNS9_6detail11MessageTypeE4EEEEEEENS0_30MemoryResourceAllocationPolicyES7_E30_nn_sf_sync_ClearCaptureBufferEibj = 0xc8110
_ZN2nn2sf4cmif6client6detail13CmifProxyImplINS_2am7service18IDisplayControllerENS2_15CmifDomainProxyINS0_4hipc6client38Hipc2ClientSessionManagedProxyKindBaseINSA_18Hipc2ProxyKindBaseILNS9_6detail11MessageTypeE4EEEEEEENS0_30MemoryResourceAllocationPolicyES7_E39_nn_sf_sync_ClearAppletTransitionBufferEj = 0xc813c
_ZN2nn2sf4cmif6client6detail13CmifProxyImplINS_2am7service18IDisplayControllerENS2_15CmifDomainProxyINS0_4hipc6client38Hipc2ClientSessionManagedProxyKindBaseINSA_18Hipc2ProxyKindBaseILNS9_6detail11MessageTypeE4EEEEEEENS0_30MemoryResourceAllocationPolicyES7_E53_nn_sf_sync_AcquireLastApplicationCaptureSharedBufferENS0_3OutIbvEENSK_IivEE = 0xc8160
_ZN2nn2sf4cmif6client6detail13CmifProxyImplINS_2am7service18IDisplayControllerENS2_15CmifDomainProxyINS0_4hipc6client38Hipc2ClientSessionManagedProxyKindBaseINSA_18Hipc2ProxyKindBaseILNS9_6detail11MessageTypeE4EEEEEEENS0_30MemoryResourceAllocationPolicyES7_E53_nn_sf_sync_ReleaseLastApplicationCaptureSharedBufferEv = 0xc8180
_ZN2nn2sf4cmif6client6detail13CmifProxyImplINS_2am7service18IDisplayControllerENS2_15CmifDomainProxyINS0_4hipc6client38Hipc2ClientSessionManagedProxyKindBaseINSA_18Hipc2ProxyKindBaseILNS9_6detail11MessageTypeE4EEEEEEENS0_30MemoryResourceAllocationPolicyES7_E52_nn_sf_sync_AcquireLastForegroundCaptureSharedBufferENS0_3OutIbvEENSK_IivEE = 0xc81a0
_ZN2nn2sf4cmif6client6detail13CmifProxyImplINS_2am7service18IDisplayControllerENS2_15CmifDomainProxyINS0_4hipc6client38Hipc2ClientSessionManagedProxyKindBaseINSA_18Hipc2ProxyKindBaseILNS9_6detail11MessageTypeE4EEEEEEENS0_30MemoryResourceAllocationPolicyES7_E52_nn_sf_sync_ReleaseLastForegroundCaptureSharedBufferEv = 0xc81c0
_ZN2nn2sf4cmif6client6detail13CmifProxyImplINS_2am7service18IDisplayControllerENS2_15CmifDomainProxyINS0_4hipc6client38Hipc2ClientSessionManagedProxyKindBaseINSA_18Hipc2ProxyKindBaseILNS9_6detail11MessageTypeE4EEEEEEENS0_30MemoryResourceAllocationPolicyES7_E50_nn_sf_sync_AcquireCallerAppletCaptureSharedBufferENS0_3OutIbvEENSK_IivEE = 0xc81e0
_ZN2nn2sf4cmif6client6detail13CmifProxyImplINS_2am7service18IDisplayControllerENS2_15CmifDomainProxyINS0_4hipc6client38Hipc2ClientSessionManagedProxyKindBaseINSA_18Hipc2ProxyKindBaseILNS9_6detail11MessageTypeE4EEEEEEENS0_30MemoryResourceAllocationPolicyES7_E50_nn_sf_sync_ReleaseCallerAppletCaptureSharedBufferEv = 0xc8200
_ZN2nn2sf4cmif6client6detail13CmifProxyImplINS_2am7service18IDisplayControllerENS2_15CmifDomainProxyINS0_4hipc6client38Hipc2ClientSessionManagedProxyKindBaseINSA_18Hipc2ProxyKindBaseILNS9_6detail11MessageTypeE4EEEEEEENS0_30MemoryResourceAllocationPolicyES7_E17GetCmifBaseObjectEv = 0xc8220
_ZThn32_N2nn2sf4cmif6client6detail13CmifProxyImplINS_2am7service18IDisplayControllerENS2_15CmifDomainProxyINS0_4hipc6client38Hipc2ClientSessionManagedProxyKindBaseINSA_18Hipc2ProxyKindBaseILNS9_6detail11MessageTypeE4EEEEEEENS0_30MemoryResourceAllocationPolicyES7_E17GetCmifBaseObjectEv = 0xc8230
_ZN2nn2sf4cmif6client34CmifDomainProxyClientCoreProcessorINS0_4hipc6client38Hipc2ClientSessionManagedProxyKindBaseINS5_18Hipc2ProxyKindBaseILNS4_6detail11MessageTypeE4EEEEENS1_6detail14CoreMethodInfoINSt3__15tupleIJNSC_18OutRawArgumentInfoILm1ELm1ELl0EEENSC_18BufferArgumentInfoILi0ELi6ELm0EEEEEELm0ELm1ELb0EEESK_E7ProcessEPNS2_23CmifDomainClientMessageISB_E15ProxyBaseObjectENS2_24OutRawClientArgumentTypeILm1ELm1EEENS2_24BufferClientArgumentTypeEj = 0xc8238
_ZN2nn2sf4cmif6client34CmifDomainProxyClientCoreProcessorINS0_4hipc6client38Hipc2ClientSessionManagedProxyKindBaseINS5_18Hipc2ProxyKindBaseILNS4_6detail11MessageTypeE4EEEEENS1_6detail14CoreMethodInfoINSt3__15tupleIJNSC_17InRawArgumentInfoILm4ELm4ELl4EEENSG_ILm1ELm1ELl0EEEEEELm8ELm0ELb0EEESJ_E7ProcessEPNS2_23CmifDomainClientMessageISB_E15ProxyBaseObjectENS2_23InRawClientArgumentTypeILm4ELm4EvEENSQ_ILm1ELm1EvEEj = 0xc8410
_ZN2nn2sf4cmif6client34CmifDomainProxyClientCoreProcessorINS0_4hipc6client38Hipc2ClientSessionManagedProxyKindBaseINS5_18Hipc2ProxyKindBaseILNS4_6detail11MessageTypeE4EEEEENS1_6detail14CoreMethodInfoINSt3__15tupleIJNSC_18OutRawArgumentInfoILm1ELm1ELl0EEENSC_21OutHandleArgumentInfoILi0ELi1EEEEEELm0ELm1ELb0EEESK_E7ProcessEPNS2_23CmifDomainClientMessageISB_E15ProxyBaseObjectENS2_24OutRawClientArgumentTypeILm1ELm1EEENS2_27OutHandleClientArgumentTypeEj = 0xc8560
_ZN2nn2sf4cmif6client34CmifDomainProxyClientCoreProcessorINS0_4hipc6client38Hipc2ClientSessionManagedProxyKindBaseINS5_18Hipc2ProxyKindBaseILNS4_6detail11MessageTypeE4EEEEENS1_6detail14CoreMethodInfoINSt3__15tupleIJNSC_17InRawArgumentInfoILm4ELm4ELl4EEENSG_ILm1ELm1ELl0EEENSG_ILm4ELm4ELl8EEEEEELm12ELm0ELb0EEESK_E7ProcessEPNS2_23CmifDomainClientMessageISB_E15ProxyBaseObjectENS2_23InRawClientArgumentTypeILm4ELm4EvEENSR_ILm1ELm1EvEESS_j = 0xc8718
_ZN2nn2sf4cmif6client34CmifDomainProxyClientCoreProcessorINS0_4hipc6client38Hipc2ClientSessionManagedProxyKindBaseINS5_18Hipc2ProxyKindBaseILNS4_6detail11MessageTypeE4EEEEENS1_6detail14CoreMethodInfoINSt3__15tupleIJNSC_18OutRawArgumentInfoILm1ELm1ELl0EEENSG_ILm4ELm4ELl4EEEEEELm0ELm8ELb0EEESJ_E7ProcessEPNS2_23CmifDomainClientMessageISB_E15ProxyBaseObjectENS2_24OutRawClientArgumentTypeILm1ELm1EEENSQ_ILm4ELm4EEEj = 0xc8870
_ZN2nn2sf4cmif6client32GetClientProcessorWithObjectBaseINS2_15CmifDomainProxyINS0_4hipc6client38Hipc2ClientSessionManagedProxyKindBaseINS6_18Hipc2ProxyKindBaseILNS5_6detail11MessageTypeE4EEEEEEEE14ObjectAssignerINS0_30MemoryResourceAllocationPolicyENS_14MemoryResourceEE14AllocateObjectINS_2am7service15IDebugFunctionsEEEvi = 0xc89cc
_ZN2nn2sf6detail38ObjectImplFactoryWithStatefulAllocatorINS0_4cmif6client16CmifProxyFactoryINS_2am7service15IDebugFunctionsENS4_15CmifDomainProxyINS0_4hipc6client38Hipc2ClientSessionManagedProxyKindBaseINSB_18Hipc2ProxyKindBaseILNSA_6detail11MessageTypeE4EEEEEEENS0_30MemoryResourceAllocationPolicyEE13ServiceObjectESJ_E6Object12AddReferenceEv = 0xc8a78
_ZN2nn2sf6detail38ObjectImplFactoryWithStatefulAllocatorINS0_4cmif6client16CmifProxyFactoryINS_2am7service15IDebugFunctionsENS4_15CmifDomainProxyINS0_4hipc6client38Hipc2ClientSessionManagedProxyKindBaseINSB_18Hipc2ProxyKindBaseILNSA_6detail11MessageTypeE4EEEEEEENS0_30MemoryResourceAllocationPolicyEE13ServiceObjectESJ_E6Object7ReleaseEv = 0xc8a80
_ZN2nn2sf4cmif6client6detail13CmifProxyImplINS_2am7service15IDebugFunctionsENS2_15CmifDomainProxyINS0_4hipc6client38Hipc2ClientSessionManagedProxyKindBaseINSA_18Hipc2ProxyKindBaseILNS9_6detail11MessageTypeE4EEEEEEENS0_30MemoryResourceAllocationPolicyES7_E12GetProxyInfoEv = 0xc8ad8
_ZN2nn2sf4cmif6client6detail13CmifProxyImplINS_2am7service15IDebugFunctionsENS2_15CmifDomainProxyINS0_4hipc6client38Hipc2ClientSessionManagedProxyKindBaseINSA_18Hipc2ProxyKindBaseILNS9_6detail11MessageTypeE4EEEEEEENS0_30MemoryResourceAllocationPolicyES7_E43_nn_sf_sync_NotifyMessageToHomeMenuForDebugENS5_13AppletMessageE = 0xc8ae0
_ZN2nn2sf4cmif6client6detail13CmifProxyImplINS_2am7service15IDebugFunctionsENS2_15CmifDomainProxyINS0_4hipc6client38Hipc2ClientSessionManagedProxyKindBaseINSA_18Hipc2ProxyKindBaseILNS9_6detail11MessageTypeE4EEEEEEENS0_30MemoryResourceAllocationPolicyES7_E31_nn_sf_sync_OpenMainApplicationENS0_3OutINS0_13SharedPointerINS6_20IApplicationAccessorEEEvEE = 0xc8b04
_ZN2nn2sf4cmif6client6detail13CmifProxyImplINS_2am7service15IDebugFunctionsENS2_15CmifDomainProxyINS0_4hipc6client38Hipc2ClientSessionManagedProxyKindBaseINSA_18Hipc2ProxyKindBaseILNS9_6detail11MessageTypeE4EEEEEEENS0_30MemoryResourceAllocationPolicyES7_E30_nn_sf_sync_EmulateButtonEventENS6_19EmulatedButtonEventE = 0xc8b98
_ZN2nn2sf4cmif6client6detail13CmifProxyImplINS_2am7service15IDebugFunctionsENS2_15CmifDomainProxyINS0_4hipc6client38Hipc2ClientSessionManagedProxyKindBaseINSA_18Hipc2ProxyKindBaseILNS9_6detail11MessageTypeE4EEEEEEENS0_30MemoryResourceAllocationPolicyES7_E37_nn_sf_sync_InvalidateTransitionLayerEv = 0xc8bbc
_ZN2nn2sf4cmif6client6detail13CmifProxyImplINS_2am7service15IDebugFunctionsENS2_15CmifDomainProxyINS0_4hipc6client38Hipc2ClientSessionManagedProxyKindBaseINSA_18Hipc2ProxyKindBaseILNS9_6detail11MessageTypeE4EEEEEEENS0_30MemoryResourceAllocationPolicyES7_E17GetCmifBaseObjectEv = 0xc8bdc
_ZThn32_N2nn2sf4cmif6client6detail13CmifProxyImplINS_2am7service15IDebugFunctionsENS2_15CmifDomainProxyINS0_4hipc6client38Hipc2ClientSessionManagedProxyKindBaseINSA_18Hipc2ProxyKindBaseILNS9_6detail11MessageTypeE4EEEEEEENS0_30MemoryResourceAllocationPolicyES7_E17GetCmifBaseObjectEv = 0xc8bec
_ZN2nn2sf4cmif6client32GetClientProcessorWithObjectBaseINS2_15CmifDomainProxyINS0_4hipc6client38Hipc2ClientSessionManagedProxyKindBaseINS6_18Hipc2ProxyKindBaseILNS5_6detail11MessageTypeE4EEEEEEEE14ObjectAssignerINS0_30MemoryResourceAllocationPolicyENS_14MemoryResourceEE14AllocateObjectINS_2am7service20IApplicationAccessorEEEvi = 0xc8bf4
_ZN2nn2sf6detail38ObjectImplFactoryWithStatefulAllocatorINS0_4cmif6client16CmifProxyFactoryINS_2am7service20IApplicationAccessorENS4_15CmifDomainProxyINS0_4hipc6client38Hipc2ClientSessionManagedProxyKindBaseINSB_18Hipc2ProxyKindBaseILNSA_6detail11MessageTypeE4EEEEEEENS0_30MemoryResourceAllocationPolicyEE13ServiceObjectESJ_E6Object12AddReferenceEv = 0xc8ca0
_ZN2nn2sf6detail38ObjectImplFactoryWithStatefulAllocatorINS0_4cmif6client16CmifProxyFactoryINS_2am7service20IApplicationAccessorENS4_15CmifDomainProxyINS0_4hipc6client38Hipc2ClientSessionManagedProxyKindBaseINSB_18Hipc2ProxyKindBaseILNSA_6detail11MessageTypeE4EEEEEEENS0_30MemoryResourceAllocationPolicyEE13ServiceObjectESJ_E6Object7ReleaseEv = 0xc8ca8
_ZN2nn2sf4cmif6client6detail13CmifProxyImplINS_2am7service15IAppletAccessorENS2_15CmifDomainProxyINS0_4hipc6client38Hipc2ClientSessionManagedProxyKindBaseINSA_18Hipc2ProxyKindBaseILNS9_6detail11MessageTypeE4EEEEEEENS0_30MemoryResourceAllocationPolicyENS6_20IApplicationAccessorEE12GetProxyInfoEv = 0xc8d00
_ZN2nn2sf4cmif6client6detail13CmifProxyImplINS_2am7service15IAppletAccessorENS2_15CmifDomainProxyINS0_4hipc6client38Hipc2ClientSessionManagedProxyKindBaseINSA_18Hipc2ProxyKindBaseILNS9_6detail11MessageTypeE4EEEEEEENS0_30MemoryResourceAllocationPolicyENS6_20IApplicationAccessorEE38_nn_sf_sync_GetIntegratedAppletPointerENS0_3OutINSt3__110shared_ptrINS6_16IntegratedAppletEEEvEE = 0xc8d08
_ZN2nn2sf4cmif6client6detail13CmifProxyImplINS_2am7service15IAppletAccessorENS2_15CmifDomainProxyINS0_4hipc6client38Hipc2ClientSessionManagedProxyKindBaseINSA_18Hipc2ProxyKindBaseILNS9_6detail11MessageTypeE4EEEEEEENS0_30MemoryResourceAllocationPolicyENS6_20IApplicationAccessorEE38_nn_sf_sync_GetAppletStateChangedEventENS0_3OutINS0_12NativeHandleEvEE = 0xc8d28
_ZN2nn2sf4cmif6client6detail13CmifProxyImplINS_2am7service15IAppletAccessorENS2_15CmifDomainProxyINS0_4hipc6client38Hipc2ClientSessionManagedProxyKindBaseINSA_18Hipc2ProxyKindBaseILNS9_6detail11MessageTypeE4EEEEEEENS0_30MemoryResourceAllocationPolicyENS6_20IApplicationAccessorEE23_nn_sf_sync_IsCompletedENS0_3OutIbvEE = 0xc8d48
_ZN2nn2sf4cmif6client6detail13CmifProxyImplINS_2am7service15IAppletAccessorENS2_15CmifDomainProxyINS0_4hipc6client38Hipc2ClientSessionManagedProxyKindBaseINSA_18Hipc2ProxyKindBaseILNS9_6detail11MessageTypeE4EEEEEEENS0_30MemoryResourceAllocationPolicyENS6_20IApplicationAccessorEE17_nn_sf_sync_StartEv = 0xc8d68
_ZN2nn2sf4cmif6client6detail13CmifProxyImplINS_2am7service15IAppletAccessorENS2_15CmifDomainProxyINS0_4hipc6client38Hipc2ClientSessionManagedProxyKindBaseINSA_18Hipc2ProxyKindBaseILNS9_6detail11MessageTypeE4EEEEEEENS0_30MemoryResourceAllocationPolicyENS6_20IApplicationAccessorEE23_nn_sf_sync_RequestExitEv = 0xc8d88
_ZN2nn2sf4cmif6client6detail13CmifProxyImplINS_2am7service15IAppletAccessorENS2_15CmifDomainProxyINS0_4hipc6client38Hipc2ClientSessionManagedProxyKindBaseINSA_18Hipc2ProxyKindBaseILNS9_6detail11MessageTypeE4EEEEEEENS0_30MemoryResourceAllocationPolicyENS6_20IApplicationAccessorEE21_nn_sf_sync_TerminateEv = 0xc8da8
_ZN2nn2sf4cmif6client6detail13CmifProxyImplINS_2am7service15IAppletAccessorENS2_15CmifDomainProxyINS0_4hipc6client38Hipc2ClientSessionManagedProxyKindBaseINSA_18Hipc2ProxyKindBaseILNS9_6detail11MessageTypeE4EEEEEEENS0_30MemoryResourceAllocationPolicyENS6_20IApplicationAccessorEE21_nn_sf_sync_GetResultEv = 0xc8dc8
_ZN2nn2sf4cmif6client6detail13CmifProxyImplINS_2am7service20IApplicationAccessorENS2_15CmifDomainProxyINS0_4hipc6client38Hipc2ClientSessionManagedProxyKindBaseINSA_18Hipc2ProxyKindBaseILNS9_6detail11MessageTypeE4EEEEEEENS0_30MemoryResourceAllocationPolicyES7_E48_nn_sf_sync_RequestForApplicationToGetForegroundEv = 0xc8de8
_ZN2nn2sf4cmif6client6detail13CmifProxyImplINS_2am7service20IApplicationAccessorENS2_15CmifDomainProxyINS0_4hipc6client38Hipc2ClientSessionManagedProxyKindBaseINSA_18Hipc2ProxyKindBaseILNS9_6detail11MessageTypeE4EEEEEEENS0_30MemoryResourceAllocationPolicyES7_E38_nn_sf_sync_TerminateAllLibraryAppletsEv = 0xc8e08
_ZN2nn2sf4cmif6client6detail13CmifProxyImplINS_2am7service20IApplicationAccessorENS2_15CmifDomainProxyINS0_4hipc6client38Hipc2ClientSessionManagedProxyKindBaseINSA_18Hipc2ProxyKindBaseILNS9_6detail11MessageTypeE4EEEEEEENS0_30MemoryResourceAllocationPolicyES7_E36_nn_sf_sync_AreAnyLibraryAppletsLeftENS0_3OutIbvEE = 0xc8e28
_ZN2nn2sf4cmif6client6detail13CmifProxyImplINS_2am7service20IApplicationAccessorENS2_15CmifDomainProxyINS0_4hipc6client38Hipc2ClientSessionManagedProxyKindBaseINSA_18Hipc2ProxyKindBaseILNS9_6detail11MessageTypeE4EEEEEEENS0_30MemoryResourceAllocationPolicyES7_E35_nn_sf_sync_GetCurrentLibraryAppletENS0_3OutINS0_13SharedPointerINS6_15IAppletAccessorEEEvEE = 0xc8e48
_ZN2nn2sf4cmif6client6detail13CmifProxyImplINS_2am7service20IApplicationAccessorENS2_15CmifDomainProxyINS0_4hipc6client38Hipc2ClientSessionManagedProxyKindBaseINSA_18Hipc2ProxyKindBaseILNS9_6detail11MessageTypeE4EEEEEEENS0_30MemoryResourceAllocationPolicyES7_E28_nn_sf_sync_GetApplicationIdENS0_3OutINS_3ncm13ApplicationIdEvEE = 0xc8edc
_ZN2nn2sf4cmif6client6detail13CmifProxyImplINS_2am7service20IApplicationAccessorENS2_15CmifDomainProxyINS0_4hipc6client38Hipc2ClientSessionManagedProxyKindBaseINSA_18Hipc2ProxyKindBaseILNS9_6detail11MessageTypeE4EEEEEEENS0_30MemoryResourceAllocationPolicyES7_E31_nn_sf_sync_PushLaunchParameterEjNS0_13SharedPointerINS6_8IStorageEEE = 0xc8efc
_ZN2nn2sf4cmif6client6detail13CmifProxyImplINS_2am7service20IApplicationAccessorENS2_15CmifDomainProxyINS0_4hipc6client38Hipc2ClientSessionManagedProxyKindBaseINSA_18Hipc2ProxyKindBaseILNS9_6detail11MessageTypeE4EEEEEEENS0_30MemoryResourceAllocationPolicyES7_E41_nn_sf_sync_GetApplicationControlPropertyERKNS0_9OutBufferE = 0xc8f4c
_ZN2nn2sf4cmif6client6detail13CmifProxyImplINS_2am7service20IApplicationAccessorENS2_15CmifDomainProxyINS0_4hipc6client38Hipc2ClientSessionManagedProxyKindBaseINSA_18Hipc2ProxyKindBaseILNS9_6detail11MessageTypeE4EEEEEEENS0_30MemoryResourceAllocationPolicyES7_E40_nn_sf_sync_GetApplicationLaunchPropertyERKNS0_9OutBufferE = 0xc8f74
_ZN2nn2sf4cmif6client6detail13CmifProxyImplINS_2am7service15IAppletAccessorENS2_15CmifDomainProxyINS0_4hipc6client38Hipc2ClientSessionManagedProxyKindBaseINSA_18Hipc2ProxyKindBaseILNS9_6detail11MessageTypeE4EEEEEEENS0_30MemoryResourceAllocationPolicyENS6_20IApplicationAccessorEE17GetCmifBaseObjectEv = 0xc8f9c
_ZThn32_N2nn2sf4cmif6client6detail13CmifProxyImplINS_2am7service15IAppletAccessorENS2_15CmifDomainProxyINS0_4hipc6client38Hipc2ClientSessionManagedProxyKindBaseINSA_18Hipc2ProxyKindBaseILNS9_6detail11MessageTypeE4EEEEEEENS0_30MemoryResourceAllocationPolicyENS6_20IApplicationAccessorEE17GetCmifBaseObjectEv = 0xc8fac
_ZN2nn2sf4cmif6client32GetClientProcessorWithObjectBaseINS2_15CmifDomainProxyINS0_4hipc6client38Hipc2ClientSessionManagedProxyKindBaseINS6_18Hipc2ProxyKindBaseILNS5_6detail11MessageTypeE4EEEEEEEE14ObjectAssignerINS0_30MemoryResourceAllocationPolicyENS_14MemoryResourceEE14AllocateObjectINS_2am7service15IAppletAccessorEEEvi = 0xc8fb4
_ZN2nn2sf6detail38ObjectImplFactoryWithStatefulAllocatorINS0_4cmif6client16CmifProxyFactoryINS_2am7service15IAppletAccessorENS4_15CmifDomainProxyINS0_4hipc6client38Hipc2ClientSessionManagedProxyKindBaseINSB_18Hipc2ProxyKindBaseILNSA_6detail11MessageTypeE4EEEEEEENS0_30MemoryResourceAllocationPolicyEE13ServiceObjectESJ_E6Object12AddReferenceEv = 0xc9060
_ZN2nn2sf6detail38ObjectImplFactoryWithStatefulAllocatorINS0_4cmif6client16CmifProxyFactoryINS_2am7service15IAppletAccessorENS4_15CmifDomainProxyINS0_4hipc6client38Hipc2ClientSessionManagedProxyKindBaseINSB_18Hipc2ProxyKindBaseILNSA_6detail11MessageTypeE4EEEEEEENS0_30MemoryResourceAllocationPolicyEE13ServiceObjectESJ_E6Object7ReleaseEv = 0xc9068
_ZN2nn2sf4cmif6client6detail13CmifProxyImplINS_2am7service15IAppletAccessorENS2_15CmifDomainProxyINS0_4hipc6client38Hipc2ClientSessionManagedProxyKindBaseINSA_18Hipc2ProxyKindBaseILNS9_6detail11MessageTypeE4EEEEEEENS0_30MemoryResourceAllocationPolicyES7_E12GetProxyInfoEv = 0xc90c0
_ZN2nn2sf4cmif6client6detail13CmifProxyImplINS_2am7service15IAppletAccessorENS2_15CmifDomainProxyINS0_4hipc6client38Hipc2ClientSessionManagedProxyKindBaseINSA_18Hipc2ProxyKindBaseILNS9_6detail11MessageTypeE4EEEEEEENS0_30MemoryResourceAllocationPolicyES7_E38_nn_sf_sync_GetIntegratedAppletPointerENS0_3OutINSt3__110shared_ptrINS6_16IntegratedAppletEEEvEE = 0xc90c8
_ZN2nn2sf4cmif6client6detail13CmifProxyImplINS_2am7service15IAppletAccessorENS2_15CmifDomainProxyINS0_4hipc6client38Hipc2ClientSessionManagedProxyKindBaseINSA_18Hipc2ProxyKindBaseILNS9_6detail11MessageTypeE4EEEEEEENS0_30MemoryResourceAllocationPolicyES7_E38_nn_sf_sync_GetAppletStateChangedEventENS0_3OutINS0_12NativeHandleEvEE = 0xc90e8
_ZN2nn2sf4cmif6client6detail13CmifProxyImplINS_2am7service15IAppletAccessorENS2_15CmifDomainProxyINS0_4hipc6client38Hipc2ClientSessionManagedProxyKindBaseINSA_18Hipc2ProxyKindBaseILNS9_6detail11MessageTypeE4EEEEEEENS0_30MemoryResourceAllocationPolicyES7_E23_nn_sf_sync_IsCompletedENS0_3OutIbvEE = 0xc9108
_ZN2nn2sf4cmif6client6detail13CmifProxyImplINS_2am7service15IAppletAccessorENS2_15CmifDomainProxyINS0_4hipc6client38Hipc2ClientSessionManagedProxyKindBaseINSA_18Hipc2ProxyKindBaseILNS9_6detail11MessageTypeE4EEEEEEENS0_30MemoryResourceAllocationPolicyES7_E17_nn_sf_sync_StartEv = 0xc9128
_ZN2nn2sf4cmif6client6detail13CmifProxyImplINS_2am7service15IAppletAccessorENS2_15CmifDomainProxyINS0_4hipc6client38Hipc2ClientSessionManagedProxyKindBaseINSA_18Hipc2ProxyKindBaseILNS9_6detail11MessageTypeE4EEEEEEENS0_30MemoryResourceAllocationPolicyES7_E23_nn_sf_sync_RequestExitEv = 0xc9148
_ZN2nn2sf4cmif6client6detail13CmifProxyImplINS_2am7service15IAppletAccessorENS2_15CmifDomainProxyINS0_4hipc6client38Hipc2ClientSessionManagedProxyKindBaseINSA_18Hipc2ProxyKindBaseILNS9_6detail11MessageTypeE4EEEEEEENS0_30MemoryResourceAllocationPolicyES7_E21_nn_sf_sync_TerminateEv = 0xc9168
_ZN2nn2sf4cmif6client6detail13CmifProxyImplINS_2am7service15IAppletAccessorENS2_15CmifDomainProxyINS0_4hipc6client38Hipc2ClientSessionManagedProxyKindBaseINSA_18Hipc2ProxyKindBaseILNS9_6detail11MessageTypeE4EEEEEEENS0_30MemoryResourceAllocationPolicyES7_E21_nn_sf_sync_GetResultEv = 0xc9188
_ZN2nn2sf4cmif6client6detail13CmifProxyImplINS_2am7service15IAppletAccessorENS2_15CmifDomainProxyINS0_4hipc6client38Hipc2ClientSessionManagedProxyKindBaseINSA_18Hipc2ProxyKindBaseILNS9_6detail11MessageTypeE4EEEEEEENS0_30MemoryResourceAllocationPolicyES7_E17GetCmifBaseObjectEv = 0xc91a8
_ZThn32_N2nn2sf4cmif6client6detail13CmifProxyImplINS_2am7service15IAppletAccessorENS2_15CmifDomainProxyINS0_4hipc6client38Hipc2ClientSessionManagedProxyKindBaseINSA_18Hipc2ProxyKindBaseILNS9_6detail11MessageTypeE4EEEEEEENS0_30MemoryResourceAllocationPolicyES7_E17GetCmifBaseObjectEv = 0xc91b8
_ZN2nn2sf4cmif6client34CmifDomainProxyClientCoreProcessorINS0_4hipc6client38Hipc2ClientSessionManagedProxyKindBaseINS5_18Hipc2ProxyKindBaseILNS4_6detail11MessageTypeE4EEEEENS1_6detail14CoreMethodInfoINSt3__15tupleIJNSC_17InRawArgumentInfoILm4ELm4ELl0EEENSC_20InObjectArgumentInfoILi0ELi0EEEEEELm4ELm0ELb0EEESK_E7ProcessEPNS2_23CmifDomainClientMessageISB_E15ProxyBaseObjectENS2_23InRawClientArgumentTypeILm4ELm4EvEENS2_26InObjectClientArgumentTypeEj = 0xc91c0
_ZN2nn2sf4cmif6client32GetClientProcessorWithObjectBaseINS2_15CmifDomainProxyINS0_4hipc6client38Hipc2ClientSessionManagedProxyKindBaseINS6_18Hipc2ProxyKindBaseILNS5_6detail11MessageTypeE4EEEEEEEE14ObjectAssignerINS0_30MemoryResourceAllocationPolicyENS_14MemoryResourceEE14AllocateObjectINS_2am7service25IProcessWindingControllerEEEvi = 0xc9324
_ZN2nn2sf6detail38ObjectImplFactoryWithStatefulAllocatorINS0_4cmif6client16CmifProxyFactoryINS_2am7service25IProcessWindingControllerENS4_15CmifDomainProxyINS0_4hipc6client38Hipc2ClientSessionManagedProxyKindBaseINSB_18Hipc2ProxyKindBaseILNSA_6detail11MessageTypeE4EEEEEEENS0_30MemoryResourceAllocationPolicyEE13ServiceObjectESJ_E6Object12AddReferenceEv = 0xc93d0
_ZN2nn2sf6detail38ObjectImplFactoryWithStatefulAllocatorINS0_4cmif6client16CmifProxyFactoryINS_2am7service25IProcessWindingControllerENS4_15CmifDomainProxyINS0_4hipc6client38Hipc2ClientSessionManagedProxyKindBaseINSB_18Hipc2ProxyKindBaseILNSA_6detail11MessageTypeE4EEEEEEENS0_30MemoryResourceAllocationPolicyEE13ServiceObjectESJ_E6Object7ReleaseEv = 0xc93d8
_ZN2nn2sf4cmif6client6detail13CmifProxyImplINS_2am7service25IProcessWindingControllerENS2_15CmifDomainProxyINS0_4hipc6client38Hipc2ClientSessionManagedProxyKindBaseINSA_18Hipc2ProxyKindBaseILNS9_6detail11MessageTypeE4EEEEEEENS0_30MemoryResourceAllocationPolicyES7_E12GetProxyInfoEv = 0xc9430
_ZN2nn2sf4cmif6client6detail13CmifProxyImplINS_2am7service25IProcessWindingControllerENS2_15CmifDomainProxyINS0_4hipc6client38Hipc2ClientSessionManagedProxyKindBaseINSA_18Hipc2ProxyKindBaseILNS9_6detail11MessageTypeE4EEEEEEENS0_30MemoryResourceAllocationPolicyES7_E27_nn_sf_sync_GetLaunchReasonENS0_3OutINS6_25AppletProcessLaunchReasonEvEE = 0xc9438
